--- !tapi-tbd
tbd-version:     4
targets:         [ x86_64-macos, arm64-macos, arm64e-macos, arm64e-maccatalyst ]
install-name:    '/usr/lib/libaxis.dylib'
current-version: 0
compatibility-version: 0
exports:
  - targets:         [ x86_64-macos, arm64-macos, arm64e-macos, arm64e-maccatalyst ]
    symbols:         [ __ZN4axis10AlphaShape11alpha_shapeERKNS_12MultiPoint2DEd, 
                       __ZN4axis10AlphaShape22geometry_to_multipointERKNS_10Geometry2DEdd, 
                       __ZN4axis10AlphaShape3getEd, __ZN4axis10AlphaShapeC1EOS0_, 
                       __ZN4axis10AlphaShapeC1ERKNS_12MultiPoint2DE, __ZN4axis10AlphaShapeC2EOS0_, 
                       __ZN4axis10AlphaShapeC2ERKNS_12MultiPoint2DE, __ZN4axis10AlphaShapeD1Ev, 
                       __ZN4axis10AlphaShapeD2Ev, __ZN4axis10AlphaShapeaSEOS0_, __ZN4axis10Converters5as_2dENSt3__110shared_ptrINS_8GeometryEEEb, 
                       __ZN4axis10Converters5as_2dENSt3__14pairINS1_10shared_ptrINS_8GeometryEEES5_EEb, 
                       __ZN4axis10Converters5as_2dENSt3__16vectorINS1_10shared_ptrINS_8GeometryEEENS1_9allocatorIS5_EEEEb, 
                       __ZN4axis10Converters5as_3dENSt3__110shared_ptrINS_8GeometryEEE, 
                       __ZN4axis10Converters5as_3dENSt3__14pairINS1_10shared_ptrINS_8GeometryEEES5_EE, 
                       __ZN4axis10Converters5as_3dENSt3__16vectorINS1_10shared_ptrINS_8GeometryEEENS1_9allocatorIS5_EEEE, 
                       __ZN4axis10ConvexHull3getERKNS_10Geometry2DE, __ZN4axis10MedialAxis30compute_simplified_medial_axisENSt3__110shared_ptrINS_9Polygon2DEEEdd, 
                       __ZN4axis10Polyline2D10points_endEv, __ZN4axis10Polyline2D12points_beginEv, 
                       __ZN4axis10Polyline2D7reverseEv, __ZN4axis10Polyline2DaSERKS0_, 
                       __ZN4axis10SliceDonut10get_resultEv, __ZN4axis10SliceDonut10slice_leftERKNS0_5EventERNSt3__16vectorIS1_NS4_9allocatorIS1_EEEE, 
                       __ZN4axis10SliceDonut11slice_donutERKNS_14MultiPolygon2DE, 
                       __ZN4axis10SliceDonut11slice_donutERKNS_9Polygon2DE, __ZN4axis10SliceDonut11slice_rightERKNS0_5EventERNSt3__16vectorIS1_NS4_9allocatorIS1_EEEE, 
                       __ZN4axis10SliceDonut13point_greaterERKNS_11PointData2DES3_, 
                       __ZN4axis10SliceDonut16print_active_setEv, __ZN4axis10SliceDonut19compare_events_by_xERKNS0_5EventES3_, 
                       __ZN4axis10SliceDonut24create_segs_and_verticesERKNS_9Polygon2DE, 
                       __ZN4axis10SliceDonut3SegC1ERKNS_9LineSeg2DEPNS0_6VertexE, 
                       __ZN4axis10SliceDonut3SegC2ERKNS_9LineSeg2DEPNS0_6VertexE, 
                       __ZN4axis10SliceDonut4initERKNS_9Polygon2DE, __ZN4axis10SliceDonut5EventC1ENS1_4TypeERKNS_11PointData2DEPNS0_3SegE, 
                       __ZN4axis10SliceDonut5EventC2ENS1_4TypeERKNS_11PointData2DEPNS0_3SegE, 
                       __ZN4axis10SliceDonut5sweepEv, __ZN4axis10Validation20is_self_intersectingERKNS_10Geometry2DE, 
                       __ZN4axis10Validation32get_duplicate_consecutive_pointsERKNS_10Polyline2DE, 
                       __ZN4axis10Validation32has_duplicate_consecutive_pointsERKNS_10Polyline2DE, 
                       __ZN4axis10Validation8is_validERKNS_10Geometry2DE, __ZN4axis11ConcaveHull23by_relative_edge_lengthEd, 
                       __ZN4axis11ConcaveHull31by_absolute_squared_edge_lengthEd, 
                       __ZN4axis11ConcaveHullC1EOS0_, __ZN4axis11ConcaveHullC1ERKNS_10Geometry2DE, 
                       __ZN4axis11ConcaveHullC2EOS0_, __ZN4axis11ConcaveHullC2ERKNS_10Geometry2DE, 
                       __ZN4axis11ConcaveHullD1Ev, __ZN4axis11ConcaveHullD2Ev, __ZN4axis11ConcaveHullaSEOS0_, 
                       __ZN4axis11LinearFit2D14calculate_rmseENSt3__111__wrap_iterIPKNS_11PointData2DEEES6_RKNS_9LineSeg2DERS6_, 
                       __ZN4axis11PointData2DmIERKNS_12BaseVector2DIdEE, __ZN4axis11PointData2DpLERKNS_12BaseVector2DIdEE, 
                       __ZN4axis12MultiPoint2D10points_endEv, __ZN4axis12MultiPoint2D12points_beginEv, 
                       __ZN4axis12MultiPoint2DaSERKS0_, __ZN4axis13CubicBezier2D14is_flat_enoughERKNS_11PointData2DES3_S3_S3_d, 
                       __ZN4axis13CubicBezier2D19approximate_segmentERKNS_11PointData2DES3_S3_S3_dNSt3__110shared_ptrINS_10Polyline2DEEE, 
                       __ZN4axis14ChaikinRefiner6refineERKNS_10Geometry2DEm, __ZN4axis14MultiPolygon2D10points_endEv, 
                       __ZN4axis14MultiPolygon2D12points_beginEv, __ZN4axis14MultiPolygon2D13make_no_holesEv, 
                       __ZN4axis14MultiPolygon2DaSERKS0_, __ZN4axis14Simplification3dmsENSt3__110shared_ptrINS_10Geometry2DEEEd, 
                       __ZN4axis15AltitudeHarness10draw_frameEb, __ZN4axis15AltitudeHarness10new_windowENS_8EmptyPtrIN8altitude6CameraEEE, 
                       __ZN4axis15AltitudeHarness11trace_edgesERKNS_10Geometry2DEdNS_8EmptyPtrIN8altitude5LayerEEENS_5ColorES8_, 
                       __ZN4axis15AltitudeHarness12dynamic_zoomERKN5terra11PointData3DEdi, 
                       __ZN4axis15AltitudeHarness12dynamic_zoomERKNS_11PointData2DEdi, 
                       __ZN4axis15AltitudeHarness12gui_geometryERKNS_8GeometryERKNSt3__112basic_stringIcNS4_11char_traitsIcEENS4_9allocatorIcEEEE, 
                       __ZN4axis15AltitudeHarness16morph_geometriesERKNS_10Geometry2DES3_mNS_8EmptyPtrIN8altitude5LayerEEEjNS_5ColorE, 
                       __ZN4axis15AltitudeHarness17get_active_windowEv, __ZN4axis15AltitudeHarness17set_active_windowENS_8EmptyPtrIN8altitude6WindowEEE, 
                       __ZN4axis15AltitudeHarness19set_default_z_scaleEd, __ZN4axis15AltitudeHarness20get_altitude_harnessEv, 
                       __ZN4axis15AltitudeHarness8gui_meshERKN5terra5TMeshERKNSt3__112basic_stringIcNS5_11char_traitsIcEENS5_9allocatorIcEEEE, 
                       __ZN4axis15AltitudeHarness8gui_meshERKNSt3__16vectorIdNS1_9allocatorIdEEEERKNS2_IiNS3_IiEEEERKNS1_12basic_stringIcNS1_11char_traitsIcEENS3_IcEEEE, 
                       __ZN4axis15AltitudeHarness8show_guiEv, __ZN4axis15AltitudeHarnessC1Ev, 
                       __ZN4axis15AltitudeHarnessC2Ev, __ZN4axis15ApplyElevations16add_elev_ref_op0ERKN5terra10Geometry3DE, 
                       __ZN4axis15ApplyElevations16add_elev_ref_op1ERKN5terra10Geometry3DE, 
                       __ZN4axis15ApplyElevations16apply_elevationsERKNS_10Geometry2DE, 
                       __ZN4axis15ApplyElevations16apply_elevationsERKNS_11PointData2DE, 
                       __ZN4axis15ApplyElevations9Elevation7combineEdiNS0_18ResolutionStrategyE, 
                       __ZN4axis15ApplyElevations9ElevationC1Ev, __ZN4axis15ApplyElevations9ElevationC2Ev, 
                       __ZN4axis15ApplyElevationsC1ENS0_18ResolutionStrategyE, __ZN4axis15ApplyElevationsC1ENS0_18ResolutionStrategyERKN5terra10Geometry3DES5_, 
                       __ZN4axis15ApplyElevationsC2ENS0_18ResolutionStrategyE, __ZN4axis15ApplyElevationsC2ENS0_18ResolutionStrategyERKN5terra10Geometry3DES5_, 
                       __ZN4axis15MultiGeometry2D10points_endEv, __ZN4axis15MultiGeometry2D12points_beginEv, 
                       __ZN4axis15MultiGeometry2D13points_3d_endEv, __ZN4axis15MultiGeometry2D15points_3d_beginEv, 
                       __ZN4axis15MultiGeometry2DaSERKS0_, __ZN4axis15MultiPolyline2D10points_endEv, 
                       __ZN4axis15MultiPolyline2D12points_beginEv, __ZN4axis15MultiPolyline2DaSERKS0_, 
                       __ZN4axis15PartialGeometry20partial_multipolygonERKNS_15MultiPolyline2DERKNS_6BBox2DEd, 
                       __ZN4axis15ShortestSegment16shortest_segmentENS_9LineSeg2DES1_RKNS_11PointData2DE, 
                       __ZN4axis15ShortestSegment16shortest_segmentERKNS_10Geometry2DERKNS_11PointData2DE, 
                       __ZN4axis16DynamicIndexImpl13insert_workerERKNS_10Geometry2DERPNS_18DynamicIndexHandleE, 
                       __ZN4axis16DynamicIndexImpl5eraseERKPNS_18DynamicIndexHandleE, 
                       __ZN4axis16DynamicIndexImpl6insertERKNS_10Geometry2DERPNS_18DynamicIndexHandleE, 
                       __ZN4axis16DynamicIndexImpl6insertERKNS_10Triangle2DERPNS_18DynamicIndexHandleE, 
                       __ZN4axis16DynamicIndexImpl6insertERKNS_11PointData2DERPNS_18DynamicIndexHandleE, 
                       __ZN4axis16DynamicIndexImpl6insertERKNS_6BBox2DERPNS_18DynamicIndexHandleE, 
                       __ZN4axis16DynamicIndexImpl6insertERKNS_7Point2DERPNS_18DynamicIndexHandleE, 
                       __ZN4axis16DynamicIndexImpl6insertERKNS_9LineSeg2DERPNS_18DynamicIndexHandleE, 
                       __ZN4axis16DynamicIndexImpl6insertERKNSt3__110shared_ptrINS_10Geometry2DEEERPNS_18DynamicIndexHandleE, 
                       __ZN4axis16DynamicIndexImplC1Ev, __ZN4axis16DynamicIndexImplC2Ev, 
                       __ZN4axis16DynamicIndexImplD1Ev, __ZN4axis16DynamicIndexImplD2Ev, 
                       __ZN4axis16PolylineSplitter22split_at_intersectionsERKNS_15MultiGeometry2DEd, 
                       __ZN4axis16SpatialIndexImpl10make_indexEv, __ZN4axis16SpatialIndexImpl6insertERKNS_10Geometry2DE, 
                       __ZN4axis16SpatialIndexImpl6insertERKNS_10Geometry2DEm, __ZN4axis16SpatialIndexImpl6insertERKNS_10Triangle2DE, 
                       __ZN4axis16SpatialIndexImpl6insertERKNS_11PointData2DE, __ZN4axis16SpatialIndexImpl6insertERKNS_6BBox2DE, 
                       __ZN4axis16SpatialIndexImpl6insertERKNS_7Point2DE, __ZN4axis16SpatialIndexImpl6insertERKNS_9LineSeg2DE, 
                       __ZN4axis16SpatialIndexImpl6insertERKNSt3__110shared_ptrINS_10Geometry2DEEE, 
                       __ZN4axis16SpatialIndexImplC1Ev, __ZN4axis16SpatialIndexImplC2Ev, 
                       __ZN4axis16SpatialIndexImplD1Ev, __ZN4axis16SpatialIndexImplD2Ev, 
                       __ZN4axis17OuterHolesRemover3getERKNS_14MultiPolygon2DEb, 
                       __ZN4axis17OuterHolesRemover3getERKNS_6Ring2DE, __ZN4axis17OuterHolesRemover3getERKNS_9Polygon2DEb, 
                       __ZN4axis17SpatialPredicates10covered_byERKNS_10Geometry2DES3_d, 
                       __ZN4axis17SpatialPredicates10intersectsERKNS_10Geometry2DERKNS_6BBox2DEd, 
                       __ZN4axis17SpatialPredicates10intersectsERKNS_10Geometry2DES3_d, 
                       __ZN4axis17SpatialPredicates10intersectsERKNS_6BBox2DERKNS_10Geometry2DEd, 
                       __ZN4axis17SpatialPredicates10intersectsERKNS_6BBox2DERKNS_9LineSeg2DEd, 
                       __ZN4axis17SpatialPredicates10intersectsERKNS_6BBox2DES3_d, 
                       __ZN4axis17SpatialPredicates10intersectsERKNS_9LineSeg2DERKNS_6BBox2DEd, 
                       __ZN4axis17SpatialPredicates20is_self_intersectingERKNS_10Geometry2DE, 
                       __ZN4axis17SpatialPredicates6coversERKNS_10Geometry2DES3_d, 
                       __ZN4axis17SpatialPredicates6equalsERKNS_10Geometry2DES3_d, 
                       __ZN4axis17SpatialPredicates6relateERKNS_10Geometry2DES3_RKNS_5DE9IMEd, 
                       __ZN4axis17SpatialPredicates6relateERKNS_10Geometry2DES3_RKNSt3__16vectorINS_5DE9IMENS4_9allocatorIS6_EEEEd, 
                       __ZN4axis17SpatialPredicates6withinERKNS_10Geometry2DES3_d, 
                       __ZN4axis17SpatialPredicates7crossesERKNS_10Geometry2DES3_d, 
                       __ZN4axis17SpatialPredicates7touchesERKNS_10Geometry2DES3_d, 
                       __ZN4axis17SpatialPredicates8containsERKNS_10Geometry2DES3_d, 
                       __ZN4axis17SpatialPredicates8disjointERKNS_10Geometry2DES3_d, 
                       __ZN4axis17SpatialPredicates8overlapsERKNS_10Geometry2DES3_d, 
                       __ZN4axis17SpatialPredicates9get_de9imERKNS_10Geometry2DES3_d, 
                       __ZN4axis18PolygonPartitioner9partitionERKNS_14MultiPolygon2DERKNS_10Geometry2DEd, 
                       __ZN4axis18get_interior_pointENSt3__110shared_ptrINS_10Geometry2DEEE, 
                       __ZN4axis19ConvexDecomposition27compute_exact_decompositionERKNS_9Polygon2DE, 
                       __ZN4axis20AffineTransformation10from_scaleEd, __ZN4axis20AffineTransformation10from_scaleEdd, 
                       __ZN4axis20AffineTransformation13from_identityEv, __ZN4axis20AffineTransformation13from_rotationEd, 
                       __ZN4axis20AffineTransformation13from_rotationEddd, __ZN4axis20AffineTransformation15from_reflectionERKNS_12BaseVector2DIdEE, 
                       __ZN4axis20AffineTransformation15from_reflectionEdd, __ZN4axis20AffineTransformation16from_translationERKNS_12BaseVector2DIdEE, 
                       __ZN4axis20AffineTransformation16from_translationEdd, __ZN4axis20AffineTransformationC1ERKS0_, 
                       __ZN4axis20AffineTransformationC1Edddddd, __ZN4axis20AffineTransformationC1Ev, 
                       __ZN4axis20AffineTransformationC2ERKS0_, __ZN4axis20AffineTransformationC2Edddddd, 
                       __ZN4axis20AffineTransformationC2Ev, __ZN4axis20AffineTransformationaSERKS0_, 
                       __ZN4axis21CollinearPointRemover16remove_collinearENSt3__110shared_ptrINS_10Geometry2DEEE, 
                       __ZN4axis21CollinearPointRemover16remove_collinearERKNS_10Geometry2DE, 
                       __ZN4axis21CollinearPointRemover16remove_collinearERKNS_10Polyline2DEPNSt3__16vectorImNS4_9allocatorImEEEE, 
                       __ZN4axis21CollinearPointRemover16remove_collinearERKNS_14MultiPolygon2DE, 
                       __ZN4axis21CollinearPointRemover16remove_collinearERKNS_15MultiGeometry2DE, 
                       __ZN4axis21CollinearPointRemover16remove_collinearERKNS_15MultiPolyline2DE, 
                       __ZN4axis21CollinearPointRemover16remove_collinearERKNS_9Polygon2DE, 
                       __ZN4axis21CollinearPointRemover24remove_exactly_collinearERKNS_10Geometry2DE, 
                       __ZN4axis21CollinearPointRemover25remove_collinear_by_angleERKNS_10Geometry2DEd, 
                       __ZN4axis21DuplicatePointRemover23remove_duplicate_pointsERNS_10Geometry2DE, 
                       __ZN4axis21DuplicatePointRemover23remove_duplicate_pointsERNS_10Polyline2DE, 
                       __ZN4axis21DuplicatePointRemover23remove_duplicate_pointsERNS_12MultiPoint2DE, 
                       __ZN4axis21DuplicatePointRemover23remove_duplicate_pointsERNS_6Ring2DE, 
                       __ZN4axis22PolesOfInaccessibility18set_densify_lengthERKd, 
                       __ZN4axis22PolesOfInaccessibility21set_percent_thresholdERKd, 
                       __ZN4axis25MinimumEnclosingRectangle3getERKNS_10Geometry2DE, 
                       __ZN4axis3CDT11bounded_cdtERKNS_10Geometry2DE, __ZN4axis3CDT15to_multipolygonERKNSt3__16vectorINS_10Triangle2DENS1_9allocatorIS3_EEEE, 
                       __ZN4axis3CDT3cdtERKNS_10Geometry2DES3_d, __ZN4axis3CDT3cdtERKNS_10Geometry2DEd, 
                       __ZN4axis3CDT9basic_cdtERKNS_10Geometry2DE, __ZN4axis4DCEL11insert_edgeEPNS0_6VertexES2_, 
                       __ZN4axis4DCEL17remove_inclusionsEv, __ZN4axis4DCEL4Face15make_equivalentEPS1_, 
                       __ZN4axis4DCEL4Face8get_rootEv, __ZN4axis4DCELC1EbRKNS0_6ConfigEdRKNS_15MultiGeometry2DE, 
                       __ZN4axis4DCELC2EbRKNS0_6ConfigEdRKNS_15MultiGeometry2DE, 
                       __ZN4axis5Angle16compare_orientedERKNS_11PointData2DES3_S3_RKd, 
                       __ZN4axis5Angle16compare_orientedERKNS_11PointData2DES3_S3_S3_S3_S3_, 
                       __ZN4axis5Angle16compute_orientedERKNS_11PointData2DES3_S3_, 
                       __ZN4axis5Angle7compareERKNS_11PointData2DES3_S3_RKd, __ZN4axis5Angle7compareERKNS_11PointData2DES3_S3_S3_S3_S3_, 
                       __ZN4axis5Angle7computeERKNS_11PointData2DES3_S3_, __ZN4axis5Angle7computeERKNS_11PointData2DES3_S3_S3_, 
                       __ZN4axis5Angle7computeERKNS_9LineSeg2DES3_, __ZN4axis5Angle9normalizeEd, 
                       __ZN4axis5ColorC1EPjb, __ZN4axis5ColorC2EPjb, __ZN4axis5DE9IM15get_de9im_emptyENS_7GeomDimES1_, 
                       __ZN4axis5DE9IM17DimensionFromCharEc, __ZN4axis5DE9IM20crosses_preconditionENS_7GeomDimES1_, 
                       __ZN4axis5DE9IM21overlaps_preconditionENS_7GeomDimES1_, __ZN4axis5DE9IM3setENS0_6RegionES1_NS_7GeomDimE, 
                       __ZN4axis5DE9IM9satisfiesENS0_9DimensionES1_, __ZN4axis5DE9IM9transposeEv, 
                       __ZN4axis5DE9IMC1ERKNSt3__112basic_stringIcNS1_11char_traitsIcEENS1_9allocatorIcEEEE, 
                       __ZN4axis5DE9IMC1ERKS0_, __ZN4axis5DE9IMC1Ev, __ZN4axis5DE9IMC2ERKNSt3__112basic_stringIcNS1_11char_traitsIcEENS1_9allocatorIcEEEE, 
                       __ZN4axis5DE9IMC2ERKS0_, __ZN4axis5DE9IMC2Ev, __ZN4axis5DE9IMaSERKS0_, 
                       __ZN4axis5Split10last_pointERKNS_10Polyline2DE, __ZN4axis5Split11first_pointERKNS_10Polyline2DE, 
                       __ZN4axis5Split16get_sub_polylineERKNS_10Polyline2DERKNS_14LinearLocationES6_, 
                       __ZN4axis5Split16get_sub_polylineERKNS_10Polyline2DEdd, __ZN4axis5Split18at_linear_locationERKNS_10Polyline2DERKNS_14LinearLocationE, 
                       __ZN4axis5Split19at_linear_locationsERKNS_10Polyline2DERKNSt3__16vectorINS_14LinearLocationENS4_9allocatorIS6_EEEE, 
                       __ZN4axis5Split20location_from_lengthERKNS_10Polyline2DEd, 
                       __ZN4axis5Split21at_fraction_of_lengthERKNS_10Polyline2DEd, 
                       __ZN4axis5Split22at_fractions_of_lengthERKNS_10Polyline2DERKNSt3__16vectorIdNS4_9allocatorIdEEEE, 
                       __ZN4axis5Split22location_from_fractionERKNS_10Polyline2DEd, 
                       __ZN4axis5Split23get_normalized_locationERKNS_10Polyline2DERKNS_14LinearLocationE, 
                       __ZN4axis5Split27get_polyline_after_locationERKNS_10Polyline2DERKNS_14LinearLocationE, 
                       __ZN4axis5Split28get_polyline_before_locationERKNS_10Polyline2DERKNS_14LinearLocationE, 
                       __ZN4axis5Split30get_polyline_between_locationsERKNS_10Polyline2DERKNS_14LinearLocationES6_, 
                       __ZN4axis5Split9at_lengthERKNS_10Polyline2DEd, __ZN4axis5Stats10set_job_idEPKc, 
                       __ZN4axis5Stats13enable_uploadEv, __ZN4axis5Stats13repeat_uploadEv, 
                       __ZN4axis5Stats14disable_uploadEv, __ZN4axis5Stats14enable_loggingEv, 
                       __ZN4axis5Stats14signal_handlerEi, __ZN4axis5Stats14upload_enabledEv, 
                       __ZN4axis5Stats15disable_loggingEv, __ZN4axis5Stats15logging_enabledEv, 
                       __ZN4axis5Stats22get_unique_accumulatorEPKc, __ZN4axis5Stats3logEv, 
                       __ZN4axis5Stats5statsEv, __ZN4axis5Stats6uploadEv, __ZN4axis5Stats8shutdownEv, 
                       __ZN4axis5Stats9Collector16add_output_statsEiii, __ZN4axis5Stats9CollectorC1ERNS0_11AccumulatorEPNSt3__113basic_istreamIcNS4_11char_traitsIcEEEE, 
                       __ZN4axis5Stats9CollectorC1ERNS0_11AccumulatorEiiii, __ZN4axis5Stats9CollectorC2ERNS0_11AccumulatorEPNSt3__113basic_istreamIcNS4_11char_traitsIcEEEE, 
                       __ZN4axis5Stats9CollectorC2ERNS0_11AccumulatorEiiii, __ZN4axis5Stats9CollectorD1Ev, 
                       __ZN4axis5Stats9CollectorD2Ev, __ZN4axis5StatsC1Ev, __ZN4axis5StatsC2Ev, 
                       __ZN4axis6BBox2D12scaled_shiftEdd, __ZN4axis6BBox2D14grow_to_aspectEd, 
                       __ZN4axis6BBox2D19translate_non_emptyEdd, __ZN4axis6BBox2D4growEd, 
                       __ZN4axis6BBox2D5scaleEd, __ZN4axis6BBox2D5scaleEdd, __ZN4axis6BBox2D7scale_xEd, 
                       __ZN4axis6BBox2D7scale_yEd, __ZN4axis6BBox2D8recenterERKNS_11PointData2DE, 
                       __ZN4axis6BBox2D9translateEdd, __ZN4axis6BBox2DC1ERKdS2_S2_S2_b, 
                       __ZN4axis6BBox2DC2ERKdS2_S2_S2_b, __ZN4axis6BBox2DpLERKNS_11PointData2DE, 
                       __ZN4axis6BBox2DpLERKS0_, __ZN4axis6Buffer6bufferERKNS_10Geometry2DE, 
                       __ZN4axis6BufferC1EddiNS_11CornerStyleENS_8EndStyleEd, __ZN4axis6BufferC2EddiNS_11CornerStyleENS_8EndStyleEd, 
                       __ZN4axis6Logger6volumeE, __ZN4axis6Ring2D10points_endEv, 
                       __ZN4axis6Ring2D12points_beginEv, __ZN4axis6Ring2DC1ERKNS_10Polyline2DE, 
                       __ZN4axis6Ring2DC1ERKNS_6BBox2DE, __ZN4axis6Ring2DC2ERKNS_10Polyline2DE, 
                       __ZN4axis6Ring2DC2ERKNS_6BBox2DE, __ZN4axis7Aligner10score_loopEPKNS_4DCEL8HalfedgeERNSt3__13mapIjNS0_9FaceScoreENS5_4lessIjEENS5_9allocatorINS5_4pairIKjS7_EEEEEEj, 
                       __ZN4axis7Aligner14classify_facesEv, __ZN4axis7Aligner20get_aligned_polygonsEv, 
                       __ZN4axis7Aligner20partition_multi_gapsEv, __ZN4axis7Aligner22score_and_assign_facesENSt3__18functionIFbRKNS0_9FaceScoreES5_EEEj, 
                       __ZN4axis7Aligner24extract_all_shared_edgesEv, __ZN4axis7Aligner27partition_faces_medial_axisEv, 
                       __ZN4axis7Aligner5alignEv, __ZN4axis7AlignerC1ERKNS_15MultiGeometry2DERKNSt3__16vectorIjNS4_9allocatorIjEEEE, 
                       __ZN4axis7AlignerC2ERKNS_15MultiGeometry2DERKNSt3__16vectorIjNS4_9allocatorIjEEEE, 
                       __ZN4axis7Clipper12clip_by_typeERKNS_10Geometry2DE, __ZN4axis7Clipper4clipERKNS_10Geometry2DE, 
                       __ZN4axis7Clipper4clipERKNS_10Geometry2DERNSt3__113basic_ostreamIcNS4_11char_traitsIcEEEE, 
                       __ZN4axis7Point2D10points_endEv, __ZN4axis7Point2D12points_beginEv, 
                       __ZN4axis7Point2DaSERKS0_, __ZN4axis7Version11get_versionEv, 
                       __ZN4axis7Voronoi24get_enclosed_subdivisionERKNSt3__16vectorINS1_10shared_ptrINS_12MultiPoint2DEEENS1_9allocatorIS5_EEEENS_6BBox2DEd, 
                       __ZN4axis8Diameter20get_diametric_pointsERKNS_10Geometry2DE, 
                       __ZN4axis8Diameter3getERKNS_10Geometry2DE, __ZN4axis8Distance14closest_pointsERKNS_10Geometry2DES3_, 
                       __ZN4axis8Distance16k_closest_pointsERKNS_10Geometry2DERKNS_7Point2DEm, 
                       __ZN4axis8Distance18all_closest_pointsERKNS_10Geometry2DERKNS_7Point2DE, 
                       __ZN4axis8Distance18directed_hausdorffERKNS_10Geometry2DES3_d, 
                       __ZN4axis8Distance18is_within_distanceERKNS_10Geometry2DES3_db, 
                       __ZN4axis8Distance28all_closest_linear_locationsERKNS_10Polyline2DERKNS_7Point2DE, 
                       __ZN4axis8Distance7FrechetERKNS_10Polyline2DES3_, __ZN4axis8Distance8diameterERKNS_10Geometry2DE, 
                       __ZN4axis8Distance9EuclideanERKN5terra7Point3DES4_, __ZN4axis8Distance9EuclideanERKNS_10Geometry2DES3_, 
                       __ZN4axis8Distance9HausdorffERKNS_10Geometry2DES3_d, __ZN4axis8Geometry13points_3d_endEv, 
                       __ZN4axis8Geometry15points_3d_beginEv, __ZN4axis8Stitcher6stitchERKNS_10Geometry2DE, 
                       __ZN4axis9ACFReader12read_file_2dERKNSt3__112basic_stringIcNS1_11char_traitsIcEENS1_9allocatorIcEEEEb, 
                       __ZN4axis9ACFReader12read_file_3dERKNSt3__112basic_stringIcNS1_11char_traitsIcEENS1_9allocatorIcEEEE, 
                       __ZN4axis9ACFReader13read_geometryERNSt3__113basic_istreamIcNS1_11char_traitsIcEEEE, 
                       __ZN4axis9ACFReader16read_geometry_2dERNSt3__113basic_istreamIcNS1_11char_traitsIcEEEEb, 
                       __ZN4axis9ACFReader16read_geometry_3dERNSt3__113basic_istreamIcNS1_11char_traitsIcEEEE, 
                       __ZN4axis9ACFReader9read_fileERKNSt3__112basic_stringIcNS1_11char_traitsIcEENS1_9allocatorIcEEEE, 
                       __ZN4axis9ACFWriter10write_fileERKNS_8GeometryERKNSt3__112basic_stringIcNS4_11char_traitsIcEENS4_9allocatorIcEEEEdd, 
                       __ZN4axis9ACFWriter14write_file_hexERKNS_8GeometryERKNSt3__112basic_stringIcNS4_11char_traitsIcEENS4_9allocatorIcEEEEdd, 
                       __ZN4axis9ACFWriter14write_geometryERKNS_8GeometryERNSt3__113basic_ostreamIcNS4_11char_traitsIcEEEEdd, 
                       __ZN4axis9ACFWriter18write_geometry_hexERKNS_8GeometryERNSt3__113basic_ostreamIcNS4_11char_traitsIcEEEEdd, 
                       __ZN4axis9ArgParser10GeomOrMeshC1EPKcNSt3__110shared_ptrIN5terra5TMeshEEE, 
                       __ZN4axis9ArgParser10GeomOrMeshC1EPKcNSt3__110shared_ptrINS_8GeometryEEE, 
                       __ZN4axis9ArgParser10GeomOrMeshC2EPKcNSt3__110shared_ptrIN5terra5TMeshEEE, 
                       __ZN4axis9ArgParser10GeomOrMeshC2EPKcNSt3__110shared_ptrINS_8GeometryEEE, 
                       __ZN4axis9ArgParser10delete_argEi, __ZN4axis9ArgParser10parse_geomEPKcS2_S2_b, 
                       __ZN4axis9ArgParser10read_stdinEv, __ZN4axis9ArgParser11read_a_geomEi, 
                       __ZN4axis9ArgParser11read_a_meshEv, __ZN4axis9ArgParser12parse_doubleEPKcS2_S2_db, 
                       __ZN4axis9ArgParser12parse_stringEPKcS2_S2_S2_b, __ZN4axis9ArgParser12read_nothingEv, 
                       __ZN4axis9ArgParser12write_outputEPKc, __ZN4axis9ArgParser12write_outputERKNS_8GeometryE, 
                       __ZN4axis9ArgParser12write_outputEb, __ZN4axis9ArgParser12write_outputEd, 
                       __ZN4axis9ArgParser12write_outputEi, __ZN4axis9ArgParser12write_outputEm, 
                       __ZN4axis9ArgParser13parse_booleanEPKcS2_S2_, __ZN4axis9ArgParser13read_one_geomEv, 
                       __ZN4axis9ArgParser13read_one_meshEv, __ZN4axis9ArgParser13set_help_flagEv, 
                       __ZN4axis9ArgParser14read_all_filesEv, __ZN4axis9ArgParser14read_all_geomsEv, 
                       __ZN4axis9ArgParser14read_two_geomsEv, __ZN4axis9ArgParser15parse_precisionEdb, 
                       __ZN4axis9ArgParser15read_all_meshesEv, __ZN4axis9ArgParser15read_two_meshesEv, 
                       __ZN4axis9ArgParser16read_one_geom_2dEb, __ZN4axis9ArgParser16read_one_geom_3dEv, 
                       __ZN4axis9ArgParser17parse_interactiveEv, __ZN4axis9ArgParser17parse_precision_zEdb, 
                       __ZN4axis9ArgParser17read_all_geoms_2dEb, __ZN4axis9ArgParser17read_all_geoms_3dEv, 
                       __ZN4axis9ArgParser17read_two_geoms_2dEb, __ZN4axis9ArgParser17read_two_geoms_3dEv, 
                       __ZN4axis9ArgParser22read_one_mesh_one_geomEv, __ZN4axis9ArgParser8find_argEPKcS2_, 
                       __ZN4axis9ArgParser9parse_intEPKcS2_S2_ib, __ZN4axis9ArgParser9show_helpEb, 
                       __ZN4axis9ArgParserC1EiPPcPKc, __ZN4axis9ArgParserC2EiPPcPKc, 
                       __ZN4axis9ArgParserD1Ev, __ZN4axis9ArgParserD2Ev, __ZN4axis9FileUtils13get_base_nameEPKcPci, 
                       __ZN4axis9FileUtils13get_file_nameEPKc, __ZN4axis9FileUtils14read_from_fileEPKcb, 
                       __ZN4axis9FileUtils17write_wkb_to_fileEPKcNSt3__110shared_ptrINS_10Geometry2DEEE, 
                       __ZN4axis9FileUtils22read_from_file_as_listEPKcb, __ZN4axis9FileUtils22read_strings_from_fileEPKc, 
                       __ZN4axis9FileUtils4readEPKc, __ZN4axis9FileUtils7get_extEPKc, 
                       __ZN4axis9FileUtils7ls_dirsEPKc, __ZN4axis9FileUtils7read_2dEPKcb, 
                       __ZN4axis9FileUtils7read_3dEPKc, __ZN4axis9FileUtils8ls_filesEPKc, 
                       __ZN4axis9FileUtils9read_meshEPKc, __ZN4axis9LineSeg2D21normalize_orientationEv, 
                       __ZN4axis9Polygon2D10points_endEv, __ZN4axis9Polygon2D12points_beginEv, 
                       __ZN4axis9Polygon2D13make_lhr_formEv, __ZN4axis9Polygon2D13make_no_holesEv, 
                       __ZN4axis9Polygon2D13make_rhr_formEv, __ZN4axis9Polygon2DC1ERKNS_10Triangle2DE, 
                       __ZN4axis9Polygon2DC1ERKNS_6BBox2DE, __ZN4axis9Polygon2DC2ERKNS_10Triangle2DE, 
                       __ZN4axis9Polygon2DC2ERKNS_6BBox2DE, __ZN4axis9Polygon2DaSERKS0_, 
                       __ZN4axis9Smoothing15smooth_internalERKNS_10Geometry2DE, __ZN4axis9Smoothing15smooth_polylineERKNS_10Polyline2DE, 
                       __ZN4axis9Smoothing17process_junctionsEv, __ZN4axis9Smoothing6smoothERKNS_10Geometry2DE, 
                       __ZN4axis9WKBReader11read_all_2dERKNSt3__112basic_stringIcNS1_11char_traitsIcEENS1_9allocatorIcEEEEb, 
                       __ZN4axis9WKBReader11read_all_2dERNSt3__113basic_istreamIcNS1_11char_traitsIcEEEEb, 
                       __ZN4axis9WKBReader11read_all_3dERKNSt3__112basic_stringIcNS1_11char_traitsIcEENS1_9allocatorIcEEEE, 
                       __ZN4axis9WKBReader11read_all_3dERNSt3__113basic_istreamIcNS1_11char_traitsIcEEEE, 
                       __ZN4axis9WKBReader12read_file_2dERKNSt3__112basic_stringIcNS1_11char_traitsIcEENS1_9allocatorIcEEEEb, 
                       __ZN4axis9WKBReader12read_file_3dERKNSt3__112basic_stringIcNS1_11char_traitsIcEENS1_9allocatorIcEEEE, 
                       __ZN4axis9WKBReader13get_dimensionERNSt3__113basic_istreamIcNS1_11char_traitsIcEEEE, 
                       __ZN4axis9WKBReader13read_geometryERKNSt3__112basic_stringIcNS1_11char_traitsIcEENS1_9allocatorIcEEEE, 
                       __ZN4axis9WKBReader13read_geometryERNSt3__113basic_istreamIcNS1_11char_traitsIcEEEE, 
                       __ZN4axis9WKBReader14get_byte_orderERKNSt3__112basic_stringIcNS1_11char_traitsIcEENS1_9allocatorIcEEEE, 
                       __ZN4axis9WKBReader16read_geometry_2dERKNSt3__112basic_stringIcNS1_11char_traitsIcEENS1_9allocatorIcEEEEb, 
                       __ZN4axis9WKBReader16read_geometry_2dERNSt3__113basic_istreamIcNS1_11char_traitsIcEEEEb, 
                       __ZN4axis9WKBReader16read_geometry_3dERKNSt3__112basic_stringIcNS1_11char_traitsIcEENS1_9allocatorIcEEEE, 
                       __ZN4axis9WKBReader16read_geometry_3dERNSt3__113basic_istreamIcNS1_11char_traitsIcEEEE, 
                       __ZN4axis9WKBReader8get_typeERKNSt3__112basic_stringIcNS1_11char_traitsIcEENS1_9allocatorIcEEEE, 
                       __ZN4axis9WKBReader8read_allERKNSt3__112basic_stringIcNS1_11char_traitsIcEENS1_9allocatorIcEEEE, 
                       __ZN4axis9WKBReader8read_allERNSt3__113basic_istreamIcNS1_11char_traitsIcEEEE, 
                       __ZN4axis9WKBReader9read_fileERKNSt3__112basic_stringIcNS1_11char_traitsIcEENS1_9allocatorIcEEEE, 
                       __ZN4axis9WKBWriter10write_fileERKNS_8GeometryERKNSt3__112basic_stringIcNS4_11char_traitsIcEENS4_9allocatorIcEEEENS_9ByteOrderE, 
                       __ZN4axis9WKBWriter14write_geometryERKNS_8GeometryENS_9ByteOrderE, 
                       __ZN4axis9WKBWriter14write_geometryERKNS_8GeometryERNSt3__113basic_ostreamIcNS4_11char_traitsIcEEEENS_9ByteOrderE, 
                       __ZN4axis9WKTReader11read_all_2dERKNSt3__112basic_stringIcNS1_11char_traitsIcEENS1_9allocatorIcEEEEb, 
                       __ZN4axis9WKTReader11read_all_2dERNSt3__113basic_istreamIcNS1_11char_traitsIcEEEEb, 
                       __ZN4axis9WKTReader11read_all_3dERKNSt3__112basic_stringIcNS1_11char_traitsIcEENS1_9allocatorIcEEEE, 
                       __ZN4axis9WKTReader11read_all_3dERNSt3__113basic_istreamIcNS1_11char_traitsIcEEEE, 
                       __ZN4axis9WKTReader12read_file_2dERKNSt3__112basic_stringIcNS1_11char_traitsIcEENS1_9allocatorIcEEEEb, 
                       __ZN4axis9WKTReader12read_file_3dERKNSt3__112basic_stringIcNS1_11char_traitsIcEENS1_9allocatorIcEEEE, 
                       __ZN4axis9WKTReader13read_geometryERKNSt3__112basic_stringIcNS1_11char_traitsIcEENS1_9allocatorIcEEEE, 
                       __ZN4axis9WKTReader13read_geometryERNSt3__113basic_istreamIcNS1_11char_traitsIcEEEE, 
                       __ZN4axis9WKTReader16read_geometry_2dERKNSt3__112basic_stringIcNS1_11char_traitsIcEENS1_9allocatorIcEEEEb, 
                       __ZN4axis9WKTReader16read_geometry_2dERNSt3__113basic_istreamIcNS1_11char_traitsIcEEEEb, 
                       __ZN4axis9WKTReader16read_geometry_3dERKNSt3__112basic_stringIcNS1_11char_traitsIcEENS1_9allocatorIcEEEE, 
                       __ZN4axis9WKTReader16read_geometry_3dERNSt3__113basic_istreamIcNS1_11char_traitsIcEEEE, 
                       __ZN4axis9WKTReader8get_typeERKNSt3__112basic_stringIcNS1_11char_traitsIcEENS1_9allocatorIcEEEE, 
                       __ZN4axis9WKTReader8read_allERKNSt3__112basic_stringIcNS1_11char_traitsIcEENS1_9allocatorIcEEEE, 
                       __ZN4axis9WKTReader8read_allERNSt3__113basic_istreamIcNS1_11char_traitsIcEEEE, 
                       __ZN4axis9WKTReader9read_fileERKNSt3__112basic_stringIcNS1_11char_traitsIcEENS1_9allocatorIcEEEE, 
                       __ZN4axis9WKTWriter10write_fileERKNS_8GeometryERKNSt3__112basic_stringIcNS4_11char_traitsIcEENS4_9allocatorIcEEEE, 
                       __ZN4axis9WKTWriter14write_geometryERKNS_8GeometryE, __ZN4axis9WKTWriter14write_geometryERKNS_8GeometryERNSt3__113basic_ostreamIcNS4_11char_traitsIcEEEE, 
                       __ZN4axislsERNSt3__113basic_ostreamIcNS0_11char_traitsIcEEEERKNS_10Triangle2DE, 
                       __ZN4axislsERNSt3__113basic_ostreamIcNS0_11char_traitsIcEEEERKNS_11PointData2DE, 
                       __ZN4axislsERNSt3__113basic_ostreamIcNS0_11char_traitsIcEEEERKNS_13CubicBezier2DE, 
                       __ZN4axislsERNSt3__113basic_ostreamIcNS0_11char_traitsIcEEEERKNS_6BBox2DE, 
                       __ZN4axislsERNSt3__113basic_ostreamIcNS0_11char_traitsIcEEEERKNS_7Point2DE, 
                       __ZN4axislsERNSt3__113basic_ostreamIcNS0_11char_traitsIcEEEERKNS_8GeometryE, 
                       __ZN4axislsERNSt3__113basic_ostreamIcNS0_11char_traitsIcEEEERKNS_9LineSeg2DE, 
                       __ZN5terra10Distance3D12compute_joinERKNS_5TMeshES3_, __ZN5terra10Distance3D16get_points_aboveERKNS_5TMeshES3_db, 
                       __ZN5terra10Distance3D20get_directed_z_rangeERKNS_10Triangle3DES3_b, 
                       __ZN5terra10Distance3D20get_directed_z_rangeERKNS_5TMeshES3_RNSt3__18optionalINS4_4pairIiiEEEES9_b, 
                       __ZN5terra10Distance3D20get_directed_z_rangeERKNS_5TMeshES3_b, 
                       __ZN5terra10Distance3D22get_z_range_from_edgesERKNS_5TMeshERKNS_19TriangulatedTerrainES6_RdS7_RNSt3__18optionalINS8_4pairIiiEEEESD_b, 
                       __ZN5terra10Distance3D23get_intersection_pointsERKN4axis10Triangle2DES4_b, 
                       __ZN5terra10Distance3D25get_z_range_from_verticesERKNS_5TMeshERKNS_19TriangulatedTerrainES6_RKN4axis6BBox2DERdSB_RNSt3__18optionalINSC_4pairIiiEEEESH_b, 
                       __ZN5terra10Distance3D26get_directed_z_range_drapeERKNS_5TMeshES3_RNSt3__18optionalINS4_4pairIiiEEEES9_b, 
                       __ZN5terra10Distance3D26get_directed_z_range_rtreeERKNS_5TMeshES3_RNSt3__18optionalINS4_4pairIiiEEEES9_b, 
                       __ZN5terra10HalfedgeDS8HalfedgeC1Ejj, __ZN5terra10HalfedgeDS8HalfedgeC1Ev, 
                       __ZN5terra10HalfedgeDS8HalfedgeC2Ejj, __ZN5terra10HalfedgeDS8HalfedgeC2Ev, 
                       __ZN5terra10HalfedgeDSC1ERKNSt3__16vectorIdNS1_9allocatorIdEEEERKNS2_IiNS3_IiEEEE, 
                       __ZN5terra10HalfedgeDSC1ERKNSt3__16vectorIdNS1_9allocatorIdEEEERKNS2_IiNS3_IiEEEERKNS1_3mapINS1_4pairIiiEESE_NS1_4lessISE_EENS3_INSD_IKSE_SE_EEEEEE, 
                       __ZN5terra10HalfedgeDSC2ERKNSt3__16vectorIdNS1_9allocatorIdEEEERKNS2_IiNS3_IiEEEE, 
                       __ZN5terra10HalfedgeDSC2ERKNSt3__16vectorIdNS1_9allocatorIdEEEERKNS2_IiNS3_IiEEEERKNS1_3mapINS1_4pairIiiEESE_NS1_4lessISE_EENS3_INSD_IKSE_SE_EEEEEE, 
                       __ZN5terra10HalfedgeDSD1Ev, __ZN5terra10HalfedgeDSD2Ev, __ZN5terra10MeshRefine10get_resultERNSt3__16vectorIdNS1_9allocatorIdEEEERNS2_IiNS3_IiEEEE, 
                       __ZN5terra10MeshRefine10get_resultEv, __ZN5terra10MeshRefine11split_edgesEiiiiRKN4axis9LineSeg2DEPKNS_9LineSeg3DE, 
                       __ZN5terra10MeshRefine15collapse_sliverEii, __ZN5terra10MeshRefine15is_flip_allowedERKNS_11PointData3DES3_S3_S3_, 
                       __ZN5terra10MeshRefine15refine_triangleEiRKN4axis11PointData2DEb, 
                       __ZN5terra10MeshRefine15refine_triangleEiRKN4axis9LineSeg2DEPKNS_9LineSeg3DE, 
                       __ZN5terra10MeshRefine15split_on_vertexEiiiiRKN4axis9LineSeg2DEPKNS_9LineSeg3DE, 
                       __ZN5terra10MeshRefine20flip_edge_if_shorterEii, __ZN5terra10MeshRefine21are_triangles_visibleERKNSt3__16vectorIiNS1_9allocatorIiEEEE, 
                       __ZN5terra10MeshRefine22refine_and_collapse_trEiRKN4axis11PointData2DE, 
                       __ZN5terra10MeshRefine23refine_segment_interiorERKN4axis9LineSeg2DEPKNS_9LineSeg3DE, 
                       __ZN5terra10MeshRefine6refineERKN4axis10Geometry2DE, __ZN5terra10MeshRefine6refineERKN4axis10Triangle2DE, 
                       __ZN5terra10MeshRefine6refineERKN4axis11PointData2DE, __ZN5terra10MeshRefine6refineERKN4axis6BBox2DE, 
                       __ZN5terra10MeshRefine6refineERKN4axis9LineSeg2DE, __ZN5terra10MeshRefine6refineERKNS_5TMeshE, 
                       __ZN5terra10MeshRefine6refineERKNSt3__16vectorIdNS1_9allocatorIdEEEERKNS2_IiNS3_IiEEEE, 
                       __ZN5terra10MeshRefine8draw_guiEv, __ZN5terra10MeshRefine9add_pointERKN4axis11PointData2DERKNS_9LineSeg3DEPS6_, 
                       __ZN5terra10MeshRefine9refine_3dERKNS_10Geometry3DE, __ZN5terra10MeshRefine9refine_3dERKNS_10Triangle3DE, 
                       __ZN5terra10MeshRefine9refine_3dERKNS_11PointData3DENS0_32VertexConflictResolutionStrategyE, 
                       __ZN5terra10MeshRefine9refine_3dERKNS_5TMeshE, __ZN5terra10MeshRefine9refine_3dERKNS_9LineSeg3DE, 
                       __ZN5terra10MeshRefine9refine_3dERKNSt3__16vectorIdNS1_9allocatorIdEEEERKNS2_IiNS3_IiEEEE, 
                       __ZN5terra10MeshRefineC1ERKNS_5TMeshEddb, __ZN5terra10MeshRefineC1ERKNSt3__16vectorIdNS1_9allocatorIdEEEERKNS2_IiNS3_IiEEEEddb, 
                       __ZN5terra10MeshRefineC1ERNS_11IndexedMeshEddb, __ZN5terra10MeshRefineC2ERKNS_5TMeshEddb, 
                       __ZN5terra10MeshRefineC2ERKNSt3__16vectorIdNS1_9allocatorIdEEEERKNS2_IiNS3_IiEEEEddb, 
                       __ZN5terra10MeshRefineC2ERNS_11IndexedMeshEddb, __ZN5terra10MeshRefineD1Ev, 
                       __ZN5terra10MeshRefineD2Ev, __ZN5terra10MeshRepair10get_resultERNSt3__16vectorIdNS1_9allocatorIdEEEERNS2_IiNS3_IiEEEE, 
                       __ZN5terra10MeshRepair10get_resultEv, __ZN5terra10MeshRepair11get_adj_triEiiiRNSt3__13mapINS1_4pairIiiEES4_NS1_4lessIS4_EENS1_9allocatorINS3_IKS4_S4_EEEEEE, 
                       __ZN5terra10MeshRepair11move_vertexEiRKNSt3__13setIiNS1_4lessIiEENS1_9allocatorIiEEEERKNS1_6vectorIS7_NS5_IS7_EEEE, 
                       __ZN5terra10MeshRepair13snap_verticesEb, __ZN5terra10MeshRepair14flip_long_edgeEiRNSt3__13mapINS1_4pairIiiEES4_NS1_4lessIS4_EENS1_9allocatorINS3_IKS4_S4_EEEEEE, 
                       __ZN5terra10MeshRepair14repair_sliversEb, __ZN5terra10MeshRepair15check_precisionEv, 
                       __ZN5terra10MeshRepair18dedupe_vertices_3dEb, __ZN5terra10MeshRepair18reorient_trianglesEb, 
                       __ZN5terra10MeshRepair18repair_nonmanifoldEb, __ZN5terra10MeshRepair19collapse_short_edgeEiRKNSt3__13setIiNS1_4lessIiEENS1_9allocatorIiEEEE, 
                       __ZN5terra10MeshRepair19repair_high_valenceEib, __ZN5terra10MeshRepair22rotate_to_longest_edgeERiS1_S1_, 
                       __ZN5terra10MeshRepair23rotate_to_shortest_edgeERiS1_S1_, 
                       __ZN5terra10MeshRepair25repair_vertical_trianglesEb, __ZN5terra10MeshRepair26remove_collapsed_trianglesEb, 
                       __ZN5terra10MeshRepair27count_high_valence_verticesEibRNSt3__16vectorINS_14MeshValidation15ValidationErrorENS1_9allocatorIS4_EEEE, 
                       __ZN5terra10MeshRepair6repairEb, __ZN5terra10MeshRepairC1ERKNS_5TMeshEdd, 
                       __ZN5terra10MeshRepairC1ERKNSt3__16vectorIdNS1_9allocatorIdEEEERKNS2_IiNS3_IiEEEEdd, 
                       __ZN5terra10MeshRepairC1ERNS_11IndexedMeshEdd, __ZN5terra10MeshRepairC2ERKNS_5TMeshEdd, 
                       __ZN5terra10MeshRepairC2ERKNSt3__16vectorIdNS1_9allocatorIdEEEERKNS2_IiNS3_IiEEEEdd, 
                       __ZN5terra10MeshRepairC2ERNS_11IndexedMeshEdd, __ZN5terra10MeshRepairD1Ev, 
                       __ZN5terra10MeshRepairD2Ev, __ZN5terra10MeshShadow10get_shadowERKNS_5TMeshEd, 
                       __ZN5terra10MeshShadow10get_shadowERKNSt3__16vectorIdNS1_9allocatorIdEEEERKNS2_IiNS3_IiEEEEd, 
                       __ZN5terra10MeshSlicer5sliceENSt3__16vectorIdNS1_9allocatorIdEEEES5_, 
                       __ZN5terra10MeshSlicerC1ERKNS_5TMeshEddb, __ZN5terra10MeshSlicerC1ERKNSt3__16vectorIdNS1_9allocatorIdEEEERKNS2_IiNS3_IiEEEEddb, 
                       __ZN5terra10MeshSlicerC2ERKNS_5TMeshEddb, __ZN5terra10MeshSlicerC2ERKNSt3__16vectorIdNS1_9allocatorIdEEEERKNS2_IiNS3_IiEEEEddb, 
                       __ZN5terra10Polyline3D7reverseEv, __ZN5terra10Polyline3DaSERKS0_, 
                       __ZN5terra10Triangle3D4growEd, __ZN5terra11IndexedMesh10delete_triEi, 
                       __ZN5terra11IndexedMesh10get_resultERNSt3__16vectorIdNS1_9allocatorIdEEEERNS2_IiNS3_IiEEEE, 
                       __ZN5terra11IndexedMesh10get_resultEv, __ZN5terra11IndexedMesh11move_vertexEiRKNS_11PointData3DEb, 
                       __ZN5terra11IndexedMesh11reset_indexEv, __ZN5terra11IndexedMesh11set_point_zEid, 
                       __ZN5terra11IndexedMesh11snap_vertexEiddb, __ZN5terra11IndexedMesh12get_boundaryEv, 
                       __ZN5terra11IndexedMesh12get_edge_mapEv, __ZN5terra11IndexedMesh13collapse_edgeEiibb, 
                       __ZN5terra11IndexedMesh13get_epsilon_zEv, __ZN5terra11IndexedMesh13get_neighborsEiiRiS1_S1_S1_, 
                       __ZN5terra11IndexedMesh14build_edge_mapEv, __ZN5terra11IndexedMesh14get_componentsERNSt3__16vectorIiNS1_9allocatorIiEEEE, 
                       __ZN5terra11IndexedMesh14get_epsilon_xyEv, __ZN5terra11IndexedMesh15get_halfedge_dsEv, 
                       __ZN5terra11IndexedMesh15get_max_valenceEv, __ZN5terra11IndexedMesh15rotate_tri_to_vEii, 
                       __ZN5terra11IndexedMesh15set_coords_trisERKNSt3__16vectorIdNS1_9allocatorIdEEEERKNS2_IiNS3_IiEEEE, 
                       __ZN5terra11IndexedMesh16do_edge_collapseEii, __ZN5terra11IndexedMesh16is_boundary_edgeEiiRi, 
                       __ZN5terra11IndexedMesh17build_halfedge_dsEv, __ZN5terra11IndexedMesh17is_collapse_legalEii, 
                       __ZN5terra11IndexedMesh17naive_move_vertexEiRKNS_11PointData3DE, 
                       __ZN5terra11IndexedMesh18get_internal_edgesEv, __ZN5terra11IndexedMesh18get_vertex_valenceEi, 
                       __ZN5terra11IndexedMesh19build_dynamic_indexEv, __ZN5terra11IndexedMesh19get_point_index_mapEv, 
                       __ZN5terra11IndexedMesh19get_vert_to_tri_mapEv, __ZN5terra11IndexedMesh20is_vertex_move_validEiRKN4axis11PointData2DE, 
                       __ZN5terra11IndexedMesh21build_point_index_mapEv, __ZN5terra11IndexedMesh21build_vert_to_tri_mapEv, 
                       __ZN5terra11IndexedMesh23move_and_fix_inversionsEiiRKNS_11PointData3DEb, 
                       __ZN5terra11IndexedMesh25does_vert_move_invert_triEiiRKN4axis11PointData2DE, 
                       __ZN5terra11IndexedMesh27get_tris_in_collapse_regionEii, __ZN5terra11IndexedMesh27is_point_on_triangle_vertexEiRKN4axis11PointData2DE, 
                       __ZN5terra11IndexedMesh7add_triEiii, __ZN5terra11IndexedMesh7set_triEiiii, 
                       __ZN5terra11IndexedMesh9add_pointEdddb, __ZN5terra11IndexedMesh9flip_edgeEiiiiiib, 
                       __ZN5terra11IndexedMesh9get_edgesEv, __ZN5terra11IndexedMesh9get_indexEv, 
                       __ZN5terra11IndexedMeshC1ERKNS_5TMeshE, __ZN5terra11IndexedMeshC1ERKNSt3__16vectorIdNS1_9allocatorIdEEEERKNS2_IiNS3_IiEEEE, 
                       __ZN5terra11IndexedMeshC2ERKNS_5TMeshE, __ZN5terra11IndexedMeshC2ERKNSt3__16vectorIdNS1_9allocatorIdEEEERKNS2_IiNS3_IiEEEE, 
                       __ZN5terra11MeshDensify10get_resultERNSt3__16vectorIdNS1_9allocatorIdEEEERNS2_IiNS3_IiEEEE, 
                       __ZN5terra11MeshDensify10get_resultEv, __ZN5terra11MeshDensify22compute_max_num_passesEd, 
                       __ZN5terra11MeshDensify7densifyERKNS_5TMeshEdb, __ZN5terra11MeshDensify7densifyEdb, 
                       __ZN5terra11MeshDensifyC1ERKNS_5TMeshEddb, __ZN5terra11MeshDensifyC1ERKNSt3__16vectorIdNS1_9allocatorIdEEEERKNS2_IiNS3_IiEEEEddb, 
                       __ZN5terra11MeshDensifyC1ERNS_11IndexedMeshEddb, __ZN5terra11MeshDensifyC2ERKNS_5TMeshEddb, 
                       __ZN5terra11MeshDensifyC2ERKNSt3__16vectorIdNS1_9allocatorIdEEEERKNS2_IiNS3_IiEEEEddb, 
                       __ZN5terra11MeshDensifyC2ERNS_11IndexedMeshEddb, __ZN5terra11MeshDensifyD1Ev, 
                       __ZN5terra11MeshDensifyD2Ev, __ZN5terra11MeshOverlay10get_resultERNSt3__16vectorIdNS1_9allocatorIdEEEERNS2_IiNS3_IiEEEE, 
                       __ZN5terra11MeshOverlay10get_resultEv, __ZN5terra11MeshOverlay13get_split_triEi, 
                       __ZN5terra11MeshOverlay16handle_end_pieceERKN4axis11PointData2DES4_NSt3__16vectorIiNS5_9allocatorIiEEEE, 
                       __ZN5terra11MeshOverlay19handle_middle_pieceERKN4axis11PointData2DES4_RKNSt3__16vectorIiNS5_9allocatorIiEEEESB_, 
                       __ZN5terra11MeshOverlay19map_isolated_pointsERKN4axis10Geometry2DE, 
                       __ZN5terra11MeshOverlay22intersect_and_map_segsERKN4axis10Geometry2DE, 
                       __ZN5terra11MeshOverlay4clipERN4axis14MultiPolygon2DE, __ZN5terra11MeshOverlay6refineERKN4axis10Geometry2DE, 
                       __ZN5terra11MeshOverlay9add_pointERKN4axis11PointData2DERKNS_10Triangle3DE, 
                       __ZN5terra11MeshOverlayC1ERKNS_5TMeshEdd, __ZN5terra11MeshOverlayC1ERKNSt3__16vectorIdNS1_9allocatorIdEEEERKNS2_IiNS3_IiEEEEdd, 
                       __ZN5terra11MeshOverlayC2ERKNS_5TMeshEdd, __ZN5terra11MeshOverlayC2ERKNSt3__16vectorIdNS1_9allocatorIdEEEERKNS2_IiNS3_IiEEEEdd, 
                       __ZN5terra11PointData3DmIERKNS_12BaseVector3DIdEE, __ZN5terra11PointData3DpLERKNS_12BaseVector3DIdEE, 
                       __ZN5terra12MultiPoint3D10points_endEv, __ZN5terra12MultiPoint3D12points_beginEv, 
                       __ZN5terra12MultiPoint3D13points_3d_endEv, __ZN5terra12MultiPoint3D15points_3d_beginEv, 
                       __ZN5terra12MultiPoint3DaSERKS0_, __ZN5terra13GeoTIFFReader11read_memoryEPKh, 
                       __ZN5terra13GeoTIFFReader9read_fileERKNSt3__112basic_stringIcNS1_11char_traitsIcEENS1_9allocatorIcEEEE, 
                       __ZN5terra13MeshFlattener10get_resultERNSt3__16vectorIdNS1_9allocatorIdEEEERNS2_IiNS3_IiEEEE, 
                       __ZN5terra13MeshFlattener10get_resultEv, __ZN5terra13MeshFlattener16triangulate_tnpsERKNS_14MultiPolygon3DE, 
                       __ZN5terra13MeshFlattener20refine_tnp_into_meshEv, __ZN5terra13MeshFlattener30push_mesh_vertices_below_polysEv, 
                       __ZN5terra13MeshFlattener4initERKNS_14MultiPolygon3DEdd, __ZN5terra13MeshFlattener7flattenERKNS_14MultiPolygon3DEdd, 
                       __ZN5terra13MeshFlattenerC1ERKNS_5TMeshEddb, __ZN5terra13MeshFlattenerC1ERKNSt3__16vectorIdNS1_9allocatorIdEEEERKNS2_IiNS3_IiEEEEddb, 
                       __ZN5terra13MeshFlattenerC2ERKNS_5TMeshEddb, __ZN5terra13MeshFlattenerC2ERKNSt3__16vectorIdNS1_9allocatorIdEEEERKNS2_IiNS3_IiEEEEddb, 
                       __ZN5terra14MeshValidation11is_manifoldERKNS_5TMeshEPNSt3__16vectorINS0_15ValidationErrorENS4_9allocatorIS6_EEEE, 
                       __ZN5terra14MeshValidation11is_manifoldERKNSt3__16vectorIdNS1_9allocatorIdEEEERKNS2_IiNS3_IiEEEEPNS2_INS0_15ValidationErrorENS3_ISC_EEEE, 
                       __ZN5terra14MeshValidation12is_connectedERKNS_5TMeshEPNSt3__16vectorINS0_15ValidationErrorENS4_9allocatorIS6_EEEE, 
                       __ZN5terra14MeshValidation13get_overhangsERKNS_5TMeshE, __ZN5terra14MeshValidation13print_summaryERKNSt3__16vectorINS0_15ValidationErrorENS1_9allocatorIS3_EEEE, 
                       __ZN5terra14MeshValidation14are_stitchableERKNSt3__16vectorINS1_10shared_ptrINS_5TMeshEEENS1_9allocatorIS5_EEEEPNS2_INS0_15ValidationErrorENS6_ISB_EEEE, 
                       __ZN5terra14MeshValidation15is_high_valenceERKNS_5TMeshEiPNSt3__16vectorINS0_15ValidationErrorENS4_9allocatorIS6_EEEE, 
                       __ZN5terra14MeshValidation15is_high_valenceERKNSt3__16vectorIdNS1_9allocatorIdEEEERKNS2_IiNS3_IiEEEEiPNS2_INS0_15ValidationErrorENS3_ISC_EEEE, 
                       __ZN5terra14MeshValidation17has_interior_gapsERKNS_5TMeshEPNSt3__16vectorINS0_15ValidationErrorENS4_9allocatorIS6_EEEE, 
                       __ZN5terra14MeshValidation22get_self_intersectionsERKNS_5TMeshE, 
                       __ZN5terra14MeshValidation22has_self_intersectionsERKNS_5TMeshEPNSt3__16vectorINS0_15ValidationErrorENS4_9allocatorIS6_EEEE, 
                       __ZN5terra14MeshValidation23interactive_view_errorsERKNS_5TMeshERKNSt3__16vectorINS0_15ValidationErrorENS4_9allocatorIS6_EEEE, 
                       __ZN5terra14MeshValidation23interactive_view_errorsERKNSt3__16vectorINS1_10shared_ptrINS_5TMeshEEENS1_9allocatorIS5_EEEERKNS2_INS0_15ValidationErrorENS6_ISB_EEEE, 
                       __ZN5terra14MeshValidation23interactive_view_errorsERKNSt3__16vectorIdNS1_9allocatorIdEEEERKNS2_IiNS3_IiEEEERKNS2_INS0_15ValidationErrorENS3_ISC_EEEE, 
                       __ZN5terra14MeshValidation24get_connected_componentsERKNS_5TMeshE, 
                       __ZN5terra14MeshValidation24get_euler_characteristicERKNS_5TMeshE, 
                       __ZN5terra14MeshValidation24has_degenerate_trianglesERKNS_5TMeshEPNSt3__16vectorINS0_15ValidationErrorENS4_9allocatorIS6_EEEE, 
                       __ZN5terra14MeshValidation24num_connected_componentsERKNS_5TMeshE, 
                       __ZN5terra14MeshValidation34validate_euler_characteristic_is_1ERKNS_5TMeshEPNSt3__16vectorINS0_15ValidationErrorENS4_9allocatorIS6_EEEE, 
                       __ZN5terra14MeshValidation7is_2p5dERKNS_5TMeshEPNSt3__16vectorINS0_15ValidationErrorENS4_9allocatorIS6_EEEE, 
                       __ZN5terra14MultiPolygon3D10points_endEv, __ZN5terra14MultiPolygon3D12points_beginEv, 
                       __ZN5terra14MultiPolygon3D13make_no_holesEv, __ZN5terra14MultiPolygon3D13points_3d_endEv, 
                       __ZN5terra14MultiPolygon3D15points_3d_beginEv, __ZN5terra14MultiPolygon3DaSERKS0_, 
                       __ZN5terra15MeshCompression18compress_tmesh_gclEPKiiS2_iRNSt3__16vectorIhNS3_9allocatorIhEEEE, 
                       __ZN5terra15MeshCompression18compress_tmesh_gclERKNS_5TMeshEdd, 
                       __ZN5terra15MeshCompression20decompress_tmesh_gclEPKhiPPiS3_S4_S3_, 
                       __ZN5terra15MeshCompression20decompress_tmesh_gclEPKhiRNSt3__16vectorIiNS3_9allocatorIiEEEES8_, 
                       __ZN5terra15MeshCompression20decompress_tmesh_gclEPKhidd, 
                       __ZN5terra15MeshCompression20decompress_tmesh_gclERNSt3__16vectorIhNS1_9allocatorIhEEEEdd, 
                       __ZN5terra15MeshCompression26get_tri_mesh_codec_versionERiS1_S1_, 
                       __ZN5terra15MeshCompression27decompress_tmesh_direct_gclEPKhiPiiS3_i, 
                       __ZN5terra15MeshCompression29get_compressed_tmesh_gcl_sizeEPKhiRiS3_, 
                       __ZN5terra15MultiGeometry3D10points_endEv, __ZN5terra15MultiGeometry3D12points_beginEv, 
                       __ZN5terra15MultiGeometry3D13points_3d_endEv, __ZN5terra15MultiGeometry3D15points_3d_beginEv, 
                       __ZN5terra15MultiGeometry3DaSERKS0_, __ZN5terra15MultiPolyline3D10points_endEv, 
                       __ZN5terra15MultiPolyline3D12points_beginEv, __ZN5terra15MultiPolyline3D13points_3d_endEv, 
                       __ZN5terra15MultiPolyline3D15points_3d_beginEv, __ZN5terra15MultiPolyline3DaSERKS0_, 
                       __ZN5terra15NormalFormTMesh13fuzzy_compareERKNS_5TMeshES3_d, 
                       __ZN5terra15NormalFormTMesh3getERKNS_5TMeshERKN4axis14NormalFormBaseILi3EE7OptionsE, 
                       __ZN5terra15NormalFormTMesh7compareERKNS_5TMeshES3_, __ZN5terra15Polygon3DMesher14get_tmesh_dataERKNS_14MultiPolygon3DERNSt3__16vectorIdNS4_9allocatorIdEEEERNS5_IiNS6_IiEEEE, 
                       __ZN5terra15Polygon3DMesher14get_tmesh_dataERKNS_9Polygon3DERNSt3__16vectorIdNS4_9allocatorIdEEEERNS5_IiNS6_IiEEEE, 
                       __ZN5terra15Polygon3DMesher9get_tmeshERKNS_14MultiPolygon3DE, 
                       __ZN5terra15Polygon3DMesher9get_tmeshERKNS_9Polygon3DE, __ZN5terra19TriangulatedTerrain11drape_pointERKNS_5TMeshERKN4axis11PointData2DE, 
                       __ZN5terra19TriangulatedTerrain14drape_polylineERKNS_5TMeshERKN4axis10Polyline2DE, 
                       __ZN5terra19TriangulatedTerrain16drape_multipointERKNS_5TMeshERKNSt3__110shared_ptrIN4axis12MultiPoint2DEEE, 
                       __ZN5terra19TriangulatedTerrain16drape_polyline3dERKNS_5TMeshERKN4axis10Polyline2DE, 
                       __ZN5terra19TriangulatedTerrain18assemble_from_meshERKNS_5TMeshE, 
                       __ZN5terra19TriangulatedTerrain19drape_multipolylineERKNS_5TMeshERKN4axis15MultiPolyline2DE, 
                       __ZN5terra19TriangulatedTerrain21drape_multipolyline3dERKNS_5TMeshERKN4axis15MultiPolyline2DE, 
                       __ZN5terra19TriangulatedTerrain22build_from_constraintsERKNS_5TMeshE, 
                       __ZN5terra19TriangulatedTerrain6createERKNS_5TMeshE, __ZN5terra19TriangulatedTerrainC1EOS0_, 
                       __ZN5terra19TriangulatedTerrainC1Ev, __ZN5terra19TriangulatedTerrainC2EOS0_, 
                       __ZN5terra19TriangulatedTerrainC2Ev, __ZN5terra19TriangulatedTerrainD1Ev, 
                       __ZN5terra19TriangulatedTerrainD2Ev, __ZN5terra19TriangulatedTerrainaSEOS0_, 
                       __ZN5terra22AffineTransformation3D10from_scaleEd, __ZN5terra22AffineTransformation3D10from_scaleEddd, 
                       __ZN5terra22AffineTransformation3D13from_identityEv, __ZN5terra22AffineTransformation3D13from_rotationEddd, 
                       __ZN5terra22AffineTransformation3D15from_reflectionERKNS_12BaseVector3DIdEE, 
                       __ZN5terra22AffineTransformation3D15from_reflectionEddd, __ZN5terra22AffineTransformation3D16from_translationERKNS_12BaseVector3DIdEE, 
                       __ZN5terra22AffineTransformation3D16from_translationEddd, 
                       __ZN5terra22AffineTransformation3DC1ERKS0_, __ZN5terra22AffineTransformation3DC1Edddddddddddd, 
                       __ZN5terra22AffineTransformation3DC1Ev, __ZN5terra22AffineTransformation3DC2ERKS0_, 
                       __ZN5terra22AffineTransformation3DC2Edddddddddddd, __ZN5terra22AffineTransformation3DC2Ev, 
                       __ZN5terra22AffineTransformation3DaSERKS0_, __ZN5terra5TMesh11is_equal_nfENSt3__110shared_ptrIS0_EE, 
                       __ZN5terra5TMesh11is_equal_nfERKS0_, __ZN5terra5TMesh13triangle_dataEv, 
                       __ZN5terra5TMesh20check_vertex_indicesEv, __ZN5terra5TMesh6coordsEv, 
                       __ZN5terra5TMeshC1EPN4axis22AbstractInputContainerIdEEPNS2_IiEE, 
                       __ZN5terra5TMeshC1ERKNSt3__16vectorINS1_10shared_ptrIS0_EENS1_9allocatorIS4_EEEE, 
                       __ZN5terra5TMeshC1ERKS0_, __ZN5terra5TMeshC1ERKSt16initializer_listINS_11PointData3DEERKS1_IiE, 
                       __ZN5terra5TMeshC1ERKSt16initializer_listIdERKS1_IiE, __ZN5terra5TMeshC1Ev, 
                       __ZN5terra5TMeshC2EPN4axis22AbstractInputContainerIdEEPNS2_IiEE, 
                       __ZN5terra5TMeshC2ERKNSt3__16vectorINS1_10shared_ptrIS0_EENS1_9allocatorIS4_EEEE, 
                       __ZN5terra5TMeshC2ERKS0_, __ZN5terra5TMeshC2ERKSt16initializer_listINS_11PointData3DEERKS1_IiE, 
                       __ZN5terra5TMeshC2ERKSt16initializer_listIdERKS1_IiE, __ZN5terra5TMeshC2Ev, 
                       __ZN5terra6BBox3D12scaled_shiftERKdS2_S2_, __ZN5terra6BBox3D19translate_non_emptyERKdS2_S2_, 
                       __ZN5terra6BBox3D4growERKd, __ZN5terra6BBox3D5scaleERKd, __ZN5terra6BBox3D5scaleERKdS2_S2_, 
                       __ZN5terra6BBox3D7scale_xERKd, __ZN5terra6BBox3D7scale_yERKd, 
                       __ZN5terra6BBox3D7scale_zERKd, __ZN5terra6BBox3D8recenterERKNS_11PointData3DE, 
                       __ZN5terra6BBox3D9translateERKdS2_S2_, __ZN5terra6BBox3DC1ERKdS2_S2_S2_S2_S2_b, 
                       __ZN5terra6BBox3DC2ERKdS2_S2_S2_S2_S2_b, __ZN5terra6BBox3DaSERKS0_, 
                       __ZN5terra6BBox3DpLERKNS_11PointData3DE, __ZN5terra6BBox3DpLERKS0_, 
                       __ZN5terra6Ring3DC1ERKNS_10Polyline3DE, __ZN5terra6Ring3DC2ERKNS_10Polyline3DE, 
                       __ZN5terra7Angle3D17compare_line_lineERKNS_11PointData3DES3_S3_RKd, 
                       __ZN5terra7Angle3D17compare_line_lineERKNS_11PointData3DES3_S3_S3_S3_S3_, 
                       __ZN5terra7Angle3D17compute_line_lineERKNS_11PointData3DES3_S3_, 
                       __ZN5terra7Angle3D18compare_plane_lineERKNS_11PointData3DES3_S3_S3_S3_RKd, 
                       __ZN5terra7Angle3D18compare_plane_lineERKNS_11PointData3DES3_S3_S3_S3_S3_S3_S3_S3_S3_, 
                       __ZN5terra7Angle3D18compute_plane_lineERKNS_11PointData3DES3_S3_S3_S3_, 
                       __ZN5terra7Angle3D19compare_plane_planeERKNS_11PointData3DES3_S3_S3_S3_S3_RKd, 
                       __ZN5terra7Angle3D19compare_plane_planeERKNS_11PointData3DES3_S3_S3_S3_S3_S3_S3_S3_S3_S3_S3_, 
                       __ZN5terra7Angle3D19compute_plane_planeERKNS_11PointData3DES3_S3_S3_S3_S3_, 
                       __ZN5terra7Point3D10points_endEv, __ZN5terra7Point3D12points_beginEv, 
                       __ZN5terra7Point3D13points_3d_endEv, __ZN5terra7Point3D15points_3d_beginEv, 
                       __ZN5terra7Point3DaSERKS0_, __ZN5terra9OBJReader11read_streamERNSt3__113basic_istreamIcNS1_11char_traitsIcEEEE, 
                       __ZN5terra9OBJReader11read_stringERKNSt3__112basic_stringIcNS1_11char_traitsIcEENS1_9allocatorIcEEEE, 
                       __ZN5terra9OBJReader15read_v_t_streamERNSt3__113basic_istreamIcNS1_11char_traitsIcEEEERNS1_6vectorIdNS1_9allocatorIdEEEERNS7_IiNS8_IiEEEE, 
                       __ZN5terra9OBJReader9read_fileERKNSt3__112basic_stringIcNS1_11char_traitsIcEENS1_9allocatorIcEEEE, 
                       __ZN5terra9OBJWriter10write_fileERKNS_5TMeshERKNSt3__112basic_stringIcNS4_11char_traitsIcEENS4_9allocatorIcEEEE, 
                       __ZN5terra9OBJWriter12write_streamERKNS_5TMeshERNSt3__113basic_ostreamIcNS4_11char_traitsIcEEEE, 
                       __ZN5terra9OBJWriter12write_stringERKNS_5TMeshE, __ZN5terra9Polygon3D10points_endEv, 
                       __ZN5terra9Polygon3D12points_beginEv, __ZN5terra9Polygon3D13make_lhr_formEv, 
                       __ZN5terra9Polygon3D13make_no_holesEv, __ZN5terra9Polygon3D13make_rhr_formEv, 
                       __ZN5terra9Polygon3D13points_3d_endEv, __ZN5terra9Polygon3D15points_3d_beginEv, 
                       __ZN5terra9Polygon3DC1ERKNS_10Triangle3DE, __ZN5terra9Polygon3DC1ERKNS_6BBox3DE, 
                       __ZN5terra9Polygon3DC2ERKNS_10Triangle3DE, __ZN5terra9Polygon3DC2ERKNS_6BBox3DE, 
                       __ZN5terra9Polygon3DaSERKS0_, __ZN5terralsERNSt3__113basic_ostreamIcNS0_11char_traitsIcEEEERKNS_11PointData3DE, 
                       __ZN5terralsERNSt3__113basic_ostreamIcNS0_11char_traitsIcEEEERKNS_5TMeshE, 
                       __ZN5terralsERNSt3__113basic_ostreamIcNS0_11char_traitsIcEEEERKNS_6BBox3DE, 
                       __ZN5terralsERNSt3__113basic_ostreamIcNS0_11char_traitsIcEEEERKNS_7Point3DE, 
                       __ZN5terralsERNSt3__113basic_ostreamIcNS0_11char_traitsIcEEEERKNS_9LineSeg3DE, 
                       __ZNK4axis10Geometry2D10covered_byERKS0_d, __ZNK4axis10Geometry2D10intersectsERKS0_d, 
                       __ZNK4axis10Geometry2D16filter_dimensionEbbb, __ZNK4axis10Geometry2D6coversERKS0_d, 
                       __ZNK4axis10Geometry2D6equalsERKS0_d, __ZNK4axis10Geometry2D6relateERKS0_RKNS_5DE9IMEd, 
                       __ZNK4axis10Geometry2D6relateERKS0_RKNSt3__16vectorINS_5DE9IMENS3_9allocatorIS5_EEEEd, 
                       __ZNK4axis10Geometry2D6withinERKS0_d, __ZNK4axis10Geometry2D7crossesERKS0_d, 
                       __ZNK4axis10Geometry2D7touchesERKS0_d, __ZNK4axis10Geometry2D8containsERKS0_d, 
                       __ZNK4axis10Geometry2D8disjointERKS0_d, __ZNK4axis10Geometry2D8overlapsERKS0_d, 
                       __ZNK4axis10Geometry2D9get_de9imERKS0_d, __ZNK4axis10Geometry2DeqERKS0_, 
                       __ZNK4axis10Polyline2D10clone_implEv, __ZNK4axis10Polyline2D10points_endEv, 
                       __ZNK4axis10Polyline2D11get_type_idEv, __ZNK4axis10Polyline2D11is_polylineEv, 
                       __ZNK4axis10Polyline2D11points_cendEv, __ZNK4axis10Polyline2D12num_segmentsEv, 
                       __ZNK4axis10Polyline2D12points_beginEv, __ZNK4axis10Polyline2D13boundary_implEv, 
                       __ZNK4axis10Polyline2D13is_multipointEv, __ZNK4axis10Polyline2D13points_cbeginEv, 
                       __ZNK4axis10Polyline2D13segments_cendEv, __ZNK4axis10Polyline2D15centroid_workerERdS1_S1_Ri, 
                       __ZNK4axis10Polyline2D15segments_cbeginEv, __ZNK4axis10Polyline2D21topological_dimensionEv, 
                       __ZNK4axis10Polyline2D6coversERKNS_11PointData2DEd, __ZNK4axis10Polyline2D6lengthEv, 
                       __ZNK4axis10Polyline2D8containsERKNS_11PointData2DEd, __ZNK4axis10Polyline2D9dimensionEv, 
                       __ZNK4axis10SliceDonut3SegltERKS1_, __ZNK4axis10SliceDonut5EventgtERKS1_, 
                       __ZNK4axis10Triangle2D10intersectsERKNS_11PointData2DE, __ZNK4axis10Triangle2D10intersectsERKNS_9LineSeg2DE, 
                       __ZNK4axis10Triangle2D10intersectsERKS0_, __ZNK4axis10Triangle2D12aspect_ratioEv, 
                       __ZNK4axis10Triangle2D12circumcenterEv, __ZNK4axis10Triangle2D21minimum_rotated_widthEv, 
                       __ZNK4axis10Triangle2D22length_of_longest_edgeEv, __ZNK4axis10Triangle2D22radius_of_circumcircleEv, 
                       __ZNK4axis10Triangle2D30squared_radius_of_circumcircleEv, 
                       __ZNK4axis10Triangle2D4areaEv, __ZNK4axis10Triangle2D6locateERKNS_11PointData2DE, 
                       __ZNK4axis10Triangle2D8centroidEv, __ZNK4axis10Triangle2D8distanceERKNS_11PointData2DE, 
                       __ZNK4axis10Triangle2D8distanceERKNS_9LineSeg2DE, __ZNK4axis10Triangle2D9bounds_2dEv, 
                       __ZNK4axis10Triangle2D9is_sliverEd, __ZNK4axis11BezierFit2D11compute_fitEd, 
                       __ZNK4axis11BezierFit2D12split_pointsERNSt3__16vectorINS_11PointData2DENS1_9allocatorIS3_EEEEmm, 
                       __ZNK4axis11BezierFit2D14reparameterizeENSt3__111__wrap_iterIPKNS_11PointData2DEEES6_RKNS_13CubicBezier2DERKNS1_6vectorIdNS1_9allocatorIdEEEE, 
                       __ZNK4axis11BezierFit2D15generate_bezierENSt3__111__wrap_iterIPKNS_11PointData2DEEES6_RKNS1_6vectorIdNS1_9allocatorIdEEEERKNS0_11TangentInfoE, 
                       __ZNK4axis11BezierFit2D17handle_two_pointsERKNS_11PointData2DES3_RKNS_12BaseVector2DIdEES7_, 
                       __ZNK4axis11BezierFit2D19compute_perfect_fitENSt3__111__wrap_iterIPKNS_11PointData2DEEES6_, 
                       __ZNK4axis11BezierFit2D19solve_linear_systemERKNSt3__16vectorINS2_IdNS1_9allocatorIdEEEENS3_IS5_EEEERKS5_, 
                       __ZNK4axis11BezierFit2D21is_tangent_compatibleERKNS_13CubicBezier2DERKNS0_11TangentInfoE, 
                       __ZNK4axis11BezierFit2D24compute_tangent_at_splitENSt3__111__wrap_iterIPKNS_11PointData2DEEES6_S6_, 
                       __ZNK4axis11BezierFit2D24newton_raphson_root_findERKNS_13CubicBezier2DERKNS_11PointData2DEd, 
                       __ZNK4axis11BezierFit2D25chord_length_parameterizeENSt3__111__wrap_iterIPKNS_11PointData2DEEES6_, 
                       __ZNK4axis11BezierFit2D27fallback_bezier_calculationENSt3__111__wrap_iterIPKNS_11PointData2DEEES6_RKNS0_11TangentInfoE, 
                       __ZNK4axis11BezierFit2D33compute_max_error_and_split_pointENSt3__111__wrap_iterIPKNS_11PointData2DEEES6_RKNS_13CubicBezier2DERKNS1_6vectorIdNS1_9allocatorIdEEEE, 
                       __ZNK4axis11LinearFit2D16fit_line_segmentENSt3__111__wrap_iterIPKNS_11PointData2DEEES6_, 
                       __ZNK4axis11LinearFit2D16fit_line_segmentENSt3__111__wrap_iterIPKNS_11PointData2DEEES6_Rd, 
                       __ZNK4axis11LinearFit2D16fit_line_segmentENSt3__111__wrap_iterIPKNS_11PointData2DEEES6_RdRS6_, 
                       __ZNK4axis11PointData2D11fuzzy_equalERKS0_d, __ZNK4axis11PointData2D9bounds_2dEv, 
                       __ZNK4axis11PointData2D9to_stringEv, __ZNK4axis11PointData2DmiERKNS_12BaseVector2DIdEE, 
                       __ZNK4axis11PointData2DplERKNS_12BaseVector2DIdEE, __ZNK4axis12MultiPoint2D10clone_implEv, 
                       __ZNK4axis12MultiPoint2D10num_pointsEv, __ZNK4axis12MultiPoint2D10points_endEv, 
                       __ZNK4axis12MultiPoint2D11get_type_idEv, __ZNK4axis12MultiPoint2D11points_cendEv, 
                       __ZNK4axis12MultiPoint2D12num_segmentsEv, __ZNK4axis12MultiPoint2D12points_beginEv, 
                       __ZNK4axis12MultiPoint2D13boundary_implEv, __ZNK4axis12MultiPoint2D13is_multipointEv, 
                       __ZNK4axis12MultiPoint2D13points_cbeginEv, __ZNK4axis12MultiPoint2D13segments_cendEv, 
                       __ZNK4axis12MultiPoint2D15centroid_workerERdS1_S1_Ri, __ZNK4axis12MultiPoint2D15segments_cbeginEv, 
                       __ZNK4axis12MultiPoint2D21topological_dimensionEv, __ZNK4axis12MultiPoint2D4areaEv, 
                       __ZNK4axis12MultiPoint2D4hashEv, __ZNK4axis12MultiPoint2D6coversERKNS_11PointData2DEd, 
                       __ZNK4axis12MultiPoint2D6lengthEv, __ZNK4axis12MultiPoint2D8containsERKNS_11PointData2DEd, 
                       __ZNK4axis12MultiPoint2D8is_emptyEv, __ZNK4axis12MultiPoint2D9bounds_2dEv, 
                       __ZNK4axis12MultiPoint2D9dimensionEv, __ZNK4axis12MultiPoint2DeqERKS0_, 
                       __ZNK4axis12MultiPoint2DneERKS0_, __ZNK4axis13CubicBezier2D10find_rootsEv, 
                       __ZNK4axis13CubicBezier2D10get_lengthEddd, __ZNK4axis13CubicBezier2D13get_bounds_2dEv, 
                       __ZNK4axis13CubicBezier2D14get_derivativeEd, __ZNK4axis13CubicBezier2D15is_approx_equalERKS0_dij, 
                       __ZNK4axis13CubicBezier2D15is_line_segmentEv, __ZNK4axis13CubicBezier2D16get_bezier_pointEd, 
                       __ZNK4axis13CubicBezier2D17derivative_lengthEd, __ZNK4axis13CubicBezier2D17get_approximationEd, 
                       __ZNK4axis13CubicBezier2D21get_double_derivativeEd, __ZNK4axis13CubicBezier2D24find_local_closest_pointERKNS_11PointData2DEdi, 
                       __ZNK4axis13CubicBezier2D26adaptive_quadrature_lengthEddd, 
                       __ZNK4axis13CubicBezier2D27get_parameter_at_arc_lengthEdd, 
                       __ZNK4axis13CubicBezier2D5splitEd, __ZNK4axis14MultiPolygon2D10clone_implEv, 
                       __ZNK4axis14MultiPolygon2D10points_endEv, __ZNK4axis14MultiPolygon2D11get_type_idEv, 
                       __ZNK4axis14MultiPolygon2D11is_lhr_formEv, __ZNK4axis14MultiPolygon2D11points_cendEv, 
                       __ZNK4axis14MultiPolygon2D12get_no_holesEv, __ZNK4axis14MultiPolygon2D12points_beginEv, 
                       __ZNK4axis14MultiPolygon2D13boundary_implEv, __ZNK4axis14MultiPolygon2D13points_cbeginEv, 
                       __ZNK4axis14MultiPolygon2D13segments_cendEv, __ZNK4axis14MultiPolygon2D15is_multipolygonEv, 
                       __ZNK4axis14MultiPolygon2D15segments_cbeginEv, __ZNK4axis14MultiPolygon2D21topological_dimensionEv, 
                       __ZNK4axis14MultiPolygon2D9dimensionEv, __ZNK4axis15MultiGeometry2D10clone_implEv, 
                       __ZNK4axis15MultiGeometry2D10points_endEv, __ZNK4axis15MultiGeometry2D11get_type_idEv, 
                       __ZNK4axis15MultiGeometry2D11is_lhr_formEv, __ZNK4axis15MultiGeometry2D11points_cendEv, 
                       __ZNK4axis15MultiGeometry2D12points_beginEv, __ZNK4axis15MultiGeometry2D13boundary_implEv, 
                       __ZNK4axis15MultiGeometry2D13points_3d_endEv, __ZNK4axis15MultiGeometry2D13points_cbeginEv, 
                       __ZNK4axis15MultiGeometry2D13segments_cendEv, __ZNK4axis15MultiGeometry2D14points_3d_cendEv, 
                       __ZNK4axis15MultiGeometry2D15points_3d_beginEv, __ZNK4axis15MultiGeometry2D15segments_cbeginEv, 
                       __ZNK4axis15MultiGeometry2D16is_multigeometryEv, __ZNK4axis15MultiGeometry2D16points_3d_cbeginEv, 
                       __ZNK4axis15MultiGeometry2D16segments_3d_cendEv, __ZNK4axis15MultiGeometry2D18segments_3d_cbeginEv, 
                       __ZNK4axis15MultiGeometry2D21topological_dimensionEv, __ZNK4axis15MultiPolyline2D10clone_implEv, 
                       __ZNK4axis15MultiPolyline2D10points_endEv, __ZNK4axis15MultiPolyline2D11get_type_idEv, 
                       __ZNK4axis15MultiPolyline2D11points_cendEv, __ZNK4axis15MultiPolyline2D12points_beginEv, 
                       __ZNK4axis15MultiPolyline2D13boundary_implEv, __ZNK4axis15MultiPolyline2D13points_cbeginEv, 
                       __ZNK4axis15MultiPolyline2D13segments_cendEv, __ZNK4axis15MultiPolyline2D15segments_cbeginEv, 
                       __ZNK4axis15MultiPolyline2D16is_multipolylineEv, __ZNK4axis15MultiPolyline2D21topological_dimensionEv, 
                       __ZNK4axis15MultiPolyline2D9dimensionEv, __ZNK4axis16DynamicIndexImpl13find_in_rangeERKNS_6BBox2DE, 
                       __ZNK4axis16DynamicIndexImpl15find_intersectsERKNS_10Geometry2DE, 
                       __ZNK4axis16DynamicIndexImpl15find_intersectsERKNS_11PointData2DE, 
                       __ZNK4axis16DynamicIndexImpl15find_intersectsERKNS_6BBox2DE, 
                       __ZNK4axis16DynamicIndexImpl15find_intersectsERKNS_7Point2DE, 
                       __ZNK4axis16DynamicIndexImpl15find_intersectsERKNS_9LineSeg2DE, 
                       __ZNK4axis16DynamicIndexImpl20find_within_distanceERKNS_10Geometry2DEd, 
                       __ZNK4axis16DynamicIndexImpl20find_within_distanceERKNS_11PointData2DEd, 
                       __ZNK4axis16DynamicIndexImpl20find_within_distanceERKNS_7Point2DEd, 
                       __ZNK4axis16DynamicIndexImpl20find_within_distanceERKNS_9LineSeg2DEd, 
                       __ZNK4axis16DynamicIndexImpl22find_nearest_neighborsERKNS_10Geometry2DEd, 
                       __ZNK4axis16DynamicIndexImpl22find_nearest_neighborsERKNS_11PointData2DEd, 
                       __ZNK4axis16DynamicIndexImpl22find_nearest_neighborsERKNS_7Point2DEd, 
                       __ZNK4axis16DynamicIndexImpl22find_nearest_neighborsERKNS_9LineSeg2DEd, 
                       __ZNK4axis16SpatialIndexImpl13find_in_rangeERKNS_6BBox2DE, 
                       __ZNK4axis16SpatialIndexImpl15find_intersectsERKNS_10Geometry2DE, 
                       __ZNK4axis16SpatialIndexImpl15find_intersectsERKNS_11PointData2DE, 
                       __ZNK4axis16SpatialIndexImpl15find_intersectsERKNS_6BBox2DE, 
                       __ZNK4axis16SpatialIndexImpl15find_intersectsERKNS_7Point2DE, 
                       __ZNK4axis16SpatialIndexImpl15find_intersectsERKNS_9LineSeg2DE, 
                       __ZNK4axis16SpatialIndexImpl20find_within_distanceERKNS_10Geometry2DEd, 
                       __ZNK4axis16SpatialIndexImpl20find_within_distanceERKNS_11PointData2DEd, 
                       __ZNK4axis16SpatialIndexImpl20find_within_distanceERKNS_7Point2DEd, 
                       __ZNK4axis16SpatialIndexImpl20find_within_distanceERKNS_9LineSeg2DEd, 
                       __ZNK4axis16SpatialIndexImpl22find_nearest_neighborsERKNS_10Geometry2DEd, 
                       __ZNK4axis16SpatialIndexImpl22find_nearest_neighborsERKNS_11PointData2DEd, 
                       __ZNK4axis16SpatialIndexImpl22find_nearest_neighborsERKNS_7Point2DEd, 
                       __ZNK4axis16SpatialIndexImpl22find_nearest_neighborsERKNS_9LineSeg2DEd, 
                       __ZNK4axis20AffineTransformation3getERKNS_11PointData2DE, 
                       __ZNK4axis20AffineTransformation4makeERNS_11PointData2DE, 
                       __ZNK4axis20AffineTransformation7composeERKS0_, __ZNK4axis20AffineTransformationmlERKNS_11PointData2DE, 
                       __ZNK4axis20AffineTransformationmlERKS0_, __ZNK4axis22PolesOfInaccessibility3getERKNS_14MultiPolygon2DE, 
                       __ZNK4axis22PolesOfInaccessibility3getERKNS_9Polygon2DE, __ZNK4axis4DCEL13extract_facesEv, 
                       __ZNK4axis4DCEL14extract_pointsEv, __ZNK4axis4DCEL16extract_geometryEv, 
                       __ZNK4axis4DCEL16extract_polygonsEv, __ZNK4axis4DCEL16run_health_checkEv, 
                       __ZNK4axis4DCEL17extract_polylinesEv, __ZNK4axis4DCEL9write_wkbERNSt3__113basic_ostreamIcNS1_11char_traitsIcEEEE, 
                       __ZNK4axis5DE9IM10covered_byEv, __ZNK4axis5DE9IM10intersectsEv, 
                       __ZNK4axis5DE9IM12is_symmetricEv, __ZNK4axis5DE9IM13satisfies_anyERKNSt3__16vectorIS0_NS1_9allocatorIS0_EEEE, 
                       __ZNK4axis5DE9IM6coversEv, __ZNK4axis5DE9IM6equalsEv, __ZNK4axis5DE9IM6withinEv, 
                       __ZNK4axis5DE9IM7crossesENS_7GeomDimES1_, __ZNK4axis5DE9IM7touchesEv, 
                       __ZNK4axis5DE9IM8containsEv, __ZNK4axis5DE9IM8disjointEv, 
                       __ZNK4axis5DE9IM8overlapsENS_7GeomDimES1_, __ZNK4axis5DE9IM9as_stringEv, 
                       __ZNK4axis5DE9IM9satisfiesES0_, __ZNK4axis5DE9IMeqERKS0_, 
                       __ZNK4axis5DE9IMntEv, __ZNK4axis6BBox2D10intersectsERKNS_10Triangle2DE, 
                       __ZNK4axis6BBox2D10intersectsERKNS_11PointData2DE, __ZNK4axis6BBox2D10intersectsERKNS_9LineSeg2DE, 
                       __ZNK4axis6BBox2D10intersectsERKS0_, __ZNK4axis6BBox2D11as_geometryEv, 
                       __ZNK4axis6BBox2D12shortest_rayERKNS_11PointData2DE, __ZNK4axis6BBox2D16distance_squaredERKNS_11PointData2DE, 
                       __ZNK4axis6BBox2D16distance_squaredERKNS_9LineSeg2DE, __ZNK4axis6BBox2D16get_intersectionERKS0_, 
                       __ZNK4axis6BBox2D3topEv, __ZNK4axis6BBox2D4clipERNS_9LineSeg2DE, 
                       __ZNK4axis6BBox2D4growEd, __ZNK4axis6BBox2D4leftEv, __ZNK4axis6BBox2D5rightEv, 
                       __ZNK4axis6BBox2D6bottomEv, __ZNK4axis6BBox2D6coversERKNS_11PointData2DE, 
                       __ZNK4axis6BBox2D6coversERKNS_9LineSeg2DE, __ZNK4axis6BBox2D6coversERKS0_, 
                       __ZNK4axis6BBox2D7anchorsERKNS_11PointData2DE, __ZNK4axis6BBox2D8is_emptyEv, 
                       __ZNK4axis6BBox2D9write_wktERNSt3__113basic_ostreamIcNS1_11char_traitsIcEEEE, 
                       __ZNK4axis6Ring2D10clone_implEv, __ZNK4axis6Ring2D10points_endEv, 
                       __ZNK4axis6Ring2D11points_cendEv, __ZNK4axis6Ring2D12num_segmentsEv, 
                       __ZNK4axis6Ring2D12points_beginEv, __ZNK4axis6Ring2D13boundary_implEv, 
                       __ZNK4axis6Ring2D13points_cbeginEv, __ZNK4axis6Ring2D13segments_cendEv, 
                       __ZNK4axis6Ring2D15centroid_workerERdS1_S1_Ri, __ZNK4axis6Ring2D15segments_cbeginEv, 
                       __ZNK4axis6Ring2D21topological_dimensionEv, __ZNK4axis6Ring2D4areaEv, 
                       __ZNK4axis6Ring2D4hashEv, __ZNK4axis6Ring2D6coversERKNS_11PointData2DEd, 
                       __ZNK4axis6Ring2D6lengthEv, __ZNK4axis6Ring2D7is_ringEv, __ZNK4axis6Ring2D8containsERKNS_11PointData2DEd, 
                       __ZNK4axis6Ring2D9dimensionEv, __ZNK4axis7Point2D10clone_implEv, 
                       __ZNK4axis7Point2D10num_pointsEv, __ZNK4axis7Point2D10points_endEv, 
                       __ZNK4axis7Point2D11get_type_idEv, __ZNK4axis7Point2D11points_cendEv, 
                       __ZNK4axis7Point2D12num_segmentsEv, __ZNK4axis7Point2D12points_beginEv, 
                       __ZNK4axis7Point2D13boundary_implEv, __ZNK4axis7Point2D13points_cbeginEv, 
                       __ZNK4axis7Point2D13segments_cendEv, __ZNK4axis7Point2D15centroid_workerERdS1_S1_Ri, 
                       __ZNK4axis7Point2D15segments_cbeginEv, __ZNK4axis7Point2D21topological_dimensionEv, 
                       __ZNK4axis7Point2D4areaEv, __ZNK4axis7Point2D4hashEv, __ZNK4axis7Point2D6coversERKNS_11PointData2DEd, 
                       __ZNK4axis7Point2D6lengthEv, __ZNK4axis7Point2D8containsERKNS_11PointData2DEd, 
                       __ZNK4axis7Point2D8is_emptyEv, __ZNK4axis7Point2D8is_pointEv, 
                       __ZNK4axis7Point2D9bounds_2dEv, __ZNK4axis7Point2D9dimensionEv, 
                       __ZNK4axis8Geometry13points_3d_endEv, __ZNK4axis8Geometry14points_3d_cendEv, 
                       __ZNK4axis8Geometry15points_3d_beginEv, __ZNK4axis8Geometry16filter_dimensionEbbb, 
                       __ZNK4axis8Geometry16points_3d_cbeginEv, __ZNK4axis8Geometry16segments_3d_cendEv, 
                       __ZNK4axis8Geometry18segments_3d_cbeginEv, __ZNK4axis8Geometry8centroidEv, 
                       __ZNK4axis8Geometry9dimensionERbS1_S1_, __ZNK4axis8Geometry9write_wkbERNSt3__113basic_ostreamIcNS1_11char_traitsIcEEEE, 
                       __ZNK4axis8Geometry9write_wkbERNSt3__113basic_ostreamIcNS1_11char_traitsIcEEEENS_9ByteOrderE, 
                       __ZNK4axis8Geometry9write_wktERNSt3__113basic_ostreamIcNS1_11char_traitsIcEEEE, 
                       __ZNK4axis8GeometryeqERKS0_, __ZNK4axis9LineSeg2D10intersectsERKNS_11PointData2DE, 
                       __ZNK4axis9LineSeg2D10intersectsERKNS_11PointData2DEd, __ZNK4axis9LineSeg2D10intersectsERKNS_6BBox2DE, 
                       __ZNK4axis9LineSeg2D10intersectsERKNS_6Ring2DE, __ZNK4axis9LineSeg2D10intersectsERKS0_, 
                       __ZNK4axis9LineSeg2D10intersectsERKS0_d, __ZNK4axis9LineSeg2D12intersectionERKNS_14MultiPolygon2DE, 
                       __ZNK4axis9LineSeg2D12intersectionERKS0_, __ZNK4axis9LineSeg2D13closest_pointERKNS_11PointData2DE, 
                       __ZNK4axis9LineSeg2D14closest_pointsERKS0_, __ZNK4axis9LineSeg2D14is_parallel_toERKS0_, 
                       __ZNK4axis9LineSeg2D14point_locationERKNS_11PointData2DE, 
                       __ZNK4axis9LineSeg2D14point_projectsERKNS_11PointData2DE, 
                       __ZNK4axis9LineSeg2D16distance_squaredERKNS_11PointData2DE, 
                       __ZNK4axis9LineSeg2D16distance_squaredERKS0_, __ZNK4axis9LineSeg2D18is_intersection_1dERKS0_d, 
                       __ZNK4axis9LineSeg2D18is_within_distanceERKNS_11PointData2DEd, 
                       __ZNK4axis9LineSeg2D18is_within_distanceERKNS_6BBox2DEd, __ZNK4axis9LineSeg2D18is_within_distanceERKS0_d, 
                       __ZNK4axis9LineSeg2D19intersects_at_pointERKS0_, __ZNK4axis9LineSeg2D21intersection_of_linesERKS0_, 
                       __ZNK4axis9LineSeg2D23project_point_onto_lineERKNS_11PointData2DE, 
                       __ZNK4axis9LineSeg2D24intersects_line_at_pointERKS0_, __ZNK4axis9LineSeg2D25dimension_of_intersectionERKS0_d, 
                       __ZNK4axis9LineSeg2D5slopeEv, __ZNK4axis9LineSeg2D6islopeEv, 
                       __ZNK4axis9LineSeg2D7crossesERKS0_d, __ZNK4axis9LineSeg2D7is_eastEv, 
                       __ZNK4axis9LineSeg2D7is_westEv, __ZNK4axis9LineSeg2D8interp_xEd, 
                       __ZNK4axis9LineSeg2D8interp_xEdd, __ZNK4axis9LineSeg2D8interp_yEd, 
                       __ZNK4axis9LineSeg2D8interp_yEdd, __ZNK4axis9LineSeg2D8is_northEv, 
                       __ZNK4axis9LineSeg2D8is_southEv, __ZNK4axis9LineSeg2D9write_wktERNSt3__113basic_ostreamIcNS1_11char_traitsIcEEEE, 
                       __ZNK4axis9LineSeg2D9write_wktEv, __ZNK4axis9Polygon2D10clone_implEv, 
                       __ZNK4axis9Polygon2D10is_polygonEv, __ZNK4axis9Polygon2D10points_endEv, 
                       __ZNK4axis9Polygon2D11get_type_idEv, __ZNK4axis9Polygon2D11is_lhr_formEv, 
                       __ZNK4axis9Polygon2D11is_rhr_formEv, __ZNK4axis9Polygon2D11points_cendEv, 
                       __ZNK4axis9Polygon2D12get_no_holesEv, __ZNK4axis9Polygon2D12points_beginEv, 
                       __ZNK4axis9Polygon2D13boundary_implEv, __ZNK4axis9Polygon2D13points_cbeginEv, 
                       __ZNK4axis9Polygon2D13segments_cendEv, __ZNK4axis9Polygon2D15segments_cbeginEv, 
                       __ZNK4axis9Polygon2D21topological_dimensionEv, __ZNK4axis9Polygon2D6coversERKNS_11PointData2DEd, 
                       __ZNK4axis9Polygon2D7is_bboxERNS_6BBox2DE, __ZNK4axis9Polygon2D8containsERKNS_11PointData2DEd, 
                       __ZNK4axis9Polygon2D9dimensionEv, __ZNK5terra10Geometry3D11centroid_3dEv, 
                       __ZNK5terra10Geometry3D16filter_dimensionEbbb, __ZNK5terra10Geometry3DeqERKS0_, 
                       __ZNK5terra10HalfedgeDS11is_boundaryERKNS0_8HalfedgeE, __ZNK5terra10HalfedgeDS13next_boundaryERKNS0_8HalfedgeE, 
                       __ZNK5terra10HalfedgeDS13prev_boundaryERKNS0_8HalfedgeE, __ZNK5terra10HalfedgeDS17incident_halfedgeEi, 
                       __ZNK5terra10HalfedgeDS3dstERKNS0_8HalfedgeE, __ZNK5terra10HalfedgeDS3srcERKNS0_8HalfedgeE, 
                       __ZNK5terra10HalfedgeDS4faceERKNS0_8HalfedgeE, __ZNK5terra10HalfedgeDS4nextERKNS0_8HalfedgeE, 
                       __ZNK5terra10HalfedgeDS4pairERKNS0_8HalfedgeE, __ZNK5terra10HalfedgeDS4prevERKNS0_8HalfedgeE, 
                       __ZNK5terra10HalfedgeDS8Halfedge8is_validEv, __ZNK5terra10HalfedgeDS8HalfedgeeqERKS1_, 
                       __ZNK5terra10HalfedgeDS8HalfedgeneERKS1_, __ZNK5terra10Polyline3D10clone_implEv, 
                       __ZNK5terra10Polyline3D10to_2d_implEv, __ZNK5terra10Polyline3D11get_type_idEv, 
                       __ZNK5terra10Polyline3D11is_polylineEv, __ZNK5terra10Polyline3D12num_segmentsEv, 
                       __ZNK5terra10Polyline3D13boundary_implEv, __ZNK5terra10Polyline3D13is_multipointEv, 
                       __ZNK5terra10Polyline3D13segments_cendEv, __ZNK5terra10Polyline3D15centroid_workerERdS1_S1_Ri, 
                       __ZNK5terra10Polyline3D15segments_cbeginEv, __ZNK5terra10Polyline3D16segments_3d_cendEv, 
                       __ZNK5terra10Polyline3D18centroid_3d_workerERdS1_S1_S1_Ri, 
                       __ZNK5terra10Polyline3D18segments_3d_cbeginEv, __ZNK5terra10Polyline3D21topological_dimensionEv, 
                       __ZNK5terra10Polyline3D6coversERKN4axis11PointData2DEd, __ZNK5terra10Polyline3D6lengthEv, 
                       __ZNK5terra10Polyline3D8containsERKN4axis11PointData2DEd, 
                       __ZNK5terra10Polyline3D9dimensionEv, __ZNK5terra10Triangle3D10intersectsERKNS_9LineSeg3DE, 
                       __ZNK5terra10Triangle3D10intersectsERKS0_, __ZNK5terra10Triangle3D12area_squaredEv, 
                       __ZNK5terra10Triangle3D13closest_pointERKNS_11PointData3DE, 
                       __ZNK5terra10Triangle3D13is_degenerateEv, __ZNK5terra10Triangle3D14get_z_on_planeERKN4axis11PointData2DE, 
                       __ZNK5terra10Triangle3D14unit_normal_3dEv, __ZNK5terra10Triangle3D15get_orientationEd, 
                       __ZNK5terra10Triangle3D21minimum_rotated_widthEv, __ZNK5terra10Triangle3D22length_of_longest_edgeEv, 
                       __ZNK5terra10Triangle3D23within_squared_distanceERKS0_d, __ZNK5terra10Triangle3D26radius_of_inscribed_circleEv, 
                       __ZNK5terra10Triangle3D30closest_point_to_vertical_lineERKN4axis11PointData2DE, 
                       __ZNK5terra10Triangle3D4areaEv, __ZNK5terra10Triangle3D6volumeEv, 
                       __ZNK5terra10Triangle3D8centroidEv, __ZNK5terra10Triangle3D9bounds_3dEv, 
                       __ZNK5terra10Triangle3D9is_sliverEdd, __ZNK5terra10Triangle3D9normal_3dEv, 
                       __ZNK5terra11IndexedMesh12get_triangleEi, __ZNK5terra11IndexedMesh9bounds_3dEv, 
                       __ZNK5terra11IndexedMesh9get_pointEi, __ZNK5terra11PointData3D11fuzzy_equalERKS0_d, 
                       __ZNK5terra11PointData3D9to_stringEv, __ZNK5terra11PointData3DmiERKNS_12BaseVector3DIdEE, 
                       __ZNK5terra11PointData3DmiERKS0_, __ZNK5terra11PointData3DplERKNS_12BaseVector3DIdEE, 
                       __ZNK5terra12MeshStitcher20align_with_neighborsERKNSt3__16vectorINS1_10shared_ptrINS_5TMeshEEENS1_9allocatorIS5_EEEEddbb, 
                       __ZNK5terra12MeshStitcher6stitchERKNSt3__16vectorINS1_10shared_ptrINS_5TMeshEEENS1_9allocatorIS5_EEEE, 
                       __ZNK5terra12MeshStitcher6stitchERKNSt3__16vectorINS1_10shared_ptrINS_5TMeshEEENS1_9allocatorIS5_EEEERNS2_IdNS6_IdEEEERNS2_IiNS6_IiEEEE, 
                       __ZNK5terra12MultiPoint3D10clone_implEv, __ZNK5terra12MultiPoint3D10num_pointsEv, 
                       __ZNK5terra12MultiPoint3D10points_endEv, __ZNK5terra12MultiPoint3D10to_2d_implEv, 
                       __ZNK5terra12MultiPoint3D11get_type_idEv, __ZNK5terra12MultiPoint3D11points_cendEv, 
                       __ZNK5terra12MultiPoint3D12num_segmentsEv, __ZNK5terra12MultiPoint3D12points_beginEv, 
                       __ZNK5terra12MultiPoint3D13boundary_implEv, __ZNK5terra12MultiPoint3D13is_multipointEv, 
                       __ZNK5terra12MultiPoint3D13points_3d_endEv, __ZNK5terra12MultiPoint3D13points_cbeginEv, 
                       __ZNK5terra12MultiPoint3D13segments_cendEv, __ZNK5terra12MultiPoint3D14points_3d_cendEv, 
                       __ZNK5terra12MultiPoint3D15centroid_workerERdS1_S1_Ri, __ZNK5terra12MultiPoint3D15points_3d_beginEv, 
                       __ZNK5terra12MultiPoint3D15segments_cbeginEv, __ZNK5terra12MultiPoint3D16points_3d_cbeginEv, 
                       __ZNK5terra12MultiPoint3D16segments_3d_cendEv, __ZNK5terra12MultiPoint3D18centroid_3d_workerERdS1_S1_S1_Ri, 
                       __ZNK5terra12MultiPoint3D18segments_3d_cbeginEv, __ZNK5terra12MultiPoint3D21topological_dimensionEv, 
                       __ZNK5terra12MultiPoint3D4areaEv, __ZNK5terra12MultiPoint3D4hashEv, 
                       __ZNK5terra12MultiPoint3D6coversERKN4axis11PointData2DEd, 
                       __ZNK5terra12MultiPoint3D6lengthEv, __ZNK5terra12MultiPoint3D8containsERKN4axis11PointData2DEd, 
                       __ZNK5terra12MultiPoint3D8is_emptyEv, __ZNK5terra12MultiPoint3D9bounds_2dEv, 
                       __ZNK5terra12MultiPoint3D9bounds_3dEv, __ZNK5terra12MultiPoint3D9dimensionEv, 
                       __ZNK5terra12MultiPoint3DeqERKS0_, __ZNK5terra12MultiPoint3DneERKS0_, 
                       __ZNK5terra14MultiPolygon3D10clone_implEv, __ZNK5terra14MultiPolygon3D10points_endEv, 
                       __ZNK5terra14MultiPolygon3D10to_2d_implEv, __ZNK5terra14MultiPolygon3D11get_type_idEv, 
                       __ZNK5terra14MultiPolygon3D11points_cendEv, __ZNK5terra14MultiPolygon3D12get_no_holesEv, 
                       __ZNK5terra14MultiPolygon3D12points_beginEv, __ZNK5terra14MultiPolygon3D13boundary_implEv, 
                       __ZNK5terra14MultiPolygon3D13points_3d_endEv, __ZNK5terra14MultiPolygon3D13points_cbeginEv, 
                       __ZNK5terra14MultiPolygon3D13segments_cendEv, __ZNK5terra14MultiPolygon3D14points_3d_cendEv, 
                       __ZNK5terra14MultiPolygon3D15is_multipolygonEv, __ZNK5terra14MultiPolygon3D15points_3d_beginEv, 
                       __ZNK5terra14MultiPolygon3D15segments_cbeginEv, __ZNK5terra14MultiPolygon3D16points_3d_cbeginEv, 
                       __ZNK5terra14MultiPolygon3D16segments_3d_cendEv, __ZNK5terra14MultiPolygon3D18segments_3d_cbeginEv, 
                       __ZNK5terra14MultiPolygon3D21topological_dimensionEv, __ZNK5terra14MultiPolygon3D9dimensionEv, 
                       __ZNK5terra15MultiGeometry3D10clone_implEv, __ZNK5terra15MultiGeometry3D10points_endEv, 
                       __ZNK5terra15MultiGeometry3D10to_2d_implEv, __ZNK5terra15MultiGeometry3D11get_type_idEv, 
                       __ZNK5terra15MultiGeometry3D11points_cendEv, __ZNK5terra15MultiGeometry3D12points_beginEv, 
                       __ZNK5terra15MultiGeometry3D13boundary_implEv, __ZNK5terra15MultiGeometry3D13points_3d_endEv, 
                       __ZNK5terra15MultiGeometry3D13points_cbeginEv, __ZNK5terra15MultiGeometry3D13segments_cendEv, 
                       __ZNK5terra15MultiGeometry3D14points_3d_cendEv, __ZNK5terra15MultiGeometry3D15points_3d_beginEv, 
                       __ZNK5terra15MultiGeometry3D15segments_cbeginEv, __ZNK5terra15MultiGeometry3D16is_multigeometryEv, 
                       __ZNK5terra15MultiGeometry3D16points_3d_cbeginEv, __ZNK5terra15MultiGeometry3D16segments_3d_cendEv, 
                       __ZNK5terra15MultiGeometry3D18segments_3d_cbeginEv, __ZNK5terra15MultiGeometry3D21topological_dimensionEv, 
                       __ZNK5terra15MultiPolyline3D10clone_implEv, __ZNK5terra15MultiPolyline3D10points_endEv, 
                       __ZNK5terra15MultiPolyline3D10to_2d_implEv, __ZNK5terra15MultiPolyline3D11get_type_idEv, 
                       __ZNK5terra15MultiPolyline3D11points_cendEv, __ZNK5terra15MultiPolyline3D12points_beginEv, 
                       __ZNK5terra15MultiPolyline3D13boundary_implEv, __ZNK5terra15MultiPolyline3D13points_3d_endEv, 
                       __ZNK5terra15MultiPolyline3D13points_cbeginEv, __ZNK5terra15MultiPolyline3D13segments_cendEv, 
                       __ZNK5terra15MultiPolyline3D14points_3d_cendEv, __ZNK5terra15MultiPolyline3D15points_3d_beginEv, 
                       __ZNK5terra15MultiPolyline3D15segments_cbeginEv, __ZNK5terra15MultiPolyline3D16is_multipolylineEv, 
                       __ZNK5terra15MultiPolyline3D16points_3d_cbeginEv, __ZNK5terra15MultiPolyline3D16segments_3d_cendEv, 
                       __ZNK5terra15MultiPolyline3D18segments_3d_cbeginEv, __ZNK5terra15MultiPolyline3D21topological_dimensionEv, 
                       __ZNK5terra15MultiPolyline3D9dimensionEv, __ZNK5terra19TriangulatedTerrain10get_vertexEi, 
                       __ZNK5terra19TriangulatedTerrain11drape_pointERKN4axis11PointData2DE, 
                       __ZNK5terra19TriangulatedTerrain12num_verticesEv, __ZNK5terra19TriangulatedTerrain13get_elevationERKN4axis11PointData2DERiS5_, 
                       __ZNK5terra19TriangulatedTerrain13num_trianglesEv, __ZNK5terra19TriangulatedTerrain14drape_polylineERKN4axis10Polyline2DE, 
                       __ZNK5terra19TriangulatedTerrain16drape_multipointERKNSt3__110shared_ptrIN4axis12MultiPoint2DEEE, 
                       __ZNK5terra19TriangulatedTerrain16drape_point_implERKN4axis11PointData2DE, 
                       __ZNK5terra19TriangulatedTerrain16drape_polyline3dERKN4axis10Polyline2DE, 
                       __ZNK5terra19TriangulatedTerrain18accumulate_z_rangeERKN4axis9LineSeg2DERKNS_9LineSeg3DERdS8_RNSt3__18optionalINS1_11PointData2DEEESD_Ri, 
                       __ZNK5terra19TriangulatedTerrain18get_sorted_indicesEv, __ZNK5terra19TriangulatedTerrain19drape_multipolylineERKN4axis15MultiPolyline2DE, 
                       __ZNK5terra19TriangulatedTerrain19drape_polyline_implERKN4axis10Polyline2DE, 
                       __ZNK5terra19TriangulatedTerrain21drape_multipoint_implERKNSt3__110shared_ptrIN4axis12MultiPoint2DEEE, 
                       __ZNK5terra19TriangulatedTerrain21drape_multipolyline3dERKN4axis15MultiPolyline2DE, 
                       __ZNK5terra19TriangulatedTerrain21get_any_incident_faceEi, 
                       __ZNK5terra19TriangulatedTerrain22get_adjacent_trianglesERKN4axis9LineSeg2DE, 
                       __ZNK5terra19TriangulatedTerrain24drape_multipolyline_implERKN4axis15MultiPolyline2DE, 
                       __ZNK5terra19TriangulatedTerrain24extract_2d_triangulationEv, 
                       __ZNK5terra22AffineTransformation3D3getERKNS_11PointData3DE, 
                       __ZNK5terra22AffineTransformation3D3getERKNS_5TMeshE, __ZNK5terra22AffineTransformation3D3getERKNSt3__16vectorIdNS1_9allocatorIdEEEE, 
                       __ZNK5terra22AffineTransformation3D4makeERNS_11PointData3DE, 
                       __ZNK5terra22AffineTransformation3D7composeERKS0_, __ZNK5terra22AffineTransformation3DmlERKNS_11PointData3DE, 
                       __ZNK5terra22AffineTransformation3DmlERKS0_, __ZNK5terra5TMesh11max_valenceEv, 
                       __ZNK5terra5TMesh12get_boundaryEv, __ZNK5terra5TMesh12get_triangleEi, 
                       __ZNK5terra5TMesh12get_verticesEv, __ZNK5terra5TMesh12surface_areaEv, 
                       __ZNK5terra5TMesh13num_trianglesEv, __ZNK5terra5TMesh13triangle_dataEv, 
                       __ZNK5terra5TMesh15surface_area_2dEv, __ZNK5terra5TMesh16get_edge_indicesEv, 
                       __ZNK5terra5TMesh17get_triangle_dataEi, __ZNK5terra5TMesh19get_triangle_vertexEii, 
                       __ZNK5terra5TMesh20average_aspect_ratioEv, __ZNK5terra5TMesh20volume_under_surfaceEv, 
                       __ZNK5terra5TMesh22get_polygonal_boundaryEv, __ZNK5terra5TMesh5cloneEv, 
                       __ZNK5terra5TMesh6coordsEv, __ZNK5terra5TMesh8is_emptyEv, 
                       __ZNK5terra5TMesh9bounds_3dEv, __ZNK5terra5TMesh9get_edgesEv, 
                       __ZNK5terra5TMesh9write_objEv, __ZNK5terra6BBox3D4clipERNS_9LineSeg3DE, 
                       __ZNK5terra6BBox3D4growERKd, __ZNK5terra6BBox3D6coversERKNS_9LineSeg3DE, 
                       __ZNK5terra6BBox3D8is_emptyEv, __ZNK5terra6BBox3D9write_wktERNSt3__113basic_ostreamIcNS1_11char_traitsIcEEEE, 
                       __ZNK5terra6BBox3DeqERKS0_, __ZNK5terra6BBox3DplERKS0_, __ZNK5terra6Ring3D10clone_implEv, 
                       __ZNK5terra6Ring3D10to_2d_implEv, __ZNK5terra6Ring3D12num_segmentsEv, 
                       __ZNK5terra6Ring3D13boundary_implEv, __ZNK5terra6Ring3D13segments_cendEv, 
                       __ZNK5terra6Ring3D15centroid_workerERdS1_S1_Ri, __ZNK5terra6Ring3D15segments_cbeginEv, 
                       __ZNK5terra6Ring3D16segments_3d_cendEv, __ZNK5terra6Ring3D18centroid_3d_workerERdS1_S1_S1_Ri, 
                       __ZNK5terra6Ring3D18segments_3d_cbeginEv, __ZNK5terra6Ring3D21topological_dimensionEv, 
                       __ZNK5terra6Ring3D4areaEv, __ZNK5terra6Ring3D4hashEv, __ZNK5terra6Ring3D6coversERKN4axis11PointData2DEd, 
                       __ZNK5terra6Ring3D6lengthEv, __ZNK5terra6Ring3D7is_ringEv, 
                       __ZNK5terra6Ring3D8containsERKN4axis11PointData2DEd, __ZNK5terra6Ring3D9dimensionEv, 
                       __ZNK5terra7Point3D10clone_implEv, __ZNK5terra7Point3D10num_pointsEv, 
                       __ZNK5terra7Point3D10points_endEv, __ZNK5terra7Point3D10to_2d_implEv, 
                       __ZNK5terra7Point3D11get_type_idEv, __ZNK5terra7Point3D11points_cendEv, 
                       __ZNK5terra7Point3D12num_segmentsEv, __ZNK5terra7Point3D12points_beginEv, 
                       __ZNK5terra7Point3D13boundary_implEv, __ZNK5terra7Point3D13points_3d_endEv, 
                       __ZNK5terra7Point3D13points_cbeginEv, __ZNK5terra7Point3D13segments_cendEv, 
                       __ZNK5terra7Point3D14points_3d_cendEv, __ZNK5terra7Point3D15centroid_workerERdS1_S1_Ri, 
                       __ZNK5terra7Point3D15points_3d_beginEv, __ZNK5terra7Point3D15segments_cbeginEv, 
                       __ZNK5terra7Point3D16points_3d_cbeginEv, __ZNK5terra7Point3D16segments_3d_cendEv, 
                       __ZNK5terra7Point3D18centroid_3d_workerERdS1_S1_S1_Ri, __ZNK5terra7Point3D18segments_3d_cbeginEv, 
                       __ZNK5terra7Point3D21topological_dimensionEv, __ZNK5terra7Point3D4areaEv, 
                       __ZNK5terra7Point3D4hashEv, __ZNK5terra7Point3D6coversERKN4axis11PointData2DEd, 
                       __ZNK5terra7Point3D6lengthEv, __ZNK5terra7Point3D8containsERKN4axis11PointData2DEd, 
                       __ZNK5terra7Point3D8is_emptyEv, __ZNK5terra7Point3D8is_pointEv, 
                       __ZNK5terra7Point3D9bounds_2dEv, __ZNK5terra7Point3D9bounds_3dEv, 
                       __ZNK5terra7Point3D9dimensionEv, __ZNK5terra7Terrain10split_in_4ERKNS_5TMeshE, 
                       __ZNK5terra9LineSeg3D10intersectsERKNS_11PointData3DE, __ZNK5terra9LineSeg3D10intersectsERKNS_6BBox3DE, 
                       __ZNK5terra9LineSeg3D10intersectsERKS0_, __ZNK5terra9LineSeg3D14point_projectsERKNS_11PointData3DE, 
                       __ZNK5terra9LineSeg3D16distance_squaredERKNS_11PointData3DE, 
                       __ZNK5terra9LineSeg3D16distance_squaredERKS0_, __ZNK5terra9LineSeg3D18is_point_collinearERKNS_11PointData3DE, 
                       __ZNK5terra9LineSeg3D30closest_point_to_vertical_lineERKN4axis11PointData2DE, 
                       __ZNK5terra9Polygon3D10clone_implEv, __ZNK5terra9Polygon3D10is_polygonEv, 
                       __ZNK5terra9Polygon3D10points_endEv, __ZNK5terra9Polygon3D10to_2d_implEv, 
                       __ZNK5terra9Polygon3D11get_type_idEv, __ZNK5terra9Polygon3D11points_cendEv, 
                       __ZNK5terra9Polygon3D12get_no_holesEv, __ZNK5terra9Polygon3D12points_beginEv, 
                       __ZNK5terra9Polygon3D13boundary_implEv, __ZNK5terra9Polygon3D13points_3d_endEv, 
                       __ZNK5terra9Polygon3D13points_cbeginEv, __ZNK5terra9Polygon3D13segments_cendEv, 
                       __ZNK5terra9Polygon3D14points_3d_cendEv, __ZNK5terra9Polygon3D15points_3d_beginEv, 
                       __ZNK5terra9Polygon3D15segments_cbeginEv, __ZNK5terra9Polygon3D16points_3d_cbeginEv, 
                       __ZNK5terra9Polygon3D16segments_3d_cendEv, __ZNK5terra9Polygon3D18segments_3d_cbeginEv, 
                       __ZNK5terra9Polygon3D21topological_dimensionEv, __ZNK5terra9Polygon3D6coversERKN4axis11PointData2DEd, 
                       __ZNK5terra9Polygon3D8containsERKN4axis11PointData2DEd, __ZNK5terra9Polygon3D9dimensionEv, 
                       __ZTIN4axis10Polyline2DE, __ZTIN4axis12MultiPoint2DE, __ZTIN4axis14MultiPolygon2DE, 
                       __ZTIN4axis15MultiGeometry2DE, __ZTIN4axis15MultiPolyline2DE, 
                       __ZTIN4axis6Ring2DE, __ZTIN4axis7Point2DE, __ZTIN4axis8GeometryE, 
                       __ZTIN4axis9Polygon2DE, __ZTIN5terra10Polyline3DE, __ZTIN5terra12MultiPoint3DE, 
                       __ZTIN5terra14MultiPolygon3DE, __ZTIN5terra15MultiGeometry3DE, 
                       __ZTIN5terra15MultiPolyline3DE, __ZTIN5terra6Ring3DE, __ZTIN5terra7Point3DE, 
                       __ZTIN5terra9Polygon3DE, __ZTSN4axis10Polyline2DE, __ZTSN4axis12MultiPoint2DE, 
                       __ZTSN4axis14MultiPolygon2DE, __ZTSN4axis15MultiGeometry2DE, 
                       __ZTSN4axis15MultiPolyline2DE, __ZTSN4axis6Ring2DE, __ZTSN4axis7Point2DE, 
                       __ZTSN4axis8GeometryE, __ZTSN4axis9Polygon2DE, __ZTSN5terra10Polyline3DE, 
                       __ZTSN5terra12MultiPoint3DE, __ZTSN5terra14MultiPolygon3DE, 
                       __ZTSN5terra15MultiGeometry3DE, __ZTSN5terra15MultiPolyline3DE, 
                       __ZTSN5terra6Ring3DE, __ZTSN5terra7Point3DE, __ZTSN5terra9Polygon3DE, 
                       __ZTVN4axis10Polyline2DE, __ZTVN4axis12MultiPoint2DE, __ZTVN4axis14MultiPolygon2DE, 
                       __ZTVN4axis15MultiGeometry2DE, __ZTVN4axis15MultiPolyline2DE, 
                       __ZTVN4axis6Ring2DE, __ZTVN4axis7Point2DE, __ZTVN4axis8GeometryE, 
                       __ZTVN4axis9Polygon2DE, __ZTVN5terra10Polyline3DE, __ZTVN5terra12MultiPoint3DE, 
                       __ZTVN5terra14MultiPolygon3DE, __ZTVN5terra15MultiGeometry3DE, 
                       __ZTVN5terra15MultiPolyline3DE, __ZTVN5terra6Ring3DE, __ZTVN5terra7Point3DE, 
                       __ZTVN5terra9Polygon3DE, _axis_affine2d_compose, _axis_affine2d_free, 
                       _axis_affine2d_get, _axis_affine2d_identity, _axis_affine2d_make, 
                       _axis_affine2d_reflection_xy, _axis_affine2d_rotation, _axis_affine2d_scale, 
                       _axis_affine2d_scale_xy, _axis_affine2d_translation_xy, _axis_affine3d_compose, 
                       _axis_affine3d_free, _axis_affine3d_get, _axis_affine3d_get_mesh, 
                       _axis_affine3d_identity, _axis_affine3d_make, _axis_affine3d_reflection_xyz, 
                       _axis_affine3d_rotation, _axis_affine3d_scale, _axis_affine3d_scale_xyz, 
                       _axis_affine3d_translation_xyz, _axis_bbox_spatial_index_create, 
                       _axis_bbox_spatial_index_destroy, _axis_bbox_spatial_index_erase_item, 
                       _axis_bbox_spatial_index_free_values, _axis_bbox_spatial_index_insert_item, 
                       _axis_bbox_spatial_index_query, _axis_bbox_spatial_index_query_values, 
                       _axis_bbox_spatial_index_update_item, _axis_boolean_difference_2, 
                       _axis_boolean_intersection_2, _axis_boolean_intersection_arr, 
                       _axis_boolean_self_intersection, _axis_boolean_symdiff_2, 
                       _axis_boolean_symdiff_arr, _axis_boolean_union_1, _axis_boolean_union_2, 
                       _axis_boolean_union_arr, _axis_buffer, _axis_buffer_, _axis_buffer_p, 
                       _axis_check_self_intersection, _axis_collinear_remove, _axis_compression3d_compress_gcl, 
                       _axis_compression3d_compress_gcl_encoder_version, _axis_compression3d_decompress_direct_gcl, 
                       _axis_compression3d_decompress_gcl, _axis_compression3d_decompress_info_gcl, 
                       _axis_convex_decomposition_exact, _axis_convex_hull, _axis_diff, 
                       _axis_diff_3d, _axis_diff_p, _axis_disable_stats, _axis_disable_stats_upload, 
                       _axis_distance_euclidean, _axis_drape, _axis_draping_result_chunk_is_3d, 
                       _axis_draping_result_chunk_wkb, _axis_draping_result_chunks_count, 
                       _axis_draping_result_destroy, _axis_enable_stats, _axis_enable_stats_upload, 
                       _axis_err_string, _axis_flattening_flatten, _axis_free_cstr, 
                       _axis_geometry2d_area, _axis_geometry2d_boundary, _axis_geometry2d_centroid, 
                       _axis_geometry2d_clone, _axis_geometry2d_free, _axis_geometry2d_get_type_id, 
                       _axis_geometry2d_hash, _axis_geometry2d_is_lhr_form, _axis_geometry2d_is_multigeometry, 
                       _axis_geometry2d_is_multipoint, _axis_geometry2d_is_multipolygon, 
                       _axis_geometry2d_is_multipolyline, _axis_geometry2d_is_point, 
                       _axis_geometry2d_is_polygon, _axis_geometry2d_is_polyline, 
                       _axis_geometry2d_is_rhr_form, _axis_geometry2d_is_ring, _axis_geometry2d_length, 
                       _axis_geometry2d_make_lhr_form, _axis_geometry2d_make_rhr_form, 
                       _axis_geometry2d_num_points, _axis_geometry3d_area, _axis_geometry3d_boundary, 
                       _axis_geometry3d_centroid, _axis_geometry3d_clone, _axis_geometry3d_free, 
                       _axis_geometry3d_get_type_id, _axis_geometry3d_hash, _axis_geometry3d_is_lhr_form, 
                       _axis_geometry3d_is_multigeometry, _axis_geometry3d_is_multipoint, 
                       _axis_geometry3d_is_multipolygon, _axis_geometry3d_is_multipolyline, 
                       _axis_geometry3d_is_point, _axis_geometry3d_is_polygon, _axis_geometry3d_is_polyline, 
                       _axis_geometry3d_is_rhr_form, _axis_geometry3d_is_ring, _axis_geometry3d_length, 
                       _axis_geometry3d_make_lhr_form, _axis_geometry3d_make_rhr_form, 
                       _axis_geometry3d_num_points, _axis_get_self_intersections, 
                       _axis_intersection, _axis_intersection_3d, _axis_intersection_p, 
                       _axis_is_acf3d_bin, _axis_is_acf3d_hex, _axis_is_acf_bin, 
                       _axis_is_acf_hex, _axis_mesh_align_with_neighbors, _axis_mesh_area, 
                       _axis_mesh_create, _axis_mesh_create_by_triangulating_polygon, 
                       _axis_mesh_cut_and_replace, _axis_mesh_densify, _axis_mesh_destroy, 
                       _axis_mesh_free, _axis_mesh_get_triangle, _axis_mesh_get_triangle_data, 
                       _axis_mesh_get_vertex, _axis_mesh_get_vertex_data, _axis_mesh_is2p5d, 
                       _axis_mesh_refine_geometry2d, _axis_mesh_refine_geometry3d, 
                       _axis_mesh_refine_mesh, _axis_mesh_repair_dedupe_vertices_3d, 
                       _axis_mesh_repair_remove_collapsed_triangles, _axis_mesh_repair_reorient_triangles, 
                       _axis_mesh_repair_repair_slivers, _axis_mesh_repair_repair_vertical_triangles, 
                       _axis_mesh_repair_snap_vertices, _axis_mesh_shadow_get_shadow, 
                       _axis_mesh_simplify, _axis_mesh_slice, _axis_mesh_spatial_index_create, 
                       _axis_mesh_spatial_index_destroy, _axis_mesh_spatial_index_find_intersecting_tris, 
                       _axis_mesh_spatial_index_free_values, _axis_mesh_stitch, _axis_mesh_triangles_count, 
                       _axis_mesh_vertices_count, _axis_multigeometry2d_add_geometry, 
                       _axis_multigeometry2d_create, _axis_multigeometry2d_get_geometry, 
                       _axis_multigeometry2d_num_geometries, _axis_multigeometry2d_reserve, 
                       _axis_multigeometry3d_add_geometry, _axis_multigeometry3d_create, 
                       _axis_multigeometry3d_get_geometry, _axis_multigeometry3d_num_geometries, 
                       _axis_multigeometry3d_reserve, _axis_multipoint2d_add_point_xy, 
                       _axis_multipoint2d_create, _axis_multipoint2d_get_point, _axis_multipoint2d_num_points, 
                       _axis_multipoint2d_reserve, _axis_multipoint3d_add_point_xyz, 
                       _axis_multipoint3d_create, _axis_multipoint3d_get_point, _axis_multipoint3d_num_points, 
                       _axis_multipoint3d_reserve, _axis_multipolygon2d_add_polygon, 
                       _axis_multipolygon2d_create, _axis_multipolygon2d_get_polygon, 
                       _axis_multipolygon2d_num_polygons, _axis_multipolygon2d_reserve, 
                       _axis_multipolygon3d_add_polygon, _axis_multipolygon3d_create, 
                       _axis_multipolygon3d_get_polygon, _axis_multipolygon3d_num_polygons, 
                       _axis_multipolygon3d_reserve, _axis_multipolyline2d_add_polyline, 
                       _axis_multipolyline2d_create, _axis_multipolyline2d_get_polyline, 
                       _axis_multipolyline2d_num_polylines, _axis_multipolyline2d_reserve, 
                       _axis_multipolyline3d_add_polyline, _axis_multipolyline3d_create, 
                       _axis_multipolyline3d_get_polyline, _axis_multipolyline3d_num_polylines, 
                       _axis_multipolyline3d_reserve, _axis_obj_read, _axis_obj_write, 
                       _axis_point2d_create_xy, _axis_point2d_get_x, _axis_point2d_get_y, 
                       _axis_point2d_set_x, _axis_point2d_set_y, _axis_point3d_create_xyz, 
                       _axis_point3d_get_x, _axis_point3d_get_y, _axis_point3d_get_z, 
                       _axis_point3d_set_x, _axis_point3d_set_y, _axis_point3d_set_z, 
                       _axis_pointdata2d_create_xy, _axis_pointdata2d_free, _axis_pointdata2d_get_x, 
                       _axis_pointdata2d_get_y, _axis_pointdata2d_set_x, _axis_pointdata2d_set_y, 
                       _axis_pointdata3d_create_xyz, _axis_pointdata3d_free, _axis_pointdata3d_get_x, 
                       _axis_pointdata3d_get_y, _axis_pointdata3d_get_z, _axis_pointdata3d_set_x, 
                       _axis_pointdata3d_set_y, _axis_pointdata3d_set_z, _axis_polygon2d_add_ring, 
                       _axis_polygon2d_create, _axis_polygon2d_get_ring, _axis_polygon2d_num_rings, 
                       _axis_polygon2d_reserve, _axis_polygon3d_add_ring, _axis_polygon3d_create, 
                       _axis_polygon3d_get_ring, _axis_polygon3d_num_rings, _axis_polygon3d_reserve, 
                       _axis_polygon_partitioner, _axis_polygon_partitioner_p, _axis_polyline2d_add_point_xy, 
                       _axis_polyline2d_create, _axis_polyline2d_get_point, _axis_polyline2d_num_points, 
                       _axis_polyline2d_reserve, _axis_polyline3d_add_point_xyz, 
                       _axis_polyline3d_create, _axis_polyline3d_get_point, _axis_polyline3d_num_points, 
                       _axis_polyline3d_reserve, _axis_predicates_contains, _axis_predicates_contains_tol, 
                       _axis_predicates_covered_by, _axis_predicates_covered_by_tol, 
                       _axis_predicates_covers, _axis_predicates_covers_tol, _axis_predicates_crosses, 
                       _axis_predicates_crosses_tol, _axis_predicates_disjoint, _axis_predicates_disjoint_tol, 
                       _axis_predicates_equals, _axis_predicates_equals_tol, _axis_predicates_intersects, 
                       _axis_predicates_intersects_tol, _axis_predicates_touches, 
                       _axis_predicates_touches_tol, _axis_predicates_within, _axis_predicates_within_tol, 
                       _axis_read_acf_bin, _axis_read_acf_bin_2d, _axis_read_acf_bin_3d, 
                       _axis_read_acf_hex, _axis_read_acf_hex_2d, _axis_read_acf_hex_3d, 
                       _axis_ring2d_add_point_xy, _axis_ring2d_create, _axis_ring2d_get_point, 
                       _axis_ring2d_num_points, _axis_ring2d_reserve, _axis_ring3d_add_point_xyz, 
                       _axis_ring3d_create, _axis_ring3d_get_point, _axis_ring3d_num_points, 
                       _axis_ring3d_reserve, _axis_simplified_medial_axis, _axis_simplify_dms, 
                       _axis_stats_enabled, _axis_stats_upload_enabled, _axis_symdiff, 
                       _axis_symdiff_3d, _axis_symdiff_p, _axis_union, _axis_union_3d, 
                       _axis_union_p, _axis_wkb_read_2d, _axis_wkb_read_3d, _axis_wkb_write_2d, 
                       _axis_wkb_write_3d, _axis_wkt_read_2d, _axis_wkt_read_3d, 
                       _axis_wkt_write_2d, _axis_wkt_write_3d, _axis_write_acf3d_bin, 
                       _axis_write_acf3d_hex, _axis_write_acf_bin, _axis_write_acf_bin_2d, 
                       _axis_write_acf_bin_3d, _axis_write_acf_hex, _axis_write_acf_hex_2d, 
                       _axis_write_acf_hex_3d ]
...
