--- !tapi-tbd
tbd-version:     4
targets:         [ x86_64-macos, arm64e-macos ]
install-name:    '/System/Library/PrivateFrameworks/Morpheus.framework/Versions/A/Morpheus'
swift-abi-version: 7
exports:
  - targets:         [ x86_64-macos ]
    symbols:         [ __ZN3mlx4core11TypeToDtypeINS0_12_MLX_Float16EEcvNS0_5DtypeEEv, 
                       __ZN3mlx4core6matmulINS0_12_MLX_Float16EEEvPKT_S5_PS3_bbmmmffmRKNSt3__16vectorIiNS7_9allocatorIiEEEERKNS8_IxNS9_IxEEEESD_SH_ ]
    weak-symbols:    [ __ZTIFNSt3__110shared_ptrIN3mlx4core10ExpandDimsEEERNS2_2io18ParallelFileReaderENS2_6StreamEE, 
                       __ZTIFNSt3__110shared_ptrIN3mlx4core10GatherAxisEEERNS2_2io18ParallelFileReaderENS2_6StreamEE, 
                       __ZTIFNSt3__110shared_ptrIN3mlx4core10LogicalAndEEERNS2_2io18ParallelFileReaderENS2_6StreamEE, 
                       __ZTIFNSt3__110shared_ptrIN3mlx4core10LogicalNotEEERNS2_2io18ParallelFileReaderENS2_6StreamEE, 
                       __ZTIFNSt3__110shared_ptrIN3mlx4core10RandomBitsEEERNS2_2io18ParallelFileReaderENS2_6StreamEE, 
                       __ZTIFNSt3__110shared_ptrIN3mlx4core11ConcatenateEEERNS2_2io18ParallelFileReaderENS2_6StreamEE, 
                       __ZTIFNSt3__110shared_ptrIN3mlx4core11ConvolutionEEERNS2_2io18ParallelFileReaderENS2_6StreamEE, 
                       __ZTIFNSt3__110shared_ptrIN3mlx4core11ScatterAxisEEERNS2_2io18ParallelFileReaderENS2_6StreamEE, 
                       __ZTIFNSt3__110shared_ptrIN3mlx4core11SliceUpdateEEERNS2_2io18ParallelFileReaderENS2_6StreamEE, 
                       __ZTIFNSt3__110shared_ptrIN3mlx4core12ArgPartitionEEERNS2_2io18ParallelFileReaderENS2_6StreamEE, 
                       __ZTIFNSt3__110shared_ptrIN3mlx4core12DynamicSliceEEERNS2_2io18ParallelFileReaderENS2_6StreamEE, 
                       __ZTIFNSt3__110shared_ptrIN3mlx4core12GreaterEqualEEERNS2_2io18ParallelFileReaderENS2_6StreamEE, 
                       __ZTIFNSt3__110shared_ptrIN3mlx4core12StopGradientEEERNS2_2io18ParallelFileReaderENS2_6StreamEE, 
                       __ZTIFNSt3__110shared_ptrIN3mlx4core13BitwiseBinaryEEERNS2_2io18ParallelFileReaderENS2_6StreamEE, 
                       __ZTIFNSt3__110shared_ptrIN3mlx4core13BlockMaskedMMEEERNS2_2io18ParallelFileReaderENS2_6StreamEE, 
                       __ZTIFNSt3__110shared_ptrIN3mlx4core13BroadcastAxesEEERNS2_2io18ParallelFileReaderENS2_6StreamEE, 
                       __ZTIFNSt3__110shared_ptrIN3mlx4core15QuantizedMatmulEEERNS2_2io18ParallelFileReaderENS2_6StreamEE, 
                       __ZTIFNSt3__110shared_ptrIN3mlx4core16NumberOfElementsEEERNS2_2io18ParallelFileReaderENS2_6StreamEE, 
                       __ZTIFNSt3__110shared_ptrIN3mlx4core18DynamicSliceUpdateEEERNS2_2io18ParallelFileReaderENS2_6StreamEE, 
                       __ZTIFNSt3__110shared_ptrIN3mlx4core3AbsEEERNS2_2io18ParallelFileReaderENS2_6StreamEE, 
                       __ZTIFNSt3__110shared_ptrIN3mlx4core3AddEEERNS2_2io18ParallelFileReaderENS2_6StreamEE, 
                       __ZTIFNSt3__110shared_ptrIN3mlx4core3CosEEERNS2_2io18ParallelFileReaderENS2_6StreamEE, 
                       __ZTIFNSt3__110shared_ptrIN3mlx4core3ErfEEERNS2_2io18ParallelFileReaderENS2_6StreamEE, 
                       __ZTIFNSt3__110shared_ptrIN3mlx4core3ExpEEERNS2_2io18ParallelFileReaderENS2_6StreamEE, 
                       __ZTIFNSt3__110shared_ptrIN3mlx4core3FFTEEERNS2_2io18ParallelFileReaderENS2_6StreamEE, 
                       __ZTIFNSt3__110shared_ptrIN3mlx4core3LogEEERNS2_2io18ParallelFileReaderENS2_6StreamEE, 
                       __ZTIFNSt3__110shared_ptrIN3mlx4core3PadEEERNS2_2io18ParallelFileReaderENS2_6StreamEE, 
                       __ZTIFNSt3__110shared_ptrIN3mlx4core3QRFEEERNS2_2io18ParallelFileReaderENS2_6StreamEE, 
                       __ZTIFNSt3__110shared_ptrIN3mlx4core3SVDEEERNS2_2io18ParallelFileReaderENS2_6StreamEE, 
                       __ZTIFNSt3__110shared_ptrIN3mlx4core3SinEEERNS2_2io18ParallelFileReaderENS2_6StreamEE, 
                       __ZTIFNSt3__110shared_ptrIN3mlx4core3TanEEERNS2_2io18ParallelFileReaderENS2_6StreamEE, 
                       __ZTIFNSt3__110shared_ptrIN3mlx4core4CeilEEERNS2_2io18ParallelFileReaderENS2_6StreamEE, 
                       __ZTIFNSt3__110shared_ptrIN3mlx4core4CopyEEERNS2_2io18ParallelFileReaderENS2_6StreamEE, 
                       __ZTIFNSt3__110shared_ptrIN3mlx4core4CoshEEERNS2_2io18ParallelFileReaderENS2_6StreamEE, 
                       __ZTIFNSt3__110shared_ptrIN3mlx4core4EighEEERNS2_2io18ParallelFileReaderENS2_6StreamEE, 
                       __ZTIFNSt3__110shared_ptrIN3mlx4core4FullEEERNS2_2io18ParallelFileReaderENS2_6StreamEE, 
                       __ZTIFNSt3__110shared_ptrIN3mlx4core4ImagEEERNS2_2io18ParallelFileReaderENS2_6StreamEE, 
                       __ZTIFNSt3__110shared_ptrIN3mlx4core4LessEEERNS2_2io18ParallelFileReaderENS2_6StreamEE, 
                       __ZTIFNSt3__110shared_ptrIN3mlx4core4RealEEERNS2_2io18ParallelFileReaderENS2_6StreamEE, 
                       __ZTIFNSt3__110shared_ptrIN3mlx4core4ScanEEERNS2_2io18ParallelFileReaderENS2_6StreamEE, 
                       __ZTIFNSt3__110shared_ptrIN3mlx4core4SignEEERNS2_2io18ParallelFileReaderENS2_6StreamEE, 
                       __ZTIFNSt3__110shared_ptrIN3mlx4core4SinhEEERNS2_2io18ParallelFileReaderENS2_6StreamEE, 
                       __ZTIFNSt3__110shared_ptrIN3mlx4core4SortEEERNS2_2io18ParallelFileReaderENS2_6StreamEE, 
                       __ZTIFNSt3__110shared_ptrIN3mlx4core4SqrtEEERNS2_2io18ParallelFileReaderENS2_6StreamEE, 
                       __ZTIFNSt3__110shared_ptrIN3mlx4core4TanhEEERNS2_2io18ParallelFileReaderENS2_6StreamEE, 
                       __ZTIFNSt3__110shared_ptrIN3mlx4core4ViewEEERNS2_2io18ParallelFileReaderENS2_6StreamEE, 
                       __ZTIFNSt3__110shared_ptrIN3mlx4core4fast10RMSNormVJPEEERNS2_2io18ParallelFileReaderENS2_6StreamEE, 
                       __ZTIFNSt3__110shared_ptrIN3mlx4core4fast12LayerNormVJPEEERNS2_2io18ParallelFileReaderENS2_6StreamEE, 
                       __ZTIFNSt3__110shared_ptrIN3mlx4core4fast14AffineQuantizeEEERNS2_2io18ParallelFileReaderENS2_6StreamEE, 
                       __ZTIFNSt3__110shared_ptrIN3mlx4core4fast25ScaledDotProductAttentionEEERNS2_2io18ParallelFileReaderENS2_6StreamEE, 
                       __ZTIFNSt3__110shared_ptrIN3mlx4core4fast4RoPEEEERNS2_2io18ParallelFileReaderENS2_6StreamEE, 
                       __ZTIFNSt3__110shared_ptrIN3mlx4core4fast7RMSNormEEERNS2_2io18ParallelFileReaderENS2_6StreamEE, 
                       __ZTIFNSt3__110shared_ptrIN3mlx4core4fast9LayerNormEEERNS2_2io18ParallelFileReaderENS2_6StreamEE, 
                       __ZTIFNSt3__110shared_ptrIN3mlx4core5AddMMEEERNS2_2io18ParallelFileReaderENS2_6StreamEE, 
                       __ZTIFNSt3__110shared_ptrIN3mlx4core5EqualEEERNS2_2io18ParallelFileReaderENS2_6StreamEE, 
                       __ZTIFNSt3__110shared_ptrIN3mlx4core5Expm1EEERNS2_2io18ParallelFileReaderENS2_6StreamEE, 
                       __ZTIFNSt3__110shared_ptrIN3mlx4core5FloorEEERNS2_2io18ParallelFileReaderENS2_6StreamEE, 
                       __ZTIFNSt3__110shared_ptrIN3mlx4core5Log1pEEERNS2_2io18ParallelFileReaderENS2_6StreamEE, 
                       __ZTIFNSt3__110shared_ptrIN3mlx4core5PowerEEERNS2_2io18ParallelFileReaderENS2_6StreamEE, 
                       __ZTIFNSt3__110shared_ptrIN3mlx4core5RoundEEERNS2_2io18ParallelFileReaderENS2_6StreamEE, 
                       __ZTIFNSt3__110shared_ptrIN3mlx4core5SliceEEERNS2_2io18ParallelFileReaderENS2_6StreamEE, 
                       __ZTIFNSt3__110shared_ptrIN3mlx4core5SplitEEERNS2_2io18ParallelFileReaderENS2_6StreamEE, 
                       __ZTIFNSt3__110shared_ptrIN3mlx4core6ArangeEEERNS2_2io18ParallelFileReaderENS2_6StreamEE, 
                       __ZTIFNSt3__110shared_ptrIN3mlx4core6ArcCosEEERNS2_2io18ParallelFileReaderENS2_6StreamEE, 
                       __ZTIFNSt3__110shared_ptrIN3mlx4core6ArcSinEEERNS2_2io18ParallelFileReaderENS2_6StreamEE, 
                       __ZTIFNSt3__110shared_ptrIN3mlx4core6ArcTanEEERNS2_2io18ParallelFileReaderENS2_6StreamEE, 
                       __ZTIFNSt3__110shared_ptrIN3mlx4core6AsTypeEEERNS2_2io18ParallelFileReaderENS2_6StreamEE, 
                       __ZTIFNSt3__110shared_ptrIN3mlx4core6DivModEEERNS2_2io18ParallelFileReaderENS2_6StreamEE, 
                       __ZTIFNSt3__110shared_ptrIN3mlx4core6DivideEEERNS2_2io18ParallelFileReaderENS2_6StreamEE, 
                       __ZTIFNSt3__110shared_ptrIN3mlx4core6ErfInvEEERNS2_2io18ParallelFileReaderENS2_6StreamEE, 
                       __ZTIFNSt3__110shared_ptrIN3mlx4core6GatherEEERNS2_2io18ParallelFileReaderENS2_6StreamEE, 
                       __ZTIFNSt3__110shared_ptrIN3mlx4core6MatmulEEERNS2_2io18ParallelFileReaderENS2_6StreamEE, 
                       __ZTIFNSt3__110shared_ptrIN3mlx4core6ReduceEEERNS2_2io18ParallelFileReaderENS2_6StreamEE, 
                       __ZTIFNSt3__110shared_ptrIN3mlx4core6SelectEEERNS2_2io18ParallelFileReaderENS2_6StreamEE, 
                       __ZTIFNSt3__110shared_ptrIN3mlx4core6SquareEEERNS2_2io18ParallelFileReaderENS2_6StreamEE, 
                       __ZTIFNSt3__110shared_ptrIN3mlx4core7ArcCoshEEERNS2_2io18ParallelFileReaderENS2_6StreamEE, 
                       __ZTIFNSt3__110shared_ptrIN3mlx4core7ArcSinhEEERNS2_2io18ParallelFileReaderENS2_6StreamEE, 
                       __ZTIFNSt3__110shared_ptrIN3mlx4core7ArcTan2EEERNS2_2io18ParallelFileReaderENS2_6StreamEE, 
                       __ZTIFNSt3__110shared_ptrIN3mlx4core7ArcTanhEEERNS2_2io18ParallelFileReaderENS2_6StreamEE, 
                       __ZTIFNSt3__110shared_ptrIN3mlx4core7ArgSortEEERNS2_2io18ParallelFileReaderENS2_6StreamEE, 
                       __ZTIFNSt3__110shared_ptrIN3mlx4core7DependsEEERNS2_2io18ParallelFileReaderENS2_6StreamEE, 
                       __ZTIFNSt3__110shared_ptrIN3mlx4core7FlattenEEERNS2_2io18ParallelFileReaderENS2_6StreamEE, 
                       __ZTIFNSt3__110shared_ptrIN3mlx4core7GreaterEEERNS2_2io18ParallelFileReaderENS2_6StreamEE, 
                       __ZTIFNSt3__110shared_ptrIN3mlx4core7InverseEEERNS2_2io18ParallelFileReaderENS2_6StreamEE, 
                       __ZTIFNSt3__110shared_ptrIN3mlx4core7MaximumEEERNS2_2io18ParallelFileReaderENS2_6StreamEE, 
                       __ZTIFNSt3__110shared_ptrIN3mlx4core7MinimumEEERNS2_2io18ParallelFileReaderENS2_6StreamEE, 
                       __ZTIFNSt3__110shared_ptrIN3mlx4core7ReshapeEEERNS2_2io18ParallelFileReaderENS2_6StreamEE, 
                       __ZTIFNSt3__110shared_ptrIN3mlx4core7ScatterEEERNS2_2io18ParallelFileReaderENS2_6StreamEE, 
                       __ZTIFNSt3__110shared_ptrIN3mlx4core7SigmoidEEERNS2_2io18ParallelFileReaderENS2_6StreamEE, 
                       __ZTIFNSt3__110shared_ptrIN3mlx4core7SoftmaxEEERNS2_2io18ParallelFileReaderENS2_6StreamEE, 
                       __ZTIFNSt3__110shared_ptrIN3mlx4core7SqueezeEEERNS2_2io18ParallelFileReaderENS2_6StreamEE, 
                       __ZTIFNSt3__110shared_ptrIN3mlx4core8CholeskyEEERNS2_2io18ParallelFileReaderENS2_6StreamEE, 
                       __ZTIFNSt3__110shared_ptrIN3mlx4core8GatherMMEEERNS2_2io18ParallelFileReaderENS2_6StreamEE, 
                       __ZTIFNSt3__110shared_ptrIN3mlx4core8HadamardEEERNS2_2io18ParallelFileReaderENS2_6StreamEE, 
                       __ZTIFNSt3__110shared_ptrIN3mlx4core8MultiplyEEERNS2_2io18ParallelFileReaderENS2_6StreamEE, 
                       __ZTIFNSt3__110shared_ptrIN3mlx4core8NegativeEEERNS2_2io18ParallelFileReaderENS2_6StreamEE, 
                       __ZTIFNSt3__110shared_ptrIN3mlx4core8NotEqualEEERNS2_2io18ParallelFileReaderENS2_6StreamEE, 
                       __ZTIFNSt3__110shared_ptrIN3mlx4core8SubtractEEERNS2_2io18ParallelFileReaderENS2_6StreamEE, 
                       __ZTIFNSt3__110shared_ptrIN3mlx4core9ArgReduceEEERNS2_2io18ParallelFileReaderENS2_6StreamEE, 
                       __ZTIFNSt3__110shared_ptrIN3mlx4core9AsStridedEEERNS2_2io18ParallelFileReaderENS2_6StreamEE, 
                       __ZTIFNSt3__110shared_ptrIN3mlx4core9BroadcastEEERNS2_2io18ParallelFileReaderENS2_6StreamEE, 
                       __ZTIFNSt3__110shared_ptrIN3mlx4core9ConjugateEEERNS2_2io18ParallelFileReaderENS2_6StreamEE, 
                       __ZTIFNSt3__110shared_ptrIN3mlx4core9GatherQMMEEERNS2_2io18ParallelFileReaderENS2_6StreamEE, 
                       __ZTIFNSt3__110shared_ptrIN3mlx4core9LessEqualEEERNS2_2io18ParallelFileReaderENS2_6StreamEE, 
                       __ZTIFNSt3__110shared_ptrIN3mlx4core9LogAddExpEEERNS2_2io18ParallelFileReaderENS2_6StreamEE, 
                       __ZTIFNSt3__110shared_ptrIN3mlx4core9LogSumExpEEERNS2_2io18ParallelFileReaderENS2_6StreamEE, 
                       __ZTIFNSt3__110shared_ptrIN3mlx4core9LogicalOrEEERNS2_2io18ParallelFileReaderENS2_6StreamEE, 
                       __ZTIFNSt3__110shared_ptrIN3mlx4core9PartitionEEERNS2_2io18ParallelFileReaderENS2_6StreamEE, 
                       __ZTIFNSt3__110shared_ptrIN3mlx4core9RemainderEEERNS2_2io18ParallelFileReaderENS2_6StreamEE, 
                       __ZTIFNSt3__110shared_ptrIN3mlx4core9TransposeEEERNS2_2io18ParallelFileReaderENS2_6StreamEE, 
                       __ZTIFNSt3__110shared_ptrIN3mlx4core9UnflattenEEERNS2_2io18ParallelFileReaderENS2_6StreamEE, 
                       __ZTIFNSt3__16vectorIN3mlx4core5arrayENS_9allocatorIS3_EEEERKS6_E, 
                       __ZTIFvN3mlx4core9allocator6BufferEE, __ZTIFvRN3mlx4core2io10FileWriterERKNS0_9PrimitiveEE, 
                       __ZTIN3fmt3v1112format_errorE, __ZTIN3fmt3v1112format_facetINSt3__16localeEEE, 
                       __ZTIN3mlx4core11distributed13DistPrimitiveE, __ZTIN3mlx4core11distributed3mpi8MPIGroupE, 
                       __ZTIN3mlx4core11distributed4ring9RingGroupE, __ZTIN3mlx4core11distributed6detail10EmptyGroupE, 
                       __ZTIN3mlx4core11distributed6detail9GroupImplE, __ZTIN3mlx4core12SynchronizerE, 
                       __ZTIN3mlx4core14UnaryPrimitiveE, __ZTIN3mlx4core2io10FileWriterE, 
                       __ZTIN3mlx4core2io16SlicedFileReaderE, __ZTIN3mlx4core2io6ReaderE, 
                       __ZTIN3mlx4core2io6WriterE, __ZTIN3mlx4core9allocator9AllocatorE, 
                       __ZTIN8nlohmann16json_abi_v3_11_36detail10type_errorE, __ZTIN8nlohmann16json_abi_v3_11_36detail11parse_errorE, 
                       __ZTIN8nlohmann16json_abi_v3_11_36detail12out_of_rangeE, __ZTIN8nlohmann16json_abi_v3_11_36detail16invalid_iteratorE, 
                       __ZTIN8nlohmann16json_abi_v3_11_36detail21output_string_adapterIcNSt3__112basic_stringIcNS3_11char_traitsIcEENS3_9allocatorIcEEEEEE, 
                       __ZTIN8nlohmann16json_abi_v3_11_36detail23output_adapter_protocolIcEE, 
                       __ZTIN8nlohmann16json_abi_v3_11_36detail9exceptionE, __ZTINSt3__110__back_refIcEE, 
                       __ZTINSt3__110__function34__maybe_derive_from_unary_functionIFNS_6vectorIN3mlx4core5arrayENS_9allocatorIS5_EEEES8_EEE, 
                       __ZTINSt3__110__function35__maybe_derive_from_binary_functionIFNS_6vectorIN3mlx4core5arrayENS_9allocatorIS5_EEEES8_EEE, 
                       __ZTINSt3__110__function6__baseIFN3mlx4core5arrayERKS4_EEE, 
                       __ZTINSt3__110__function6__baseIFN3mlx4core5arrayERKS4_S6_EEE, 
                       __ZTINSt3__110__function6__baseIFNS_10shared_ptrIN3mlx4core9PrimitiveEEERNS4_2io18ParallelFileReaderENS4_6StreamEEEE, 
                       __ZTINSt3__110__function6__baseIFNS_12basic_stringIcNS_11char_traitsIcEENS_9allocatorIcEEEEvEEE, 
                       __ZTINSt3__110__function6__baseIFNS_4pairINS_6vectorIN3mlx4core5arrayENS_9allocatorIS6_EEEENS3_IiNS7_IiEEEEEERKS9_RKSB_EEE, 
                       __ZTINSt3__110__function6__baseIFNS_4pairINS_6vectorIN3mlx4core5arrayENS_9allocatorIS6_EEEES9_EERKS9_EEE, 
                       __ZTINSt3__110__function6__baseIFNS_6vectorIN3mlx4core5arrayENS_9allocatorIS5_EEEERKS8_EEE, 
                       __ZTINSt3__110__function6__baseIFNS_6vectorIN3mlx4core5arrayENS_9allocatorIS5_EEEERKS8_RKNS2_INS2_IiNS6_IiEEEENS6_ISC_EEEERKNS2_INS4_5DtypeENS6_ISH_EEEENS_5tupleIJiiiEEESN_NS2_INS_4pairINS_12basic_stringIcNS_11char_traitsIcEENS6_IcEEEENS_7variantIJibSH_EEEEENS6_ISW_EEEENS_8optionalIfEEbNSU_IJNS_9monostateENS4_6StreamENS4_6DeviceEEEEEEE, 
                       __ZTINSt3__110__function6__baseIFNS_6vectorIN3mlx4core5arrayENS_9allocatorIS5_EEEERKS8_RKNS_13unordered_mapINS_12basic_stringIcNS_11char_traitsIcEENS6_IcEEEES5_NS_4hashISG_EENS_8equal_toISG_EENS6_INS_4pairIKSG_S5_EEEEEEEEE, 
                       __ZTINSt3__110__function6__baseIFNS_6vectorIN3mlx4core5arrayENS_9allocatorIS5_EEEERKS8_SA_RKNS2_IiNS6_IiEEEEEEE, 
                       __ZTINSt3__110__function6__baseIFNS_6vectorIN3mlx4core5arrayENS_9allocatorIS5_EEEERKS8_SA_SA_EEE, 
                       __ZTINSt3__110__function6__baseIFNS_6vectorIN3mlx4core5arrayENS_9allocatorIS5_EEEES8_EEE, 
                       __ZTINSt3__110__function6__baseIFvN3mlx4core5arrayEEEE, __ZTINSt3__110__function6__baseIFvN3mlx4core9allocator6BufferEEEE, 
                       __ZTINSt3__110__function6__baseIFvPN3MTL13CommandBufferEEEE, 
                       __ZTINSt3__110__function6__baseIFvPvEEE, __ZTINSt3__110__function6__baseIFvRKN3mlx4core5arrayEEEE, 
                       __ZTINSt3__110__function6__baseIFvRKN3mlx4core5arrayEiRKNS3_6StreamERKNS_6vectorIiNS_9allocatorIiEEEEEEE, 
                       __ZTINSt3__110__function6__baseIFvRN3mlx4core2io10FileWriterERKNS3_9PrimitiveEEEE, 
                       __ZTINSt3__110__function6__baseIFvRN3mlx4core5arrayEEEE, __ZTINSt3__110__function6__baseIFviEEE, 
                       __ZTINSt3__110__function6__baseIFviiEEE, __ZTINSt3__110__function6__baseIFvvEEE, 
                       __ZTINSt3__110__function6__funcINS_6__bindIRPFiPKvPviS5_S5_S5_EJS4_S5_mS5_S5_RS5_EEEFvvEEE, 
                       __ZTINSt3__110__function6__funcINS_6__bindIRPFiPKviPvS5_iS5_S5_EJS4_mS5_S5_mS5_RS5_EEEFvvEEE, 
                       __ZTINSt3__110__function6__funcINS_6__bindIRPFiPKviPviiS5_EJS4_mS5_RiiRS5_EEEFvvEEE, 
                       __ZTINSt3__110__function6__funcINS_6__bindIZN3mlx4core12inverse_implIdEEvRKNS4_5arrayERS6_bbNS4_6StreamEEUlvE0_JEEEFvvEEE, 
                       __ZTINSt3__110__function6__funcINS_6__bindIZN3mlx4core12inverse_implIdEEvRKNS4_5arrayERS6_bbNS4_6StreamEEUlvE_JEEEFvvEEE, 
                       __ZTINSt3__110__function6__funcINS_6__bindIZN3mlx4core12inverse_implIfEEvRKNS4_5arrayERS6_bbNS4_6StreamEEUlvE0_JEEEFvvEEE, 
                       __ZTINSt3__110__function6__funcINS_6__bindIZN3mlx4core12inverse_implIfEEvRKNS4_5arrayERS6_bbNS4_6StreamEEUlvE_JEEEFvvEEE, 
                       __ZTINSt3__110__function6__funcINS_6__bindIZN3mlx4core12unary_signedINS4_6detail3AbsEEEvRKNS4_5arrayERS8_T_NS4_6StreamEEUlvE_JEEEFvvEEE, 
                       __ZTINSt3__110__function6__funcINS_6__bindIZN3mlx4core13cholesky_implIdEEvRKNS4_5arrayERS6_bNS4_6StreamEEUlvE_JEEEFvvEEE, 
                       __ZTINSt3__110__function6__funcINS_6__bindIZN3mlx4core13cholesky_implIfEEvRKNS4_5arrayERS6_bNS4_6StreamEEUlvE_JEEEFvvEEE, 
                       __ZTINSt3__110__function6__funcINS_6__bindIZN3mlx4core13unary_complexINS4_6detail9ConjugateEEEvRKNS4_5arrayERS8_T_NS4_6StreamEEUlvE_JEEEFvvEEE, 
                       __ZTINSt3__110__function6__funcINS_6__bindIZN3mlx4core13unary_real_fpINS4_6detail3ErfEEEvRKNS4_5arrayERS8_T_NS4_6StreamEEUlvE_JEEEFvvEEE, 
                       __ZTINSt3__110__function6__funcINS_6__bindIZN3mlx4core13unary_real_fpINS4_6detail6ErfInvEEEvRKNS4_5arrayERS8_T_NS4_6StreamEEUlvE_JEEEFvvEEE, 
                       __ZTINSt3__110__function6__funcINS_6__bindIZN3mlx4core15matmul_dispatchINS4_12_MLX_Float16EEEvRKNS4_5arrayES9_RS7_bbmmffNS4_6StreamEEUlvE_JEEEFvvEEE, 
                       __ZTINSt3__110__function6__funcINS_6__bindIZN3mlx4core15matmul_dispatchINS4_13_MLX_BFloat16EEEvRKNS4_5arrayES9_RS7_bbmmffNS4_6StreamEEUlvE_JEEEFvvEEE, 
                       __ZTINSt3__110__function6__funcINS_6__bindIZN3mlx4core15matmul_dispatchIdEEvRKNS4_5arrayES8_RS6_bbmmffNS4_6StreamEEUlvE_JEEEFvvEEE, 
                       __ZTINSt3__110__function6__funcINS_6__bindIZN3mlx4core15matmul_dispatchIfEEvRKNS4_5arrayES8_RS6_bbmmffNS4_6StreamEEUlvE_JEEEFvvEEE, 
                       __ZTINSt3__110__function6__funcINS_6__bindIZN3mlx4core22unary_complex_to_floatINS4_6detail4ImagEEEvRKNS4_5arrayERS8_T_NS4_6StreamEEUlvE_JEEEFvvEEE, 
                       __ZTINSt3__110__function6__funcINS_6__bindIZN3mlx4core22unary_complex_to_floatINS4_6detail4RealEEEvRKNS4_5arrayERS8_T_NS4_6StreamEEUlvE_JEEEFvvEEE, 
                       __ZTINSt3__110__function6__funcINS_6__bindIZN3mlx4core5unaryINS4_6detail10LogicalNotEEEvRKNS4_5arrayERS8_T_NS4_6StreamEEUlvE_JEEEFvvEEE, 
                       __ZTINSt3__110__function6__funcINS_6__bindIZN3mlx4core5unaryINS4_6detail4SignEEEvRKNS4_5arrayERS8_T_NS4_6StreamEEUlvE_JEEEFvvEEE, 
                       __ZTINSt3__110__function6__funcINS_6__bindIZN3mlx4core5unaryINS4_6detail6SquareEEEvRKNS4_5arrayERS8_T_NS4_6StreamEEUlvE_JEEEFvvEEE, 
                       __ZTINSt3__110__function6__funcINS_6__bindIZN3mlx4core5unaryINS4_6detail8NegativeEEEvRKNS4_5arrayERS8_T_NS4_6StreamEEUlvE_JEEEFvvEEE, 
                       __ZTINSt3__110__function6__funcINS_6__bindIZN3mlx4core8hadamardINS4_12_MLX_Float16EEEvRNS4_5arrayEiifNS4_6StreamEEUlvE_JEEEFvvEEE, 
                       __ZTINSt3__110__function6__funcINS_6__bindIZN3mlx4core8hadamardINS4_13_MLX_BFloat16EEEvRNS4_5arrayEiifNS4_6StreamEEUlvE_JEEEFvvEEE, 
                       __ZTINSt3__110__function6__funcINS_6__bindIZN3mlx4core8hadamardIfEEvRNS4_5arrayEiifNS4_6StreamEEUlvE_JEEEFvvEEE, 
                       __ZTINSt3__110__function6__funcINS_6__bindIZN3mlx4core8luf_implIdEEvRKNS4_5arrayERS6_S9_S9_NS4_6StreamEEUlvE_JEEEFvvEEE, 
                       __ZTINSt3__110__function6__funcINS_6__bindIZN3mlx4core8luf_implIfEEvRKNS4_5arrayERS6_S9_S9_NS4_6StreamEEUlvE_JEEEFvvEEE, 
                       __ZTINSt3__110__function6__funcINS_6__bindIZN3mlx4core8qrf_implIdEEvRKNS4_5arrayERS6_S9_NS4_6StreamEEUlvE_JEEEFvvEEE, 
                       __ZTINSt3__110__function6__funcINS_6__bindIZN3mlx4core8qrf_implIfEEvRKNS4_5arrayERS6_S9_NS4_6StreamEEUlvE_JEEEFvvEEE, 
                       __ZTINSt3__110__function6__funcINS_6__bindIZN3mlx4core8svd_implIdEEvRKNS4_5arrayERNS_6vectorIS6_NS_9allocatorIS6_EEEEbNS4_6StreamEEUlvE_JEEEFvvEEE, 
                       __ZTINSt3__110__function6__funcINS_6__bindIZN3mlx4core8svd_implIfEEvRKNS4_5arrayERNS_6vectorIS6_NS_9allocatorIS6_EEEEbNS4_6StreamEEUlvE_JEEEFvvEEE, 
                       __ZTINSt3__110__function6__funcINS_6__bindIZN3mlx4core8unary_fpINS4_6detail3CosEEEvRKNS4_5arrayERS8_T_NS4_6StreamEEUlvE_JEEEFvvEEE, 
                       __ZTINSt3__110__function6__funcINS_6__bindIZN3mlx4core8unary_fpINS4_6detail3ExpEEEvRKNS4_5arrayERS8_T_NS4_6StreamEEUlvE_JEEEFvvEEE, 
                       __ZTINSt3__110__function6__funcINS_6__bindIZN3mlx4core8unary_fpINS4_6detail3LogEEEvRKNS4_5arrayERS8_T_NS4_6StreamEEUlvE_JEEEFvvEEE, 
                       __ZTINSt3__110__function6__funcINS_6__bindIZN3mlx4core8unary_fpINS4_6detail3SinEEEvRKNS4_5arrayERS8_T_NS4_6StreamEEUlvE_JEEEFvvEEE, 
                       __ZTINSt3__110__function6__funcINS_6__bindIZN3mlx4core8unary_fpINS4_6detail3TanEEEvRKNS4_5arrayERS8_T_NS4_6StreamEEUlvE_JEEEFvvEEE, 
                       __ZTINSt3__110__function6__funcINS_6__bindIZN3mlx4core8unary_fpINS4_6detail4CeilEEEvRKNS4_5arrayERS8_T_NS4_6StreamEEUlvE_JEEEFvvEEE, 
                       __ZTINSt3__110__function6__funcINS_6__bindIZN3mlx4core8unary_fpINS4_6detail4CoshEEEvRKNS4_5arrayERS8_T_NS4_6StreamEEUlvE_JEEEFvvEEE, 
                       __ZTINSt3__110__function6__funcINS_6__bindIZN3mlx4core8unary_fpINS4_6detail4Log2EEEvRKNS4_5arrayERS8_T_NS4_6StreamEEUlvE_JEEEFvvEEE, 
                       __ZTINSt3__110__function6__funcINS_6__bindIZN3mlx4core8unary_fpINS4_6detail4SinhEEEvRKNS4_5arrayERS8_T_NS4_6StreamEEUlvE_JEEEFvvEEE, 
                       __ZTINSt3__110__function6__funcINS_6__bindIZN3mlx4core8unary_fpINS4_6detail4SqrtEEEvRKNS4_5arrayERS8_T_NS4_6StreamEEUlvE_JEEEFvvEEE, 
                       __ZTINSt3__110__function6__funcINS_6__bindIZN3mlx4core8unary_fpINS4_6detail4TanhEEEvRKNS4_5arrayERS8_T_NS4_6StreamEEUlvE_JEEEFvvEEE, 
                       __ZTINSt3__110__function6__funcINS_6__bindIZN3mlx4core8unary_fpINS4_6detail5Expm1EEEvRKNS4_5arrayERS8_T_NS4_6StreamEEUlvE_JEEEFvvEEE, 
                       __ZTINSt3__110__function6__funcINS_6__bindIZN3mlx4core8unary_fpINS4_6detail5FloorEEEvRKNS4_5arrayERS8_T_NS4_6StreamEEUlvE_JEEEFvvEEE, 
                       __ZTINSt3__110__function6__funcINS_6__bindIZN3mlx4core8unary_fpINS4_6detail5Log10EEEvRKNS4_5arrayERS8_T_NS4_6StreamEEUlvE_JEEEFvvEEE, 
                       __ZTINSt3__110__function6__funcINS_6__bindIZN3mlx4core8unary_fpINS4_6detail5Log1pEEEvRKNS4_5arrayERS8_T_NS4_6StreamEEUlvE_JEEEFvvEEE, 
                       __ZTINSt3__110__function6__funcINS_6__bindIZN3mlx4core8unary_fpINS4_6detail5RoundEEEvRKNS4_5arrayERS8_T_NS4_6StreamEEUlvE_JEEEFvvEEE, 
                       __ZTINSt3__110__function6__funcINS_6__bindIZN3mlx4core8unary_fpINS4_6detail5RsqrtEEEvRKNS4_5arrayERS8_T_NS4_6StreamEEUlvE_JEEEFvvEEE, 
                       __ZTINSt3__110__function6__funcINS_6__bindIZN3mlx4core8unary_fpINS4_6detail6ArcCosEEEvRKNS4_5arrayERS8_T_NS4_6StreamEEUlvE_JEEEFvvEEE, 
                       __ZTINSt3__110__function6__funcINS_6__bindIZN3mlx4core8unary_fpINS4_6detail6ArcSinEEEvRKNS4_5arrayERS8_T_NS4_6StreamEEUlvE_JEEEFvvEEE, 
                       __ZTINSt3__110__function6__funcINS_6__bindIZN3mlx4core8unary_fpINS4_6detail6ArcTanEEEvRKNS4_5arrayERS8_T_NS4_6StreamEEUlvE_JEEEFvvEEE, 
                       __ZTINSt3__110__function6__funcINS_6__bindIZN3mlx4core8unary_fpINS4_6detail7ArcCoshEEEvRKNS4_5arrayERS8_T_NS4_6StreamEEUlvE_JEEEFvvEEE, 
                       __ZTINSt3__110__function6__funcINS_6__bindIZN3mlx4core8unary_fpINS4_6detail7ArcSinhEEEvRKNS4_5arrayERS8_T_NS4_6StreamEEUlvE_JEEEFvvEEE, 
                       __ZTINSt3__110__function6__funcINS_6__bindIZN3mlx4core8unary_fpINS4_6detail7ArcTanhEEEvRKNS4_5arrayERS8_T_NS4_6StreamEEUlvE_JEEEFvvEEE, 
                       __ZTINSt3__110__function6__funcINS_6__bindIZN3mlx4core8unary_fpINS4_6detail7SigmoidEEEvRKNS4_5arrayERS8_T_NS4_6StreamEEUlvE_JEEEFvvEEE, 
                       __ZTINSt3__110__function6__funcINS_6__bindIZN3mlx4core9unary_intINS4_6detail13BitwiseInvertEEEvRKNS4_5arrayERS8_T_NS4_6StreamEEUlvE_JEEEFvvEEE, 
                       __ZTINSt3__110__function6__funcINS_8functionIFNS_6vectorIN3mlx4core5arrayENS_9allocatorIS6_EEEES9_EEEFS9_RKS9_EEE, 
                       __ZTINSt3__110__function6__funcIPFNS_10shared_ptrIN3mlx4core10ExpandDimsEEERNS4_2io18ParallelFileReaderENS4_6StreamEEFNS2_INS4_9PrimitiveEEES9_SA_EEE, 
                       __ZTINSt3__110__function6__funcIPFNS_10shared_ptrIN3mlx4core10GatherAxisEEERNS4_2io18ParallelFileReaderENS4_6StreamEEFNS2_INS4_9PrimitiveEEES9_SA_EEE, 
                       __ZTINSt3__110__function6__funcIPFNS_10shared_ptrIN3mlx4core10LogicalAndEEERNS4_2io18ParallelFileReaderENS4_6StreamEEFNS2_INS4_9PrimitiveEEES9_SA_EEE, 
                       __ZTINSt3__110__function6__funcIPFNS_10shared_ptrIN3mlx4core10LogicalNotEEERNS4_2io18ParallelFileReaderENS4_6StreamEEFNS2_INS4_9PrimitiveEEES9_SA_EEE, 
                       __ZTINSt3__110__function6__funcIPFNS_10shared_ptrIN3mlx4core10RandomBitsEEERNS4_2io18ParallelFileReaderENS4_6StreamEEFNS2_INS4_9PrimitiveEEES9_SA_EEE, 
                       __ZTINSt3__110__function6__funcIPFNS_10shared_ptrIN3mlx4core11ConcatenateEEERNS4_2io18ParallelFileReaderENS4_6StreamEEFNS2_INS4_9PrimitiveEEES9_SA_EEE, 
                       __ZTINSt3__110__function6__funcIPFNS_10shared_ptrIN3mlx4core11ConvolutionEEERNS4_2io18ParallelFileReaderENS4_6StreamEEFNS2_INS4_9PrimitiveEEES9_SA_EEE, 
                       __ZTINSt3__110__function6__funcIPFNS_10shared_ptrIN3mlx4core11ScatterAxisEEERNS4_2io18ParallelFileReaderENS4_6StreamEEFNS2_INS4_9PrimitiveEEES9_SA_EEE, 
                       __ZTINSt3__110__function6__funcIPFNS_10shared_ptrIN3mlx4core11SliceUpdateEEERNS4_2io18ParallelFileReaderENS4_6StreamEEFNS2_INS4_9PrimitiveEEES9_SA_EEE, 
                       __ZTINSt3__110__function6__funcIPFNS_10shared_ptrIN3mlx4core12ArgPartitionEEERNS4_2io18ParallelFileReaderENS4_6StreamEEFNS2_INS4_9PrimitiveEEES9_SA_EEE, 
                       __ZTINSt3__110__function6__funcIPFNS_10shared_ptrIN3mlx4core12DynamicSliceEEERNS4_2io18ParallelFileReaderENS4_6StreamEEFNS2_INS4_9PrimitiveEEES9_SA_EEE, 
                       __ZTINSt3__110__function6__funcIPFNS_10shared_ptrIN3mlx4core12GreaterEqualEEERNS4_2io18ParallelFileReaderENS4_6StreamEEFNS2_INS4_9PrimitiveEEES9_SA_EEE, 
                       __ZTINSt3__110__function6__funcIPFNS_10shared_ptrIN3mlx4core12StopGradientEEERNS4_2io18ParallelFileReaderENS4_6StreamEEFNS2_INS4_9PrimitiveEEES9_SA_EEE, 
                       __ZTINSt3__110__function6__funcIPFNS_10shared_ptrIN3mlx4core13BitwiseBinaryEEERNS4_2io18ParallelFileReaderENS4_6StreamEEFNS2_INS4_9PrimitiveEEES9_SA_EEE, 
                       __ZTINSt3__110__function6__funcIPFNS_10shared_ptrIN3mlx4core13BlockMaskedMMEEERNS4_2io18ParallelFileReaderENS4_6StreamEEFNS2_INS4_9PrimitiveEEES9_SA_EEE, 
                       __ZTINSt3__110__function6__funcIPFNS_10shared_ptrIN3mlx4core13BroadcastAxesEEERNS4_2io18ParallelFileReaderENS4_6StreamEEFNS2_INS4_9PrimitiveEEES9_SA_EEE, 
                       __ZTINSt3__110__function6__funcIPFNS_10shared_ptrIN3mlx4core15QuantizedMatmulEEERNS4_2io18ParallelFileReaderENS4_6StreamEEFNS2_INS4_9PrimitiveEEES9_SA_EEE, 
                       __ZTINSt3__110__function6__funcIPFNS_10shared_ptrIN3mlx4core16NumberOfElementsEEERNS4_2io18ParallelFileReaderENS4_6StreamEEFNS2_INS4_9PrimitiveEEES9_SA_EEE, 
                       __ZTINSt3__110__function6__funcIPFNS_10shared_ptrIN3mlx4core18DynamicSliceUpdateEEERNS4_2io18ParallelFileReaderENS4_6StreamEEFNS2_INS4_9PrimitiveEEES9_SA_EEE, 
                       __ZTINSt3__110__function6__funcIPFNS_10shared_ptrIN3mlx4core3AbsEEERNS4_2io18ParallelFileReaderENS4_6StreamEEFNS2_INS4_9PrimitiveEEES9_SA_EEE, 
                       __ZTINSt3__110__function6__funcIPFNS_10shared_ptrIN3mlx4core3AddEEERNS4_2io18ParallelFileReaderENS4_6StreamEEFNS2_INS4_9PrimitiveEEES9_SA_EEE, 
                       __ZTINSt3__110__function6__funcIPFNS_10shared_ptrIN3mlx4core3CosEEERNS4_2io18ParallelFileReaderENS4_6StreamEEFNS2_INS4_9PrimitiveEEES9_SA_EEE, 
                       __ZTINSt3__110__function6__funcIPFNS_10shared_ptrIN3mlx4core3ErfEEERNS4_2io18ParallelFileReaderENS4_6StreamEEFNS2_INS4_9PrimitiveEEES9_SA_EEE, 
                       __ZTINSt3__110__function6__funcIPFNS_10shared_ptrIN3mlx4core3ExpEEERNS4_2io18ParallelFileReaderENS4_6StreamEEFNS2_INS4_9PrimitiveEEES9_SA_EEE, 
                       __ZTINSt3__110__function6__funcIPFNS_10shared_ptrIN3mlx4core3FFTEEERNS4_2io18ParallelFileReaderENS4_6StreamEEFNS2_INS4_9PrimitiveEEES9_SA_EEE, 
                       __ZTINSt3__110__function6__funcIPFNS_10shared_ptrIN3mlx4core3LogEEERNS4_2io18ParallelFileReaderENS4_6StreamEEFNS2_INS4_9PrimitiveEEES9_SA_EEE, 
                       __ZTINSt3__110__function6__funcIPFNS_10shared_ptrIN3mlx4core3PadEEERNS4_2io18ParallelFileReaderENS4_6StreamEEFNS2_INS4_9PrimitiveEEES9_SA_EEE, 
                       __ZTINSt3__110__function6__funcIPFNS_10shared_ptrIN3mlx4core3QRFEEERNS4_2io18ParallelFileReaderENS4_6StreamEEFNS2_INS4_9PrimitiveEEES9_SA_EEE, 
                       __ZTINSt3__110__function6__funcIPFNS_10shared_ptrIN3mlx4core3SVDEEERNS4_2io18ParallelFileReaderENS4_6StreamEEFNS2_INS4_9PrimitiveEEES9_SA_EEE, 
                       __ZTINSt3__110__function6__funcIPFNS_10shared_ptrIN3mlx4core3SinEEERNS4_2io18ParallelFileReaderENS4_6StreamEEFNS2_INS4_9PrimitiveEEES9_SA_EEE, 
                       __ZTINSt3__110__function6__funcIPFNS_10shared_ptrIN3mlx4core3TanEEERNS4_2io18ParallelFileReaderENS4_6StreamEEFNS2_INS4_9PrimitiveEEES9_SA_EEE, 
                       __ZTINSt3__110__function6__funcIPFNS_10shared_ptrIN3mlx4core4CeilEEERNS4_2io18ParallelFileReaderENS4_6StreamEEFNS2_INS4_9PrimitiveEEES9_SA_EEE, 
                       __ZTINSt3__110__function6__funcIPFNS_10shared_ptrIN3mlx4core4CopyEEERNS4_2io18ParallelFileReaderENS4_6StreamEEFNS2_INS4_9PrimitiveEEES9_SA_EEE, 
                       __ZTINSt3__110__function6__funcIPFNS_10shared_ptrIN3mlx4core4CoshEEERNS4_2io18ParallelFileReaderENS4_6StreamEEFNS2_INS4_9PrimitiveEEES9_SA_EEE, 
                       __ZTINSt3__110__function6__funcIPFNS_10shared_ptrIN3mlx4core4EighEEERNS4_2io18ParallelFileReaderENS4_6StreamEEFNS2_INS4_9PrimitiveEEES9_SA_EEE, 
                       __ZTINSt3__110__function6__funcIPFNS_10shared_ptrIN3mlx4core4FullEEERNS4_2io18ParallelFileReaderENS4_6StreamEEFNS2_INS4_9PrimitiveEEES9_SA_EEE, 
                       __ZTINSt3__110__function6__funcIPFNS_10shared_ptrIN3mlx4core4ImagEEERNS4_2io18ParallelFileReaderENS4_6StreamEEFNS2_INS4_9PrimitiveEEES9_SA_EEE, 
                       __ZTINSt3__110__function6__funcIPFNS_10shared_ptrIN3mlx4core4LessEEERNS4_2io18ParallelFileReaderENS4_6StreamEEFNS2_INS4_9PrimitiveEEES9_SA_EEE, 
                       __ZTINSt3__110__function6__funcIPFNS_10shared_ptrIN3mlx4core4RealEEERNS4_2io18ParallelFileReaderENS4_6StreamEEFNS2_INS4_9PrimitiveEEES9_SA_EEE, 
                       __ZTINSt3__110__function6__funcIPFNS_10shared_ptrIN3mlx4core4ScanEEERNS4_2io18ParallelFileReaderENS4_6StreamEEFNS2_INS4_9PrimitiveEEES9_SA_EEE, 
                       __ZTINSt3__110__function6__funcIPFNS_10shared_ptrIN3mlx4core4SignEEERNS4_2io18ParallelFileReaderENS4_6StreamEEFNS2_INS4_9PrimitiveEEES9_SA_EEE, 
                       __ZTINSt3__110__function6__funcIPFNS_10shared_ptrIN3mlx4core4SinhEEERNS4_2io18ParallelFileReaderENS4_6StreamEEFNS2_INS4_9PrimitiveEEES9_SA_EEE, 
                       __ZTINSt3__110__function6__funcIPFNS_10shared_ptrIN3mlx4core4SortEEERNS4_2io18ParallelFileReaderENS4_6StreamEEFNS2_INS4_9PrimitiveEEES9_SA_EEE, 
                       __ZTINSt3__110__function6__funcIPFNS_10shared_ptrIN3mlx4core4SqrtEEERNS4_2io18ParallelFileReaderENS4_6StreamEEFNS2_INS4_9PrimitiveEEES9_SA_EEE, 
                       __ZTINSt3__110__function6__funcIPFNS_10shared_ptrIN3mlx4core4TanhEEERNS4_2io18ParallelFileReaderENS4_6StreamEEFNS2_INS4_9PrimitiveEEES9_SA_EEE, 
                       __ZTINSt3__110__function6__funcIPFNS_10shared_ptrIN3mlx4core4ViewEEERNS4_2io18ParallelFileReaderENS4_6StreamEEFNS2_INS4_9PrimitiveEEES9_SA_EEE, 
                       __ZTINSt3__110__function6__funcIPFNS_10shared_ptrIN3mlx4core4fast10RMSNormVJPEEERNS4_2io18ParallelFileReaderENS4_6StreamEEFNS2_INS4_9PrimitiveEEESA_SB_EEE, 
                       __ZTINSt3__110__function6__funcIPFNS_10shared_ptrIN3mlx4core4fast12LayerNormVJPEEERNS4_2io18ParallelFileReaderENS4_6StreamEEFNS2_INS4_9PrimitiveEEESA_SB_EEE, 
                       __ZTINSt3__110__function6__funcIPFNS_10shared_ptrIN3mlx4core4fast14AffineQuantizeEEERNS4_2io18ParallelFileReaderENS4_6StreamEEFNS2_INS4_9PrimitiveEEESA_SB_EEE, 
                       __ZTINSt3__110__function6__funcIPFNS_10shared_ptrIN3mlx4core4fast25ScaledDotProductAttentionEEERNS4_2io18ParallelFileReaderENS4_6StreamEEFNS2_INS4_9PrimitiveEEESA_SB_EEE, 
                       __ZTINSt3__110__function6__funcIPFNS_10shared_ptrIN3mlx4core4fast4RoPEEEERNS4_2io18ParallelFileReaderENS4_6StreamEEFNS2_INS4_9PrimitiveEEESA_SB_EEE, 
                       __ZTINSt3__110__function6__funcIPFNS_10shared_ptrIN3mlx4core4fast7RMSNormEEERNS4_2io18ParallelFileReaderENS4_6StreamEEFNS2_INS4_9PrimitiveEEESA_SB_EEE, 
                       __ZTINSt3__110__function6__funcIPFNS_10shared_ptrIN3mlx4core4fast9LayerNormEEERNS4_2io18ParallelFileReaderENS4_6StreamEEFNS2_INS4_9PrimitiveEEESA_SB_EEE, 
                       __ZTINSt3__110__function6__funcIPFNS_10shared_ptrIN3mlx4core5AddMMEEERNS4_2io18ParallelFileReaderENS4_6StreamEEFNS2_INS4_9PrimitiveEEES9_SA_EEE, 
                       __ZTINSt3__110__function6__funcIPFNS_10shared_ptrIN3mlx4core5EqualEEERNS4_2io18ParallelFileReaderENS4_6StreamEEFNS2_INS4_9PrimitiveEEES9_SA_EEE, 
                       __ZTINSt3__110__function6__funcIPFNS_10shared_ptrIN3mlx4core5Expm1EEERNS4_2io18ParallelFileReaderENS4_6StreamEEFNS2_INS4_9PrimitiveEEES9_SA_EEE, 
                       __ZTINSt3__110__function6__funcIPFNS_10shared_ptrIN3mlx4core5FloorEEERNS4_2io18ParallelFileReaderENS4_6StreamEEFNS2_INS4_9PrimitiveEEES9_SA_EEE, 
                       __ZTINSt3__110__function6__funcIPFNS_10shared_ptrIN3mlx4core5Log1pEEERNS4_2io18ParallelFileReaderENS4_6StreamEEFNS2_INS4_9PrimitiveEEES9_SA_EEE, 
                       __ZTINSt3__110__function6__funcIPFNS_10shared_ptrIN3mlx4core5PowerEEERNS4_2io18ParallelFileReaderENS4_6StreamEEFNS2_INS4_9PrimitiveEEES9_SA_EEE, 
                       __ZTINSt3__110__function6__funcIPFNS_10shared_ptrIN3mlx4core5RoundEEERNS4_2io18ParallelFileReaderENS4_6StreamEEFNS2_INS4_9PrimitiveEEES9_SA_EEE, 
                       __ZTINSt3__110__function6__funcIPFNS_10shared_ptrIN3mlx4core5SliceEEERNS4_2io18ParallelFileReaderENS4_6StreamEEFNS2_INS4_9PrimitiveEEES9_SA_EEE, 
                       __ZTINSt3__110__function6__funcIPFNS_10shared_ptrIN3mlx4core5SplitEEERNS4_2io18ParallelFileReaderENS4_6StreamEEFNS2_INS4_9PrimitiveEEES9_SA_EEE, 
                       __ZTINSt3__110__function6__funcIPFNS_10shared_ptrIN3mlx4core6ArangeEEERNS4_2io18ParallelFileReaderENS4_6StreamEEFNS2_INS4_9PrimitiveEEES9_SA_EEE, 
                       __ZTINSt3__110__function6__funcIPFNS_10shared_ptrIN3mlx4core6ArcCosEEERNS4_2io18ParallelFileReaderENS4_6StreamEEFNS2_INS4_9PrimitiveEEES9_SA_EEE, 
                       __ZTINSt3__110__function6__funcIPFNS_10shared_ptrIN3mlx4core6ArcSinEEERNS4_2io18ParallelFileReaderENS4_6StreamEEFNS2_INS4_9PrimitiveEEES9_SA_EEE, 
                       __ZTINSt3__110__function6__funcIPFNS_10shared_ptrIN3mlx4core6ArcTanEEERNS4_2io18ParallelFileReaderENS4_6StreamEEFNS2_INS4_9PrimitiveEEES9_SA_EEE, 
                       __ZTINSt3__110__function6__funcIPFNS_10shared_ptrIN3mlx4core6AsTypeEEERNS4_2io18ParallelFileReaderENS4_6StreamEEFNS2_INS4_9PrimitiveEEES9_SA_EEE, 
                       __ZTINSt3__110__function6__funcIPFNS_10shared_ptrIN3mlx4core6DivModEEERNS4_2io18ParallelFileReaderENS4_6StreamEEFNS2_INS4_9PrimitiveEEES9_SA_EEE, 
                       __ZTINSt3__110__function6__funcIPFNS_10shared_ptrIN3mlx4core6DivideEEERNS4_2io18ParallelFileReaderENS4_6StreamEEFNS2_INS4_9PrimitiveEEES9_SA_EEE, 
                       __ZTINSt3__110__function6__funcIPFNS_10shared_ptrIN3mlx4core6ErfInvEEERNS4_2io18ParallelFileReaderENS4_6StreamEEFNS2_INS4_9PrimitiveEEES9_SA_EEE, 
                       __ZTINSt3__110__function6__funcIPFNS_10shared_ptrIN3mlx4core6GatherEEERNS4_2io18ParallelFileReaderENS4_6StreamEEFNS2_INS4_9PrimitiveEEES9_SA_EEE, 
                       __ZTINSt3__110__function6__funcIPFNS_10shared_ptrIN3mlx4core6MatmulEEERNS4_2io18ParallelFileReaderENS4_6StreamEEFNS2_INS4_9PrimitiveEEES9_SA_EEE, 
                       __ZTINSt3__110__function6__funcIPFNS_10shared_ptrIN3mlx4core6ReduceEEERNS4_2io18ParallelFileReaderENS4_6StreamEEFNS2_INS4_9PrimitiveEEES9_SA_EEE, 
                       __ZTINSt3__110__function6__funcIPFNS_10shared_ptrIN3mlx4core6SelectEEERNS4_2io18ParallelFileReaderENS4_6StreamEEFNS2_INS4_9PrimitiveEEES9_SA_EEE, 
                       __ZTINSt3__110__function6__funcIPFNS_10shared_ptrIN3mlx4core6SquareEEERNS4_2io18ParallelFileReaderENS4_6StreamEEFNS2_INS4_9PrimitiveEEES9_SA_EEE, 
                       __ZTINSt3__110__function6__funcIPFNS_10shared_ptrIN3mlx4core7ArcCoshEEERNS4_2io18ParallelFileReaderENS4_6StreamEEFNS2_INS4_9PrimitiveEEES9_SA_EEE, 
                       __ZTINSt3__110__function6__funcIPFNS_10shared_ptrIN3mlx4core7ArcSinhEEERNS4_2io18ParallelFileReaderENS4_6StreamEEFNS2_INS4_9PrimitiveEEES9_SA_EEE, 
                       __ZTINSt3__110__function6__funcIPFNS_10shared_ptrIN3mlx4core7ArcTan2EEERNS4_2io18ParallelFileReaderENS4_6StreamEEFNS2_INS4_9PrimitiveEEES9_SA_EEE, 
                       __ZTINSt3__110__function6__funcIPFNS_10shared_ptrIN3mlx4core7ArcTanhEEERNS4_2io18ParallelFileReaderENS4_6StreamEEFNS2_INS4_9PrimitiveEEES9_SA_EEE, 
                       __ZTINSt3__110__function6__funcIPFNS_10shared_ptrIN3mlx4core7ArgSortEEERNS4_2io18ParallelFileReaderENS4_6StreamEEFNS2_INS4_9PrimitiveEEES9_SA_EEE, 
                       __ZTINSt3__110__function6__funcIPFNS_10shared_ptrIN3mlx4core7DependsEEERNS4_2io18ParallelFileReaderENS4_6StreamEEFNS2_INS4_9PrimitiveEEES9_SA_EEE, 
                       __ZTINSt3__110__function6__funcIPFNS_10shared_ptrIN3mlx4core7FlattenEEERNS4_2io18ParallelFileReaderENS4_6StreamEEFNS2_INS4_9PrimitiveEEES9_SA_EEE, 
                       __ZTINSt3__110__function6__funcIPFNS_10shared_ptrIN3mlx4core7GreaterEEERNS4_2io18ParallelFileReaderENS4_6StreamEEFNS2_INS4_9PrimitiveEEES9_SA_EEE, 
                       __ZTINSt3__110__function6__funcIPFNS_10shared_ptrIN3mlx4core7InverseEEERNS4_2io18ParallelFileReaderENS4_6StreamEEFNS2_INS4_9PrimitiveEEES9_SA_EEE, 
                       __ZTINSt3__110__function6__funcIPFNS_10shared_ptrIN3mlx4core7MaximumEEERNS4_2io18ParallelFileReaderENS4_6StreamEEFNS2_INS4_9PrimitiveEEES9_SA_EEE, 
                       __ZTINSt3__110__function6__funcIPFNS_10shared_ptrIN3mlx4core7MinimumEEERNS4_2io18ParallelFileReaderENS4_6StreamEEFNS2_INS4_9PrimitiveEEES9_SA_EEE, 
                       __ZTINSt3__110__function6__funcIPFNS_10shared_ptrIN3mlx4core7ReshapeEEERNS4_2io18ParallelFileReaderENS4_6StreamEEFNS2_INS4_9PrimitiveEEES9_SA_EEE, 
                       __ZTINSt3__110__function6__funcIPFNS_10shared_ptrIN3mlx4core7ScatterEEERNS4_2io18ParallelFileReaderENS4_6StreamEEFNS2_INS4_9PrimitiveEEES9_SA_EEE, 
                       __ZTINSt3__110__function6__funcIPFNS_10shared_ptrIN3mlx4core7SigmoidEEERNS4_2io18ParallelFileReaderENS4_6StreamEEFNS2_INS4_9PrimitiveEEES9_SA_EEE, 
                       __ZTINSt3__110__function6__funcIPFNS_10shared_ptrIN3mlx4core7SoftmaxEEERNS4_2io18ParallelFileReaderENS4_6StreamEEFNS2_INS4_9PrimitiveEEES9_SA_EEE, 
                       __ZTINSt3__110__function6__funcIPFNS_10shared_ptrIN3mlx4core7SqueezeEEERNS4_2io18ParallelFileReaderENS4_6StreamEEFNS2_INS4_9PrimitiveEEES9_SA_EEE, 
                       __ZTINSt3__110__function6__funcIPFNS_10shared_ptrIN3mlx4core8CholeskyEEERNS4_2io18ParallelFileReaderENS4_6StreamEEFNS2_INS4_9PrimitiveEEES9_SA_EEE, 
                       __ZTINSt3__110__function6__funcIPFNS_10shared_ptrIN3mlx4core8GatherMMEEERNS4_2io18ParallelFileReaderENS4_6StreamEEFNS2_INS4_9PrimitiveEEES9_SA_EEE, 
                       __ZTINSt3__110__function6__funcIPFNS_10shared_ptrIN3mlx4core8HadamardEEERNS4_2io18ParallelFileReaderENS4_6StreamEEFNS2_INS4_9PrimitiveEEES9_SA_EEE, 
                       __ZTINSt3__110__function6__funcIPFNS_10shared_ptrIN3mlx4core8MultiplyEEERNS4_2io18ParallelFileReaderENS4_6StreamEEFNS2_INS4_9PrimitiveEEES9_SA_EEE, 
                       __ZTINSt3__110__function6__funcIPFNS_10shared_ptrIN3mlx4core8NegativeEEERNS4_2io18ParallelFileReaderENS4_6StreamEEFNS2_INS4_9PrimitiveEEES9_SA_EEE, 
                       __ZTINSt3__110__function6__funcIPFNS_10shared_ptrIN3mlx4core8NotEqualEEERNS4_2io18ParallelFileReaderENS4_6StreamEEFNS2_INS4_9PrimitiveEEES9_SA_EEE, 
                       __ZTINSt3__110__function6__funcIPFNS_10shared_ptrIN3mlx4core8SubtractEEERNS4_2io18ParallelFileReaderENS4_6StreamEEFNS2_INS4_9PrimitiveEEES9_SA_EEE, 
                       __ZTINSt3__110__function6__funcIPFNS_10shared_ptrIN3mlx4core9ArgReduceEEERNS4_2io18ParallelFileReaderENS4_6StreamEEFNS2_INS4_9PrimitiveEEES9_SA_EEE, 
                       __ZTINSt3__110__function6__funcIPFNS_10shared_ptrIN3mlx4core9AsStridedEEERNS4_2io18ParallelFileReaderENS4_6StreamEEFNS2_INS4_9PrimitiveEEES9_SA_EEE, 
                       __ZTINSt3__110__function6__funcIPFNS_10shared_ptrIN3mlx4core9BroadcastEEERNS4_2io18ParallelFileReaderENS4_6StreamEEFNS2_INS4_9PrimitiveEEES9_SA_EEE, 
                       __ZTINSt3__110__function6__funcIPFNS_10shared_ptrIN3mlx4core9ConjugateEEERNS4_2io18ParallelFileReaderENS4_6StreamEEFNS2_INS4_9PrimitiveEEES9_SA_EEE, 
                       __ZTINSt3__110__function6__funcIPFNS_10shared_ptrIN3mlx4core9GatherQMMEEERNS4_2io18ParallelFileReaderENS4_6StreamEEFNS2_INS4_9PrimitiveEEES9_SA_EEE, 
                       __ZTINSt3__110__function6__funcIPFNS_10shared_ptrIN3mlx4core9LessEqualEEERNS4_2io18ParallelFileReaderENS4_6StreamEEFNS2_INS4_9PrimitiveEEES9_SA_EEE, 
                       __ZTINSt3__110__function6__funcIPFNS_10shared_ptrIN3mlx4core9LogAddExpEEERNS4_2io18ParallelFileReaderENS4_6StreamEEFNS2_INS4_9PrimitiveEEES9_SA_EEE, 
                       __ZTINSt3__110__function6__funcIPFNS_10shared_ptrIN3mlx4core9LogSumExpEEERNS4_2io18ParallelFileReaderENS4_6StreamEEFNS2_INS4_9PrimitiveEEES9_SA_EEE, 
                       __ZTINSt3__110__function6__funcIPFNS_10shared_ptrIN3mlx4core9LogicalOrEEERNS4_2io18ParallelFileReaderENS4_6StreamEEFNS2_INS4_9PrimitiveEEES9_SA_EEE, 
                       __ZTINSt3__110__function6__funcIPFNS_10shared_ptrIN3mlx4core9PartitionEEERNS4_2io18ParallelFileReaderENS4_6StreamEEFNS2_INS4_9PrimitiveEEES9_SA_EEE, 
                       __ZTINSt3__110__function6__funcIPFNS_10shared_ptrIN3mlx4core9RemainderEEERNS4_2io18ParallelFileReaderENS4_6StreamEEFNS2_INS4_9PrimitiveEEES9_SA_EEE, 
                       __ZTINSt3__110__function6__funcIPFNS_10shared_ptrIN3mlx4core9TransposeEEERNS4_2io18ParallelFileReaderENS4_6StreamEEFNS2_INS4_9PrimitiveEEES9_SA_EEE, 
                       __ZTINSt3__110__function6__funcIPFNS_10shared_ptrIN3mlx4core9UnflattenEEERNS4_2io18ParallelFileReaderENS4_6StreamEEFNS2_INS4_9PrimitiveEEES9_SA_EEE, 
                       __ZTINSt3__110__function6__funcIPFNS_6vectorIN3mlx4core5arrayENS_9allocatorIS5_EEEERKS8_ESB_EE, 
                       __ZTINSt3__110__function6__funcIPFvN3mlx4core9allocator6BufferEES6_EE, 
                       __ZTINSt3__110__function6__funcIPFvRN3mlx4core2io10FileWriterERKNS3_9PrimitiveEESA_EE, 
                       __ZTINSt3__110__function6__funcIZN10ThreadPool7enqueueINS_6__bindIMN3mlx4core11distributed4ring9RingGroupEFvPKcPcmmiiiEJPS9_SB_SC_RKmmRiSI_iEEEJEEENS_6futureINS_20__invoke_result_implIvJT_DpT0_EE4typeEEEOSM_DpOSN_EUlvE_FvvEEE, 
                       __ZTINSt3__110__function6__funcIZN3mlx4core12reduction_opINS3_11complex64_tES5_NS3_10ProdReduceEEEvRKNS3_5arrayERS7_RKNS_6vectorIiNS_9allocatorIiEEEET0_EUliE0_FviEEE, 
                       __ZTINSt3__110__function6__funcIZN3mlx4core12reduction_opINS3_11complex64_tES5_NS3_10ProdReduceEEEvRKNS3_5arrayERS7_RKNS_6vectorIiNS_9allocatorIiEEEET0_EUliE1_FviEEE, 
                       __ZTINSt3__110__function6__funcIZN3mlx4core12reduction_opINS3_11complex64_tES5_NS3_10ProdReduceEEEvRKNS3_5arrayERS7_RKNS_6vectorIiNS_9allocatorIiEEEET0_EUliE_FviEEE, 
                       __ZTINSt3__110__function6__funcIZN3mlx4core12reduction_opINS3_11complex64_tES5_NS3_9MaxReduceEEEvRKNS3_5arrayERS7_RKNS_6vectorIiNS_9allocatorIiEEEET0_EUliE0_FviEEE, 
                       __ZTINSt3__110__function6__funcIZN3mlx4core12reduction_opINS3_11complex64_tES5_NS3_9MaxReduceEEEvRKNS3_5arrayERS7_RKNS_6vectorIiNS_9allocatorIiEEEET0_EUliE1_FviEEE, 
                       __ZTINSt3__110__function6__funcIZN3mlx4core12reduction_opINS3_11complex64_tES5_NS3_9MaxReduceEEEvRKNS3_5arrayERS7_RKNS_6vectorIiNS_9allocatorIiEEEET0_EUliE_FviEEE, 
                       __ZTINSt3__110__function6__funcIZN3mlx4core12reduction_opINS3_11complex64_tES5_NS3_9MinReduceEEEvRKNS3_5arrayERS7_RKNS_6vectorIiNS_9allocatorIiEEEET0_EUliE0_FviEEE, 
                       __ZTINSt3__110__function6__funcIZN3mlx4core12reduction_opINS3_11complex64_tES5_NS3_9MinReduceEEEvRKNS3_5arrayERS7_RKNS_6vectorIiNS_9allocatorIiEEEET0_EUliE1_FviEEE, 
                       __ZTINSt3__110__function6__funcIZN3mlx4core12reduction_opINS3_11complex64_tES5_NS3_9MinReduceEEEvRKNS3_5arrayERS7_RKNS_6vectorIiNS_9allocatorIiEEEET0_EUliE_FviEEE, 
                       __ZTINSt3__110__function6__funcIZN3mlx4core12reduction_opINS3_11complex64_tES5_NS3_9SumReduceEEEvRKNS3_5arrayERS7_RKNS_6vectorIiNS_9allocatorIiEEEET0_EUliE0_FviEEE, 
                       __ZTINSt3__110__function6__funcIZN3mlx4core12reduction_opINS3_11complex64_tES5_NS3_9SumReduceEEEvRKNS3_5arrayERS7_RKNS_6vectorIiNS_9allocatorIiEEEET0_EUliE1_FviEEE, 
                       __ZTINSt3__110__function6__funcIZN3mlx4core12reduction_opINS3_11complex64_tES5_NS3_9SumReduceEEEvRKNS3_5arrayERS7_RKNS_6vectorIiNS_9allocatorIiEEEET0_EUliE_FviEEE, 
                       __ZTINSt3__110__function6__funcIZN3mlx4core12reduction_opINS3_12_MLX_Float16ES5_NS3_10ProdReduceEEEvRKNS3_5arrayERS7_RKNS_6vectorIiNS_9allocatorIiEEEET0_EUliE0_FviEEE, 
                       __ZTINSt3__110__function6__funcIZN3mlx4core12reduction_opINS3_12_MLX_Float16ES5_NS3_10ProdReduceEEEvRKNS3_5arrayERS7_RKNS_6vectorIiNS_9allocatorIiEEEET0_EUliE1_FviEEE, 
                       __ZTINSt3__110__function6__funcIZN3mlx4core12reduction_opINS3_12_MLX_Float16ES5_NS3_10ProdReduceEEEvRKNS3_5arrayERS7_RKNS_6vectorIiNS_9allocatorIiEEEET0_EUliE_FviEEE, 
                       __ZTINSt3__110__function6__funcIZN3mlx4core12reduction_opINS3_12_MLX_Float16ES5_NS3_9MaxReduceEEEvRKNS3_5arrayERS7_RKNS_6vectorIiNS_9allocatorIiEEEET0_EUliE0_FviEEE, 
                       __ZTINSt3__110__function6__funcIZN3mlx4core12reduction_opINS3_12_MLX_Float16ES5_NS3_9MaxReduceEEEvRKNS3_5arrayERS7_RKNS_6vectorIiNS_9allocatorIiEEEET0_EUliE1_FviEEE, 
                       __ZTINSt3__110__function6__funcIZN3mlx4core12reduction_opINS3_12_MLX_Float16ES5_NS3_9MaxReduceEEEvRKNS3_5arrayERS7_RKNS_6vectorIiNS_9allocatorIiEEEET0_EUliE_FviEEE, 
                       __ZTINSt3__110__function6__funcIZN3mlx4core12reduction_opINS3_12_MLX_Float16ES5_NS3_9MinReduceEEEvRKNS3_5arrayERS7_RKNS_6vectorIiNS_9allocatorIiEEEET0_EUliE0_FviEEE, 
                       __ZTINSt3__110__function6__funcIZN3mlx4core12reduction_opINS3_12_MLX_Float16ES5_NS3_9MinReduceEEEvRKNS3_5arrayERS7_RKNS_6vectorIiNS_9allocatorIiEEEET0_EUliE1_FviEEE, 
                       __ZTINSt3__110__function6__funcIZN3mlx4core12reduction_opINS3_12_MLX_Float16ES5_NS3_9MinReduceEEEvRKNS3_5arrayERS7_RKNS_6vectorIiNS_9allocatorIiEEEET0_EUliE_FviEEE, 
                       __ZTINSt3__110__function6__funcIZN3mlx4core12reduction_opINS3_12_MLX_Float16ES5_NS3_9SumReduceEEEvRKNS3_5arrayERS7_RKNS_6vectorIiNS_9allocatorIiEEEET0_EUliE0_FviEEE, 
                       __ZTINSt3__110__function6__funcIZN3mlx4core12reduction_opINS3_12_MLX_Float16ES5_NS3_9SumReduceEEEvRKNS3_5arrayERS7_RKNS_6vectorIiNS_9allocatorIiEEEET0_EUliE1_FviEEE, 
                       __ZTINSt3__110__function6__funcIZN3mlx4core12reduction_opINS3_12_MLX_Float16ES5_NS3_9SumReduceEEEvRKNS3_5arrayERS7_RKNS_6vectorIiNS_9allocatorIiEEEET0_EUliE_FviEEE, 
                       __ZTINSt3__110__function6__funcIZN3mlx4core12reduction_opINS3_13_MLX_BFloat16ES5_NS3_10ProdReduceEEEvRKNS3_5arrayERS7_RKNS_6vectorIiNS_9allocatorIiEEEET0_EUliE0_FviEEE, 
                       __ZTINSt3__110__function6__funcIZN3mlx4core12reduction_opINS3_13_MLX_BFloat16ES5_NS3_10ProdReduceEEEvRKNS3_5arrayERS7_RKNS_6vectorIiNS_9allocatorIiEEEET0_EUliE1_FviEEE, 
                       __ZTINSt3__110__function6__funcIZN3mlx4core12reduction_opINS3_13_MLX_BFloat16ES5_NS3_10ProdReduceEEEvRKNS3_5arrayERS7_RKNS_6vectorIiNS_9allocatorIiEEEET0_EUliE_FviEEE, 
                       __ZTINSt3__110__function6__funcIZN3mlx4core12reduction_opINS3_13_MLX_BFloat16ES5_NS3_9MaxReduceEEEvRKNS3_5arrayERS7_RKNS_6vectorIiNS_9allocatorIiEEEET0_EUliE0_FviEEE, 
                       __ZTINSt3__110__function6__funcIZN3mlx4core12reduction_opINS3_13_MLX_BFloat16ES5_NS3_9MaxReduceEEEvRKNS3_5arrayERS7_RKNS_6vectorIiNS_9allocatorIiEEEET0_EUliE1_FviEEE, 
                       __ZTINSt3__110__function6__funcIZN3mlx4core12reduction_opINS3_13_MLX_BFloat16ES5_NS3_9MaxReduceEEEvRKNS3_5arrayERS7_RKNS_6vectorIiNS_9allocatorIiEEEET0_EUliE_FviEEE, 
                       __ZTINSt3__110__function6__funcIZN3mlx4core12reduction_opINS3_13_MLX_BFloat16ES5_NS3_9MinReduceEEEvRKNS3_5arrayERS7_RKNS_6vectorIiNS_9allocatorIiEEEET0_EUliE0_FviEEE, 
                       __ZTINSt3__110__function6__funcIZN3mlx4core12reduction_opINS3_13_MLX_BFloat16ES5_NS3_9MinReduceEEEvRKNS3_5arrayERS7_RKNS_6vectorIiNS_9allocatorIiEEEET0_EUliE1_FviEEE, 
                       __ZTINSt3__110__function6__funcIZN3mlx4core12reduction_opINS3_13_MLX_BFloat16ES5_NS3_9MinReduceEEEvRKNS3_5arrayERS7_RKNS_6vectorIiNS_9allocatorIiEEEET0_EUliE_FviEEE, 
                       __ZTINSt3__110__function6__funcIZN3mlx4core12reduction_opINS3_13_MLX_BFloat16ES5_NS3_9SumReduceEEEvRKNS3_5arrayERS7_RKNS_6vectorIiNS_9allocatorIiEEEET0_EUliE0_FviEEE, 
                       __ZTINSt3__110__function6__funcIZN3mlx4core12reduction_opINS3_13_MLX_BFloat16ES5_NS3_9SumReduceEEEvRKNS3_5arrayERS7_RKNS_6vectorIiNS_9allocatorIiEEEET0_EUliE1_FviEEE, 
                       __ZTINSt3__110__function6__funcIZN3mlx4core12reduction_opINS3_13_MLX_BFloat16ES5_NS3_9SumReduceEEEvRKNS3_5arrayERS7_RKNS_6vectorIiNS_9allocatorIiEEEET0_EUliE_FviEEE, 
                       __ZTINSt3__110__function6__funcIZN3mlx4core12reduction_opIabNS3_8OrReduceEEEvRKNS3_5arrayERS6_RKNS_6vectorIiNS_9allocatorIiEEEET0_EUliE0_FviEEE, 
                       __ZTINSt3__110__function6__funcIZN3mlx4core12reduction_opIabNS3_8OrReduceEEEvRKNS3_5arrayERS6_RKNS_6vectorIiNS_9allocatorIiEEEET0_EUliE1_FviEEE, 
                       __ZTINSt3__110__function6__funcIZN3mlx4core12reduction_opIabNS3_8OrReduceEEEvRKNS3_5arrayERS6_RKNS_6vectorIiNS_9allocatorIiEEEET0_EUliE_FviEEE, 
                       __ZTINSt3__110__function6__funcIZN3mlx4core12reduction_opIabNS3_9AndReduceEEEvRKNS3_5arrayERS6_RKNS_6vectorIiNS_9allocatorIiEEEET0_EUliE0_FviEEE, 
                       __ZTINSt3__110__function6__funcIZN3mlx4core12reduction_opIabNS3_9AndReduceEEEvRKNS3_5arrayERS6_RKNS_6vectorIiNS_9allocatorIiEEEET0_EUliE1_FviEEE, 
                       __ZTINSt3__110__function6__funcIZN3mlx4core12reduction_opIabNS3_9AndReduceEEEvRKNS3_5arrayERS6_RKNS_6vectorIiNS_9allocatorIiEEEET0_EUliE_FviEEE, 
                       __ZTINSt3__110__function6__funcIZN3mlx4core12reduction_opIaiNS3_10ProdReduceEEEvRKNS3_5arrayERS6_RKNS_6vectorIiNS_9allocatorIiEEEET0_EUliE0_FviEEE, 
                       __ZTINSt3__110__function6__funcIZN3mlx4core12reduction_opIaiNS3_10ProdReduceEEEvRKNS3_5arrayERS6_RKNS_6vectorIiNS_9allocatorIiEEEET0_EUliE1_FviEEE, 
                       __ZTINSt3__110__function6__funcIZN3mlx4core12reduction_opIaiNS3_10ProdReduceEEEvRKNS3_5arrayERS6_RKNS_6vectorIiNS_9allocatorIiEEEET0_EUliE_FviEEE, 
                       __ZTINSt3__110__function6__funcIZN3mlx4core12reduction_opIaiNS3_9SumReduceEEEvRKNS3_5arrayERS6_RKNS_6vectorIiNS_9allocatorIiEEEET0_EUliE0_FviEEE, 
                       __ZTINSt3__110__function6__funcIZN3mlx4core12reduction_opIaiNS3_9SumReduceEEEvRKNS3_5arrayERS6_RKNS_6vectorIiNS_9allocatorIiEEEET0_EUliE1_FviEEE, 
                       __ZTINSt3__110__function6__funcIZN3mlx4core12reduction_opIaiNS3_9SumReduceEEEvRKNS3_5arrayERS6_RKNS_6vectorIiNS_9allocatorIiEEEET0_EUliE_FviEEE, 
                       __ZTINSt3__110__function6__funcIZN3mlx4core12reduction_opIbbNS3_9MaxReduceEEEvRKNS3_5arrayERS6_RKNS_6vectorIiNS_9allocatorIiEEEET0_EUliE0_FviEEE, 
                       __ZTINSt3__110__function6__funcIZN3mlx4core12reduction_opIbbNS3_9MaxReduceEEEvRKNS3_5arrayERS6_RKNS_6vectorIiNS_9allocatorIiEEEET0_EUliE1_FviEEE, 
                       __ZTINSt3__110__function6__funcIZN3mlx4core12reduction_opIbbNS3_9MaxReduceEEEvRKNS3_5arrayERS6_RKNS_6vectorIiNS_9allocatorIiEEEET0_EUliE_FviEEE, 
                       __ZTINSt3__110__function6__funcIZN3mlx4core12reduction_opIbbNS3_9MinReduceEEEvRKNS3_5arrayERS6_RKNS_6vectorIiNS_9allocatorIiEEEET0_EUliE0_FviEEE, 
                       __ZTINSt3__110__function6__funcIZN3mlx4core12reduction_opIbbNS3_9MinReduceEEEvRKNS3_5arrayERS6_RKNS_6vectorIiNS_9allocatorIiEEEET0_EUliE1_FviEEE, 
                       __ZTINSt3__110__function6__funcIZN3mlx4core12reduction_opIbbNS3_9MinReduceEEEvRKNS3_5arrayERS6_RKNS_6vectorIiNS_9allocatorIiEEEET0_EUliE_FviEEE, 
                       __ZTINSt3__110__function6__funcIZN3mlx4core12reduction_opIddNS3_10ProdReduceEEEvRKNS3_5arrayERS6_RKNS_6vectorIiNS_9allocatorIiEEEET0_EUliE0_FviEEE, 
                       __ZTINSt3__110__function6__funcIZN3mlx4core12reduction_opIddNS3_10ProdReduceEEEvRKNS3_5arrayERS6_RKNS_6vectorIiNS_9allocatorIiEEEET0_EUliE1_FviEEE, 
                       __ZTINSt3__110__function6__funcIZN3mlx4core12reduction_opIddNS3_10ProdReduceEEEvRKNS3_5arrayERS6_RKNS_6vectorIiNS_9allocatorIiEEEET0_EUliE_FviEEE, 
                       __ZTINSt3__110__function6__funcIZN3mlx4core12reduction_opIddNS3_9MaxReduceEEEvRKNS3_5arrayERS6_RKNS_6vectorIiNS_9allocatorIiEEEET0_EUliE0_FviEEE, 
                       __ZTINSt3__110__function6__funcIZN3mlx4core12reduction_opIddNS3_9MaxReduceEEEvRKNS3_5arrayERS6_RKNS_6vectorIiNS_9allocatorIiEEEET0_EUliE1_FviEEE, 
                       __ZTINSt3__110__function6__funcIZN3mlx4core12reduction_opIddNS3_9MaxReduceEEEvRKNS3_5arrayERS6_RKNS_6vectorIiNS_9allocatorIiEEEET0_EUliE_FviEEE, 
                       __ZTINSt3__110__function6__funcIZN3mlx4core12reduction_opIddNS3_9MinReduceEEEvRKNS3_5arrayERS6_RKNS_6vectorIiNS_9allocatorIiEEEET0_EUliE0_FviEEE, 
                       __ZTINSt3__110__function6__funcIZN3mlx4core12reduction_opIddNS3_9MinReduceEEEvRKNS3_5arrayERS6_RKNS_6vectorIiNS_9allocatorIiEEEET0_EUliE1_FviEEE, 
                       __ZTINSt3__110__function6__funcIZN3mlx4core12reduction_opIddNS3_9MinReduceEEEvRKNS3_5arrayERS6_RKNS_6vectorIiNS_9allocatorIiEEEET0_EUliE_FviEEE, 
                       __ZTINSt3__110__function6__funcIZN3mlx4core12reduction_opIddNS3_9SumReduceEEEvRKNS3_5arrayERS6_RKNS_6vectorIiNS_9allocatorIiEEEET0_EUliE0_FviEEE, 
                       __ZTINSt3__110__function6__funcIZN3mlx4core12reduction_opIddNS3_9SumReduceEEEvRKNS3_5arrayERS6_RKNS_6vectorIiNS_9allocatorIiEEEET0_EUliE1_FviEEE, 
                       __ZTINSt3__110__function6__funcIZN3mlx4core12reduction_opIddNS3_9SumReduceEEEvRKNS3_5arrayERS6_RKNS_6vectorIiNS_9allocatorIiEEEET0_EUliE_FviEEE, 
                       __ZTINSt3__110__function6__funcIZN3mlx4core12reduction_opIffNS3_10ProdReduceEEEvRKNS3_5arrayERS6_RKNS_6vectorIiNS_9allocatorIiEEEET0_EUliE0_FviEEE, 
                       __ZTINSt3__110__function6__funcIZN3mlx4core12reduction_opIffNS3_10ProdReduceEEEvRKNS3_5arrayERS6_RKNS_6vectorIiNS_9allocatorIiEEEET0_EUliE1_FviEEE, 
                       __ZTINSt3__110__function6__funcIZN3mlx4core12reduction_opIffNS3_10ProdReduceEEEvRKNS3_5arrayERS6_RKNS_6vectorIiNS_9allocatorIiEEEET0_EUliE_FviEEE, 
                       __ZTINSt3__110__function6__funcIZN3mlx4core12reduction_opIffNS3_9MaxReduceEEEvRKNS3_5arrayERS6_RKNS_6vectorIiNS_9allocatorIiEEEET0_EUliE0_FviEEE, 
                       __ZTINSt3__110__function6__funcIZN3mlx4core12reduction_opIffNS3_9MaxReduceEEEvRKNS3_5arrayERS6_RKNS_6vectorIiNS_9allocatorIiEEEET0_EUliE1_FviEEE, 
                       __ZTINSt3__110__function6__funcIZN3mlx4core12reduction_opIffNS3_9MaxReduceEEEvRKNS3_5arrayERS6_RKNS_6vectorIiNS_9allocatorIiEEEET0_EUliE_FviEEE, 
                       __ZTINSt3__110__function6__funcIZN3mlx4core12reduction_opIffNS3_9MinReduceEEEvRKNS3_5arrayERS6_RKNS_6vectorIiNS_9allocatorIiEEEET0_EUliE0_FviEEE, 
                       __ZTINSt3__110__function6__funcIZN3mlx4core12reduction_opIffNS3_9MinReduceEEEvRKNS3_5arrayERS6_RKNS_6vectorIiNS_9allocatorIiEEEET0_EUliE1_FviEEE, 
                       __ZTINSt3__110__function6__funcIZN3mlx4core12reduction_opIffNS3_9MinReduceEEEvRKNS3_5arrayERS6_RKNS_6vectorIiNS_9allocatorIiEEEET0_EUliE_FviEEE, 
                       __ZTINSt3__110__function6__funcIZN3mlx4core12reduction_opIffNS3_9SumReduceEEEvRKNS3_5arrayERS6_RKNS_6vectorIiNS_9allocatorIiEEEET0_EUliE0_FviEEE, 
                       __ZTINSt3__110__function6__funcIZN3mlx4core12reduction_opIffNS3_9SumReduceEEEvRKNS3_5arrayERS6_RKNS_6vectorIiNS_9allocatorIiEEEET0_EUliE1_FviEEE, 
                       __ZTINSt3__110__function6__funcIZN3mlx4core12reduction_opIffNS3_9SumReduceEEEvRKNS3_5arrayERS6_RKNS_6vectorIiNS_9allocatorIiEEEET0_EUliE_FviEEE, 
                       __ZTINSt3__110__function6__funcIZN3mlx4core12reduction_opIhhNS3_9MaxReduceEEEvRKNS3_5arrayERS6_RKNS_6vectorIiNS_9allocatorIiEEEET0_EUliE0_FviEEE, 
                       __ZTINSt3__110__function6__funcIZN3mlx4core12reduction_opIhhNS3_9MaxReduceEEEvRKNS3_5arrayERS6_RKNS_6vectorIiNS_9allocatorIiEEEET0_EUliE1_FviEEE, 
                       __ZTINSt3__110__function6__funcIZN3mlx4core12reduction_opIhhNS3_9MaxReduceEEEvRKNS3_5arrayERS6_RKNS_6vectorIiNS_9allocatorIiEEEET0_EUliE_FviEEE, 
                       __ZTINSt3__110__function6__funcIZN3mlx4core12reduction_opIhhNS3_9MinReduceEEEvRKNS3_5arrayERS6_RKNS_6vectorIiNS_9allocatorIiEEEET0_EUliE0_FviEEE, 
                       __ZTINSt3__110__function6__funcIZN3mlx4core12reduction_opIhhNS3_9MinReduceEEEvRKNS3_5arrayERS6_RKNS_6vectorIiNS_9allocatorIiEEEET0_EUliE1_FviEEE, 
                       __ZTINSt3__110__function6__funcIZN3mlx4core12reduction_opIhhNS3_9MinReduceEEEvRKNS3_5arrayERS6_RKNS_6vectorIiNS_9allocatorIiEEEET0_EUliE_FviEEE, 
                       __ZTINSt3__110__function6__funcIZN3mlx4core12reduction_opIibNS3_8OrReduceEEEvRKNS3_5arrayERS6_RKNS_6vectorIiNS_9allocatorIiEEEET0_EUliE0_FviEEE, 
                       __ZTINSt3__110__function6__funcIZN3mlx4core12reduction_opIibNS3_8OrReduceEEEvRKNS3_5arrayERS6_RKNS_6vectorIiNS_9allocatorIiEEEET0_EUliE1_FviEEE, 
                       __ZTINSt3__110__function6__funcIZN3mlx4core12reduction_opIibNS3_8OrReduceEEEvRKNS3_5arrayERS6_RKNS_6vectorIiNS_9allocatorIiEEEET0_EUliE_FviEEE, 
                       __ZTINSt3__110__function6__funcIZN3mlx4core12reduction_opIibNS3_9AndReduceEEEvRKNS3_5arrayERS6_RKNS_6vectorIiNS_9allocatorIiEEEET0_EUliE0_FviEEE, 
                       __ZTINSt3__110__function6__funcIZN3mlx4core12reduction_opIibNS3_9AndReduceEEEvRKNS3_5arrayERS6_RKNS_6vectorIiNS_9allocatorIiEEEET0_EUliE1_FviEEE, 
                       __ZTINSt3__110__function6__funcIZN3mlx4core12reduction_opIibNS3_9AndReduceEEEvRKNS3_5arrayERS6_RKNS_6vectorIiNS_9allocatorIiEEEET0_EUliE_FviEEE, 
                       __ZTINSt3__110__function6__funcIZN3mlx4core12reduction_opIiiNS3_10ProdReduceEEEvRKNS3_5arrayERS6_RKNS_6vectorIiNS_9allocatorIiEEEET0_EUliE0_FviEEE, 
                       __ZTINSt3__110__function6__funcIZN3mlx4core12reduction_opIiiNS3_10ProdReduceEEEvRKNS3_5arrayERS6_RKNS_6vectorIiNS_9allocatorIiEEEET0_EUliE1_FviEEE, 
                       __ZTINSt3__110__function6__funcIZN3mlx4core12reduction_opIiiNS3_10ProdReduceEEEvRKNS3_5arrayERS6_RKNS_6vectorIiNS_9allocatorIiEEEET0_EUliE_FviEEE, 
                       __ZTINSt3__110__function6__funcIZN3mlx4core12reduction_opIiiNS3_9MaxReduceEEEvRKNS3_5arrayERS6_RKNS_6vectorIiNS_9allocatorIiEEEET0_EUliE0_FviEEE, 
                       __ZTINSt3__110__function6__funcIZN3mlx4core12reduction_opIiiNS3_9MaxReduceEEEvRKNS3_5arrayERS6_RKNS_6vectorIiNS_9allocatorIiEEEET0_EUliE1_FviEEE, 
                       __ZTINSt3__110__function6__funcIZN3mlx4core12reduction_opIiiNS3_9MaxReduceEEEvRKNS3_5arrayERS6_RKNS_6vectorIiNS_9allocatorIiEEEET0_EUliE_FviEEE, 
                       __ZTINSt3__110__function6__funcIZN3mlx4core12reduction_opIiiNS3_9MinReduceEEEvRKNS3_5arrayERS6_RKNS_6vectorIiNS_9allocatorIiEEEET0_EUliE0_FviEEE, 
                       __ZTINSt3__110__function6__funcIZN3mlx4core12reduction_opIiiNS3_9MinReduceEEEvRKNS3_5arrayERS6_RKNS_6vectorIiNS_9allocatorIiEEEET0_EUliE1_FviEEE, 
                       __ZTINSt3__110__function6__funcIZN3mlx4core12reduction_opIiiNS3_9MinReduceEEEvRKNS3_5arrayERS6_RKNS_6vectorIiNS_9allocatorIiEEEET0_EUliE_FviEEE, 
                       __ZTINSt3__110__function6__funcIZN3mlx4core12reduction_opIiiNS3_9SumReduceEEEvRKNS3_5arrayERS6_RKNS_6vectorIiNS_9allocatorIiEEEET0_EUliE0_FviEEE, 
                       __ZTINSt3__110__function6__funcIZN3mlx4core12reduction_opIiiNS3_9SumReduceEEEvRKNS3_5arrayERS6_RKNS_6vectorIiNS_9allocatorIiEEEET0_EUliE1_FviEEE, 
                       __ZTINSt3__110__function6__funcIZN3mlx4core12reduction_opIiiNS3_9SumReduceEEEvRKNS3_5arrayERS6_RKNS_6vectorIiNS_9allocatorIiEEEET0_EUliE_FviEEE, 
                       __ZTINSt3__110__function6__funcIZN3mlx4core12reduction_opIjjNS3_9MaxReduceEEEvRKNS3_5arrayERS6_RKNS_6vectorIiNS_9allocatorIiEEEET0_EUliE0_FviEEE, 
                       __ZTINSt3__110__function6__funcIZN3mlx4core12reduction_opIjjNS3_9MaxReduceEEEvRKNS3_5arrayERS6_RKNS_6vectorIiNS_9allocatorIiEEEET0_EUliE1_FviEEE, 
                       __ZTINSt3__110__function6__funcIZN3mlx4core12reduction_opIjjNS3_9MaxReduceEEEvRKNS3_5arrayERS6_RKNS_6vectorIiNS_9allocatorIiEEEET0_EUliE_FviEEE, 
                       __ZTINSt3__110__function6__funcIZN3mlx4core12reduction_opIjjNS3_9MinReduceEEEvRKNS3_5arrayERS6_RKNS_6vectorIiNS_9allocatorIiEEEET0_EUliE0_FviEEE, 
                       __ZTINSt3__110__function6__funcIZN3mlx4core12reduction_opIjjNS3_9MinReduceEEEvRKNS3_5arrayERS6_RKNS_6vectorIiNS_9allocatorIiEEEET0_EUliE1_FviEEE, 
                       __ZTINSt3__110__function6__funcIZN3mlx4core12reduction_opIjjNS3_9MinReduceEEEvRKNS3_5arrayERS6_RKNS_6vectorIiNS_9allocatorIiEEEET0_EUliE_FviEEE, 
                       __ZTINSt3__110__function6__funcIZN3mlx4core12reduction_opIsbNS3_8OrReduceEEEvRKNS3_5arrayERS6_RKNS_6vectorIiNS_9allocatorIiEEEET0_EUliE0_FviEEE, 
                       __ZTINSt3__110__function6__funcIZN3mlx4core12reduction_opIsbNS3_8OrReduceEEEvRKNS3_5arrayERS6_RKNS_6vectorIiNS_9allocatorIiEEEET0_EUliE1_FviEEE, 
                       __ZTINSt3__110__function6__funcIZN3mlx4core12reduction_opIsbNS3_8OrReduceEEEvRKNS3_5arrayERS6_RKNS_6vectorIiNS_9allocatorIiEEEET0_EUliE_FviEEE, 
                       __ZTINSt3__110__function6__funcIZN3mlx4core12reduction_opIsbNS3_9AndReduceEEEvRKNS3_5arrayERS6_RKNS_6vectorIiNS_9allocatorIiEEEET0_EUliE0_FviEEE, 
                       __ZTINSt3__110__function6__funcIZN3mlx4core12reduction_opIsbNS3_9AndReduceEEEvRKNS3_5arrayERS6_RKNS_6vectorIiNS_9allocatorIiEEEET0_EUliE1_FviEEE, 
                       __ZTINSt3__110__function6__funcIZN3mlx4core12reduction_opIsbNS3_9AndReduceEEEvRKNS3_5arrayERS6_RKNS_6vectorIiNS_9allocatorIiEEEET0_EUliE_FviEEE, 
                       __ZTINSt3__110__function6__funcIZN3mlx4core12reduction_opIsiNS3_10ProdReduceEEEvRKNS3_5arrayERS6_RKNS_6vectorIiNS_9allocatorIiEEEET0_EUliE0_FviEEE, 
                       __ZTINSt3__110__function6__funcIZN3mlx4core12reduction_opIsiNS3_10ProdReduceEEEvRKNS3_5arrayERS6_RKNS_6vectorIiNS_9allocatorIiEEEET0_EUliE1_FviEEE, 
                       __ZTINSt3__110__function6__funcIZN3mlx4core12reduction_opIsiNS3_10ProdReduceEEEvRKNS3_5arrayERS6_RKNS_6vectorIiNS_9allocatorIiEEEET0_EUliE_FviEEE, 
                       __ZTINSt3__110__function6__funcIZN3mlx4core12reduction_opIsiNS3_9SumReduceEEEvRKNS3_5arrayERS6_RKNS_6vectorIiNS_9allocatorIiEEEET0_EUliE0_FviEEE, 
                       __ZTINSt3__110__function6__funcIZN3mlx4core12reduction_opIsiNS3_9SumReduceEEEvRKNS3_5arrayERS6_RKNS_6vectorIiNS_9allocatorIiEEEET0_EUliE1_FviEEE, 
                       __ZTINSt3__110__function6__funcIZN3mlx4core12reduction_opIsiNS3_9SumReduceEEEvRKNS3_5arrayERS6_RKNS_6vectorIiNS_9allocatorIiEEEET0_EUliE_FviEEE, 
                       __ZTINSt3__110__function6__funcIZN3mlx4core12reduction_opIttNS3_9MaxReduceEEEvRKNS3_5arrayERS6_RKNS_6vectorIiNS_9allocatorIiEEEET0_EUliE0_FviEEE, 
                       __ZTINSt3__110__function6__funcIZN3mlx4core12reduction_opIttNS3_9MaxReduceEEEvRKNS3_5arrayERS6_RKNS_6vectorIiNS_9allocatorIiEEEET0_EUliE1_FviEEE, 
                       __ZTINSt3__110__function6__funcIZN3mlx4core12reduction_opIttNS3_9MaxReduceEEEvRKNS3_5arrayERS6_RKNS_6vectorIiNS_9allocatorIiEEEET0_EUliE_FviEEE, 
                       __ZTINSt3__110__function6__funcIZN3mlx4core12reduction_opIttNS3_9MinReduceEEEvRKNS3_5arrayERS6_RKNS_6vectorIiNS_9allocatorIiEEEET0_EUliE0_FviEEE, 
                       __ZTINSt3__110__function6__funcIZN3mlx4core12reduction_opIttNS3_9MinReduceEEEvRKNS3_5arrayERS6_RKNS_6vectorIiNS_9allocatorIiEEEET0_EUliE1_FviEEE, 
                       __ZTINSt3__110__function6__funcIZN3mlx4core12reduction_opIttNS3_9MinReduceEEEvRKNS3_5arrayERS6_RKNS_6vectorIiNS_9allocatorIiEEEET0_EUliE_FviEEE, 
                       __ZTINSt3__110__function6__funcIZN3mlx4core12reduction_opIxbNS3_8OrReduceEEEvRKNS3_5arrayERS6_RKNS_6vectorIiNS_9allocatorIiEEEET0_EUliE0_FviEEE, 
                       __ZTINSt3__110__function6__funcIZN3mlx4core12reduction_opIxbNS3_8OrReduceEEEvRKNS3_5arrayERS6_RKNS_6vectorIiNS_9allocatorIiEEEET0_EUliE1_FviEEE, 
                       __ZTINSt3__110__function6__funcIZN3mlx4core12reduction_opIxbNS3_8OrReduceEEEvRKNS3_5arrayERS6_RKNS_6vectorIiNS_9allocatorIiEEEET0_EUliE_FviEEE, 
                       __ZTINSt3__110__function6__funcIZN3mlx4core12reduction_opIxbNS3_9AndReduceEEEvRKNS3_5arrayERS6_RKNS_6vectorIiNS_9allocatorIiEEEET0_EUliE0_FviEEE, 
                       __ZTINSt3__110__function6__funcIZN3mlx4core12reduction_opIxbNS3_9AndReduceEEEvRKNS3_5arrayERS6_RKNS_6vectorIiNS_9allocatorIiEEEET0_EUliE1_FviEEE, 
                       __ZTINSt3__110__function6__funcIZN3mlx4core12reduction_opIxbNS3_9AndReduceEEEvRKNS3_5arrayERS6_RKNS_6vectorIiNS_9allocatorIiEEEET0_EUliE_FviEEE, 
                       __ZTINSt3__110__function6__funcIZN3mlx4core12reduction_opIxxNS3_10ProdReduceEEEvRKNS3_5arrayERS6_RKNS_6vectorIiNS_9allocatorIiEEEET0_EUliE0_FviEEE, 
                       __ZTINSt3__110__function6__funcIZN3mlx4core12reduction_opIxxNS3_10ProdReduceEEEvRKNS3_5arrayERS6_RKNS_6vectorIiNS_9allocatorIiEEEET0_EUliE1_FviEEE, 
                       __ZTINSt3__110__function6__funcIZN3mlx4core12reduction_opIxxNS3_10ProdReduceEEEvRKNS3_5arrayERS6_RKNS_6vectorIiNS_9allocatorIiEEEET0_EUliE_FviEEE, 
                       __ZTINSt3__110__function6__funcIZN3mlx4core12reduction_opIxxNS3_9MaxReduceEEEvRKNS3_5arrayERS6_RKNS_6vectorIiNS_9allocatorIiEEEET0_EUliE0_FviEEE, 
                       __ZTINSt3__110__function6__funcIZN3mlx4core12reduction_opIxxNS3_9MaxReduceEEEvRKNS3_5arrayERS6_RKNS_6vectorIiNS_9allocatorIiEEEET0_EUliE1_FviEEE, 
                       __ZTINSt3__110__function6__funcIZN3mlx4core12reduction_opIxxNS3_9MaxReduceEEEvRKNS3_5arrayERS6_RKNS_6vectorIiNS_9allocatorIiEEEET0_EUliE_FviEEE, 
                       __ZTINSt3__110__function6__funcIZN3mlx4core12reduction_opIxxNS3_9MinReduceEEEvRKNS3_5arrayERS6_RKNS_6vectorIiNS_9allocatorIiEEEET0_EUliE0_FviEEE, 
                       __ZTINSt3__110__function6__funcIZN3mlx4core12reduction_opIxxNS3_9MinReduceEEEvRKNS3_5arrayERS6_RKNS_6vectorIiNS_9allocatorIiEEEET0_EUliE1_FviEEE, 
                       __ZTINSt3__110__function6__funcIZN3mlx4core12reduction_opIxxNS3_9MinReduceEEEvRKNS3_5arrayERS6_RKNS_6vectorIiNS_9allocatorIiEEEET0_EUliE_FviEEE, 
                       __ZTINSt3__110__function6__funcIZN3mlx4core12reduction_opIxxNS3_9SumReduceEEEvRKNS3_5arrayERS6_RKNS_6vectorIiNS_9allocatorIiEEEET0_EUliE0_FviEEE, 
                       __ZTINSt3__110__function6__funcIZN3mlx4core12reduction_opIxxNS3_9SumReduceEEEvRKNS3_5arrayERS6_RKNS_6vectorIiNS_9allocatorIiEEEET0_EUliE1_FviEEE, 
                       __ZTINSt3__110__function6__funcIZN3mlx4core12reduction_opIxxNS3_9SumReduceEEEvRKNS3_5arrayERS6_RKNS_6vectorIiNS_9allocatorIiEEEET0_EUliE_FviEEE, 
                       __ZTINSt3__110__function6__funcIZN3mlx4core12reduction_opIyyNS3_9MaxReduceEEEvRKNS3_5arrayERS6_RKNS_6vectorIiNS_9allocatorIiEEEET0_EUliE0_FviEEE, 
                       __ZTINSt3__110__function6__funcIZN3mlx4core12reduction_opIyyNS3_9MaxReduceEEEvRKNS3_5arrayERS6_RKNS_6vectorIiNS_9allocatorIiEEEET0_EUliE1_FviEEE, 
                       __ZTINSt3__110__function6__funcIZN3mlx4core12reduction_opIyyNS3_9MaxReduceEEEvRKNS3_5arrayERS6_RKNS_6vectorIiNS_9allocatorIiEEEET0_EUliE_FviEEE, 
                       __ZTINSt3__110__function6__funcIZN3mlx4core12reduction_opIyyNS3_9MinReduceEEEvRKNS3_5arrayERS6_RKNS_6vectorIiNS_9allocatorIiEEEET0_EUliE0_FviEEE, 
                       __ZTINSt3__110__function6__funcIZN3mlx4core12reduction_opIyyNS3_9MinReduceEEEvRKNS3_5arrayERS6_RKNS_6vectorIiNS_9allocatorIiEEEET0_EUliE1_FviEEE, 
                       __ZTINSt3__110__function6__funcIZN3mlx4core12reduction_opIyyNS3_9MinReduceEEEvRKNS3_5arrayERS6_RKNS_6vectorIiNS_9allocatorIiEEEET0_EUliE_FviEEE, 
                       __ZTINSt3__110__function6__funcIZN9pocketfft6detail9threading10thread_mapIZNS3_10general_ndINS3_11pocketfft_cIfEENS3_5cmplxIfEEfNS3_7ExecC2CEEEvRKNS3_6cndarrIT0_EERNS3_5ndarrISD_EERKNS_6vectorImNS_9allocatorImEEEET1_mRKT2_bEUlvE_EEvmT_EUlvE_FvvEEE, 
                       __ZTINSt3__110__function6__funcIZN9pocketfft6detail9threading10thread_mapIZNS3_11general_c2rIfEEvRKNS3_6cndarrINS3_5cmplxIT_EEEERNS3_5ndarrIS9_EEmbS9_mEUlvE_EEvmS9_EUlvE_FvvEEE, 
                       __ZTINSt3__110__function6__funcIZN9pocketfft6detail9threading10thread_mapIZNS3_11general_r2cIfEEvRKNS3_6cndarrIT_EERNS3_5ndarrINS3_5cmplxIS8_EEEEmbS8_mEUlvE_EEvmS8_EUlvE_FvvEEE, 
                       __ZTINSt3__111__alternateIcEE, __ZTINSt3__111__end_stateIcEE, 
                       __ZTINSt3__111__lookaheadIcNS_12regex_traitsIcEEEE, __ZTINSt3__111__match_anyIcEE, 
                       __ZTINSt3__112__match_charIcEE, __ZTINSt3__113__empty_stateIcEE, 
                       __ZTINSt3__115__has_one_stateIcEE, __ZTINSt3__115__word_boundaryIcNS_12regex_traitsIcEEEE, 
                       __ZTINSt3__116__back_ref_icaseIcNS_12regex_traitsIcEEEE, __ZTINSt3__116__owns_one_stateIcEE, 
                       __ZTINSt3__117__owns_two_statesIcEE, __ZTINSt3__117__repeat_one_loopIcEE, 
                       __ZTINSt3__118__back_ref_collateIcNS_12regex_traitsIcEEEE, 
                       __ZTINSt3__118__match_char_icaseIcNS_12regex_traitsIcEEEE, 
                       __ZTINSt3__118__weak_result_typeIPFiPKvPviS3_S3_S3_EEE, __ZTINSt3__118__weak_result_typeIPFiPKviPvS3_iS3_S3_EEE, 
                       __ZTINSt3__118__weak_result_typeIPFiPKviPviiS3_EEE, __ZTINSt3__118__weak_result_typeIZN3mlx4core12inverse_implIdEEvRKNS2_5arrayERS4_bbNS2_6StreamEEUlvE0_EE, 
                       __ZTINSt3__118__weak_result_typeIZN3mlx4core12inverse_implIdEEvRKNS2_5arrayERS4_bbNS2_6StreamEEUlvE_EE, 
                       __ZTINSt3__118__weak_result_typeIZN3mlx4core12inverse_implIfEEvRKNS2_5arrayERS4_bbNS2_6StreamEEUlvE0_EE, 
                       __ZTINSt3__118__weak_result_typeIZN3mlx4core12inverse_implIfEEvRKNS2_5arrayERS4_bbNS2_6StreamEEUlvE_EE, 
                       __ZTINSt3__118__weak_result_typeIZN3mlx4core12unary_signedINS2_6detail3AbsEEEvRKNS2_5arrayERS6_T_NS2_6StreamEEUlvE_EE, 
                       __ZTINSt3__118__weak_result_typeIZN3mlx4core13cholesky_implIdEEvRKNS2_5arrayERS4_bNS2_6StreamEEUlvE_EE, 
                       __ZTINSt3__118__weak_result_typeIZN3mlx4core13cholesky_implIfEEvRKNS2_5arrayERS4_bNS2_6StreamEEUlvE_EE, 
                       __ZTINSt3__118__weak_result_typeIZN3mlx4core13unary_complexINS2_6detail9ConjugateEEEvRKNS2_5arrayERS6_T_NS2_6StreamEEUlvE_EE, 
                       __ZTINSt3__118__weak_result_typeIZN3mlx4core13unary_real_fpINS2_6detail3ErfEEEvRKNS2_5arrayERS6_T_NS2_6StreamEEUlvE_EE, 
                       __ZTINSt3__118__weak_result_typeIZN3mlx4core13unary_real_fpINS2_6detail6ErfInvEEEvRKNS2_5arrayERS6_T_NS2_6StreamEEUlvE_EE, 
                       __ZTINSt3__118__weak_result_typeIZN3mlx4core15matmul_dispatchINS2_12_MLX_Float16EEEvRKNS2_5arrayES7_RS5_bbmmffNS2_6StreamEEUlvE_EE, 
                       __ZTINSt3__118__weak_result_typeIZN3mlx4core15matmul_dispatchINS2_13_MLX_BFloat16EEEvRKNS2_5arrayES7_RS5_bbmmffNS2_6StreamEEUlvE_EE, 
                       __ZTINSt3__118__weak_result_typeIZN3mlx4core15matmul_dispatchIdEEvRKNS2_5arrayES6_RS4_bbmmffNS2_6StreamEEUlvE_EE, 
                       __ZTINSt3__118__weak_result_typeIZN3mlx4core15matmul_dispatchIfEEvRKNS2_5arrayES6_RS4_bbmmffNS2_6StreamEEUlvE_EE, 
                       __ZTINSt3__118__weak_result_typeIZN3mlx4core22unary_complex_to_floatINS2_6detail4ImagEEEvRKNS2_5arrayERS6_T_NS2_6StreamEEUlvE_EE, 
                       __ZTINSt3__118__weak_result_typeIZN3mlx4core22unary_complex_to_floatINS2_6detail4RealEEEvRKNS2_5arrayERS6_T_NS2_6StreamEEUlvE_EE, 
                       __ZTINSt3__118__weak_result_typeIZN3mlx4core5unaryINS2_6detail10LogicalNotEEEvRKNS2_5arrayERS6_T_NS2_6StreamEEUlvE_EE, 
                       __ZTINSt3__118__weak_result_typeIZN3mlx4core5unaryINS2_6detail4SignEEEvRKNS2_5arrayERS6_T_NS2_6StreamEEUlvE_EE, 
                       __ZTINSt3__118__weak_result_typeIZN3mlx4core5unaryINS2_6detail6SquareEEEvRKNS2_5arrayERS6_T_NS2_6StreamEEUlvE_EE, 
                       __ZTINSt3__118__weak_result_typeIZN3mlx4core5unaryINS2_6detail8NegativeEEEvRKNS2_5arrayERS6_T_NS2_6StreamEEUlvE_EE, 
                       __ZTINSt3__118__weak_result_typeIZN3mlx4core8hadamardINS2_12_MLX_Float16EEEvRNS2_5arrayEiifNS2_6StreamEEUlvE_EE, 
                       __ZTINSt3__118__weak_result_typeIZN3mlx4core8hadamardINS2_13_MLX_BFloat16EEEvRNS2_5arrayEiifNS2_6StreamEEUlvE_EE, 
                       __ZTINSt3__118__weak_result_typeIZN3mlx4core8hadamardIfEEvRNS2_5arrayEiifNS2_6StreamEEUlvE_EE, 
                       __ZTINSt3__118__weak_result_typeIZN3mlx4core8luf_implIdEEvRKNS2_5arrayERS4_S7_S7_NS2_6StreamEEUlvE_EE, 
                       __ZTINSt3__118__weak_result_typeIZN3mlx4core8luf_implIfEEvRKNS2_5arrayERS4_S7_S7_NS2_6StreamEEUlvE_EE, 
                       __ZTINSt3__118__weak_result_typeIZN3mlx4core8qrf_implIdEEvRKNS2_5arrayERS4_S7_NS2_6StreamEEUlvE_EE, 
                       __ZTINSt3__118__weak_result_typeIZN3mlx4core8qrf_implIfEEvRKNS2_5arrayERS4_S7_NS2_6StreamEEUlvE_EE, 
                       __ZTINSt3__118__weak_result_typeIZN3mlx4core8svd_implIdEEvRKNS2_5arrayERNS_6vectorIS4_NS_9allocatorIS4_EEEEbNS2_6StreamEEUlvE_EE, 
                       __ZTINSt3__118__weak_result_typeIZN3mlx4core8svd_implIfEEvRKNS2_5arrayERNS_6vectorIS4_NS_9allocatorIS4_EEEEbNS2_6StreamEEUlvE_EE, 
                       __ZTINSt3__118__weak_result_typeIZN3mlx4core8unary_fpINS2_6detail3CosEEEvRKNS2_5arrayERS6_T_NS2_6StreamEEUlvE_EE, 
                       __ZTINSt3__118__weak_result_typeIZN3mlx4core8unary_fpINS2_6detail3ExpEEEvRKNS2_5arrayERS6_T_NS2_6StreamEEUlvE_EE, 
                       __ZTINSt3__118__weak_result_typeIZN3mlx4core8unary_fpINS2_6detail3LogEEEvRKNS2_5arrayERS6_T_NS2_6StreamEEUlvE_EE, 
                       __ZTINSt3__118__weak_result_typeIZN3mlx4core8unary_fpINS2_6detail3SinEEEvRKNS2_5arrayERS6_T_NS2_6StreamEEUlvE_EE, 
                       __ZTINSt3__118__weak_result_typeIZN3mlx4core8unary_fpINS2_6detail3TanEEEvRKNS2_5arrayERS6_T_NS2_6StreamEEUlvE_EE, 
                       __ZTINSt3__118__weak_result_typeIZN3mlx4core8unary_fpINS2_6detail4CeilEEEvRKNS2_5arrayERS6_T_NS2_6StreamEEUlvE_EE, 
                       __ZTINSt3__118__weak_result_typeIZN3mlx4core8unary_fpINS2_6detail4CoshEEEvRKNS2_5arrayERS6_T_NS2_6StreamEEUlvE_EE, 
                       __ZTINSt3__118__weak_result_typeIZN3mlx4core8unary_fpINS2_6detail4Log2EEEvRKNS2_5arrayERS6_T_NS2_6StreamEEUlvE_EE, 
                       __ZTINSt3__118__weak_result_typeIZN3mlx4core8unary_fpINS2_6detail4SinhEEEvRKNS2_5arrayERS6_T_NS2_6StreamEEUlvE_EE, 
                       __ZTINSt3__118__weak_result_typeIZN3mlx4core8unary_fpINS2_6detail4SqrtEEEvRKNS2_5arrayERS6_T_NS2_6StreamEEUlvE_EE, 
                       __ZTINSt3__118__weak_result_typeIZN3mlx4core8unary_fpINS2_6detail4TanhEEEvRKNS2_5arrayERS6_T_NS2_6StreamEEUlvE_EE, 
                       __ZTINSt3__118__weak_result_typeIZN3mlx4core8unary_fpINS2_6detail5Expm1EEEvRKNS2_5arrayERS6_T_NS2_6StreamEEUlvE_EE, 
                       __ZTINSt3__118__weak_result_typeIZN3mlx4core8unary_fpINS2_6detail5FloorEEEvRKNS2_5arrayERS6_T_NS2_6StreamEEUlvE_EE, 
                       __ZTINSt3__118__weak_result_typeIZN3mlx4core8unary_fpINS2_6detail5Log10EEEvRKNS2_5arrayERS6_T_NS2_6StreamEEUlvE_EE, 
                       __ZTINSt3__118__weak_result_typeIZN3mlx4core8unary_fpINS2_6detail5Log1pEEEvRKNS2_5arrayERS6_T_NS2_6StreamEEUlvE_EE, 
                       __ZTINSt3__118__weak_result_typeIZN3mlx4core8unary_fpINS2_6detail5RoundEEEvRKNS2_5arrayERS6_T_NS2_6StreamEEUlvE_EE, 
                       __ZTINSt3__118__weak_result_typeIZN3mlx4core8unary_fpINS2_6detail5RsqrtEEEvRKNS2_5arrayERS6_T_NS2_6StreamEEUlvE_EE, 
                       __ZTINSt3__118__weak_result_typeIZN3mlx4core8unary_fpINS2_6detail6ArcCosEEEvRKNS2_5arrayERS6_T_NS2_6StreamEEUlvE_EE, 
                       __ZTINSt3__118__weak_result_typeIZN3mlx4core8unary_fpINS2_6detail6ArcSinEEEvRKNS2_5arrayERS6_T_NS2_6StreamEEUlvE_EE, 
                       __ZTINSt3__118__weak_result_typeIZN3mlx4core8unary_fpINS2_6detail6ArcTanEEEvRKNS2_5arrayERS6_T_NS2_6StreamEEUlvE_EE, 
                       __ZTINSt3__118__weak_result_typeIZN3mlx4core8unary_fpINS2_6detail7ArcCoshEEEvRKNS2_5arrayERS6_T_NS2_6StreamEEUlvE_EE, 
                       __ZTINSt3__118__weak_result_typeIZN3mlx4core8unary_fpINS2_6detail7ArcSinhEEEvRKNS2_5arrayERS6_T_NS2_6StreamEEUlvE_EE, 
                       __ZTINSt3__118__weak_result_typeIZN3mlx4core8unary_fpINS2_6detail7ArcTanhEEEvRKNS2_5arrayERS6_T_NS2_6StreamEEUlvE_EE, 
                       __ZTINSt3__118__weak_result_typeIZN3mlx4core8unary_fpINS2_6detail7SigmoidEEEvRKNS2_5arrayERS6_T_NS2_6StreamEEUlvE_EE, 
                       __ZTINSt3__118__weak_result_typeIZN3mlx4core9unary_intINS2_6detail13BitwiseInvertEEEvRKNS2_5arrayERS6_T_NS2_6StreamEEUlvE_EE, 
                       __ZTINSt3__120__bracket_expressionIcNS_12regex_traitsIcEEEE, 
                       __ZTINSt3__120__l_anchor_multilineIcEE, __ZTINSt3__120__match_char_collateIcNS_12regex_traitsIcEEEE, 
                       __ZTINSt3__120__packaged_task_baseIFbvEEE, __ZTINSt3__120__packaged_task_baseIFvvEEE, 
                       __ZTINSt3__120__packaged_task_funcINS_6__bindINS1_IMN3mlx4core11distributed4ring9RingGroupEFvPKcPcmmiiiEJPS6_S8_S9_RKmmRiSF_iEEEJEEENS_9allocatorISH_EEFvvEEE, 
                       __ZTINSt3__120__r_anchor_multilineIcEE, __ZTINSt3__120__shared_ptr_emplaceIN3mlx4core10ContiguousENS_9allocatorIS3_EEEE, 
                       __ZTINSt3__120__shared_ptr_emplaceIN3mlx4core10ExpandDimsENS_9allocatorIS3_EEEE, 
                       __ZTINSt3__120__shared_ptr_emplaceIN3mlx4core10GatherAxisENS_9allocatorIS3_EEEE, 
                       __ZTINSt3__120__shared_ptr_emplaceIN3mlx4core10LogicalAndENS_9allocatorIS3_EEEE, 
                       __ZTINSt3__120__shared_ptr_emplaceIN3mlx4core10LogicalNotENS_9allocatorIS3_EEEE, 
                       __ZTINSt3__120__shared_ptr_emplaceIN3mlx4core10RandomBitsENS_9allocatorIS3_EEEE, 
                       __ZTINSt3__120__shared_ptr_emplaceIN3mlx4core11ConcatenateENS_9allocatorIS3_EEEE, 
                       __ZTINSt3__120__shared_ptr_emplaceIN3mlx4core11ConvolutionENS_9allocatorIS3_EEEE, 
                       __ZTINSt3__120__shared_ptr_emplaceIN3mlx4core11ScatterAxisENS_9allocatorIS3_EEEE, 
                       __ZTINSt3__120__shared_ptr_emplaceIN3mlx4core11SliceUpdateENS_9allocatorIS3_EEEE, 
                       __ZTINSt3__120__shared_ptr_emplaceIN3mlx4core11distributed3mpi8MPIGroupENS_9allocatorIS5_EEEE, 
                       __ZTINSt3__120__shared_ptr_emplaceIN3mlx4core11distributed4RecvENS_9allocatorIS4_EEEE, 
                       __ZTINSt3__120__shared_ptr_emplaceIN3mlx4core11distributed4SendENS_9allocatorIS4_EEEE, 
                       __ZTINSt3__120__shared_ptr_emplaceIN3mlx4core11distributed4ring9RingGroupENS_9allocatorIS5_EEEE, 
                       __ZTINSt3__120__shared_ptr_emplaceIN3mlx4core11distributed6detail10EmptyGroupENS_9allocatorIS5_EEEE, 
                       __ZTINSt3__120__shared_ptr_emplaceIN3mlx4core11distributed9AllGatherENS_9allocatorIS4_EEEE, 
                       __ZTINSt3__120__shared_ptr_emplaceIN3mlx4core11distributed9AllReduceENS_9allocatorIS4_EEEE, 
                       __ZTINSt3__120__shared_ptr_emplaceIN3mlx4core12ArgPartitionENS_9allocatorIS3_EEEE, 
                       __ZTINSt3__120__shared_ptr_emplaceIN3mlx4core12DynamicSliceENS_9allocatorIS3_EEEE, 
                       __ZTINSt3__120__shared_ptr_emplaceIN3mlx4core12GreaterEqualENS_9allocatorIS3_EEEE, 
                       __ZTINSt3__120__shared_ptr_emplaceIN3mlx4core12StopGradientENS_9allocatorIS3_EEEE, 
                       __ZTINSt3__120__shared_ptr_emplaceIN3mlx4core12SynchronizerENS_9allocatorIS3_EEEE, 
                       __ZTINSt3__120__shared_ptr_emplaceIN3mlx4core13BitwiseBinaryENS_9allocatorIS3_EEEE, 
                       __ZTINSt3__120__shared_ptr_emplaceIN3mlx4core13BitwiseInvertENS_9allocatorIS3_EEEE, 
                       __ZTINSt3__120__shared_ptr_emplaceIN3mlx4core13BlockMaskedMMENS_9allocatorIS3_EEEE, 
                       __ZTINSt3__120__shared_ptr_emplaceIN3mlx4core13BroadcastAxesENS_9allocatorIS3_EEEE, 
                       __ZTINSt3__120__shared_ptr_emplaceIN3mlx4core13FunctionTableENS_9allocatorIS3_EEEE, 
                       __ZTINSt3__120__shared_ptr_emplaceIN3mlx4core14LoadMultiSliceENS_9allocatorIS3_EEEE, 
                       __ZTINSt3__120__shared_ptr_emplaceIN3mlx4core15QuantizedMatmulENS_9allocatorIS3_EEEE, 
                       __ZTINSt3__120__shared_ptr_emplaceIN3mlx4core16CustomTransformsENS_9allocatorIS3_EEEE, 
                       __ZTINSt3__120__shared_ptr_emplaceIN3mlx4core16NumberOfElementsENS_9allocatorIS3_EEEE, 
                       __ZTINSt3__120__shared_ptr_emplaceIN3mlx4core18DynamicSliceUpdateENS_9allocatorIS3_EEEE, 
                       __ZTINSt3__120__shared_ptr_emplaceIN3mlx4core2io10FileWriterENS_9allocatorIS4_EEEE, 
                       __ZTINSt3__120__shared_ptr_emplaceIN3mlx4core2io16SlicedFileReaderENS_9allocatorIS4_EEEE, 
                       __ZTINSt3__120__shared_ptr_emplaceIN3mlx4core2io18ParallelFileReaderENS_9allocatorIS4_EEEE, 
                       __ZTINSt3__120__shared_ptr_emplaceIN3mlx4core3AbsENS_9allocatorIS3_EEEE, 
                       __ZTINSt3__120__shared_ptr_emplaceIN3mlx4core3AddENS_9allocatorIS3_EEEE, 
                       __ZTINSt3__120__shared_ptr_emplaceIN3mlx4core3CosENS_9allocatorIS3_EEEE, 
                       __ZTINSt3__120__shared_ptr_emplaceIN3mlx4core3ErfENS_9allocatorIS3_EEEE, 
                       __ZTINSt3__120__shared_ptr_emplaceIN3mlx4core3ExpENS_9allocatorIS3_EEEE, 
                       __ZTINSt3__120__shared_ptr_emplaceIN3mlx4core3FFTENS_9allocatorIS3_EEEE, 
                       __ZTINSt3__120__shared_ptr_emplaceIN3mlx4core3LUFENS_9allocatorIS3_EEEE, 
                       __ZTINSt3__120__shared_ptr_emplaceIN3mlx4core3LogENS_9allocatorIS3_EEEE, 
                       __ZTINSt3__120__shared_ptr_emplaceIN3mlx4core3PadENS_9allocatorIS3_EEEE, 
                       __ZTINSt3__120__shared_ptr_emplaceIN3mlx4core3QRFENS_9allocatorIS3_EEEE, 
                       __ZTINSt3__120__shared_ptr_emplaceIN3mlx4core3SVDENS_9allocatorIS3_EEEE, 
                       __ZTINSt3__120__shared_ptr_emplaceIN3mlx4core3SinENS_9allocatorIS3_EEEE, 
                       __ZTINSt3__120__shared_ptr_emplaceIN3mlx4core3TanENS_9allocatorIS3_EEEE, 
                       __ZTINSt3__120__shared_ptr_emplaceIN3mlx4core4CeilENS_9allocatorIS3_EEEE, 
                       __ZTINSt3__120__shared_ptr_emplaceIN3mlx4core4CopyENS_9allocatorIS3_EEEE, 
                       __ZTINSt3__120__shared_ptr_emplaceIN3mlx4core4CoshENS_9allocatorIS3_EEEE, 
                       __ZTINSt3__120__shared_ptr_emplaceIN3mlx4core4EighENS_9allocatorIS3_EEEE, 
                       __ZTINSt3__120__shared_ptr_emplaceIN3mlx4core4FullENS_9allocatorIS3_EEEE, 
                       __ZTINSt3__120__shared_ptr_emplaceIN3mlx4core4ImagENS_9allocatorIS3_EEEE, 
                       __ZTINSt3__120__shared_ptr_emplaceIN3mlx4core4LessENS_9allocatorIS3_EEEE, 
                       __ZTINSt3__120__shared_ptr_emplaceIN3mlx4core4LoadENS_9allocatorIS3_EEEE, 
                       __ZTINSt3__120__shared_ptr_emplaceIN3mlx4core4RealENS_9allocatorIS3_EEEE, 
                       __ZTINSt3__120__shared_ptr_emplaceIN3mlx4core4ScanENS_9allocatorIS3_EEEE, 
                       __ZTINSt3__120__shared_ptr_emplaceIN3mlx4core4SignENS_9allocatorIS3_EEEE, 
                       __ZTINSt3__120__shared_ptr_emplaceIN3mlx4core4SinhENS_9allocatorIS3_EEEE, 
                       __ZTINSt3__120__shared_ptr_emplaceIN3mlx4core4SortENS_9allocatorIS3_EEEE, 
                       __ZTINSt3__120__shared_ptr_emplaceIN3mlx4core4SqrtENS_9allocatorIS3_EEEE, 
                       __ZTINSt3__120__shared_ptr_emplaceIN3mlx4core4TanhENS_9allocatorIS3_EEEE, 
                       __ZTINSt3__120__shared_ptr_emplaceIN3mlx4core4ViewENS_9allocatorIS3_EEEE, 
                       __ZTINSt3__120__shared_ptr_emplaceIN3mlx4core4fast10RMSNormVJPENS_9allocatorIS4_EEEE, 
                       __ZTINSt3__120__shared_ptr_emplaceIN3mlx4core4fast12CustomKernelENS_9allocatorIS4_EEEE, 
                       __ZTINSt3__120__shared_ptr_emplaceIN3mlx4core4fast12LayerNormVJPENS_9allocatorIS4_EEEE, 
                       __ZTINSt3__120__shared_ptr_emplaceIN3mlx4core4fast14AffineQuantizeENS_9allocatorIS4_EEEE, 
                       __ZTINSt3__120__shared_ptr_emplaceIN3mlx4core4fast25ScaledDotProductAttentionENS_9allocatorIS4_EEEE, 
                       __ZTINSt3__120__shared_ptr_emplaceIN3mlx4core4fast4RoPEENS_9allocatorIS4_EEEE, 
                       __ZTINSt3__120__shared_ptr_emplaceIN3mlx4core4fast7RMSNormENS_9allocatorIS4_EEEE, 
                       __ZTINSt3__120__shared_ptr_emplaceIN3mlx4core4fast9LayerNormENS_9allocatorIS4_EEEE, 
                       __ZTINSt3__120__shared_ptr_emplaceIN3mlx4core5AddMMENS_9allocatorIS3_EEEE, 
                       __ZTINSt3__120__shared_ptr_emplaceIN3mlx4core5EqualENS_9allocatorIS3_EEEE, 
                       __ZTINSt3__120__shared_ptr_emplaceIN3mlx4core5Expm1ENS_9allocatorIS3_EEEE, 
                       __ZTINSt3__120__shared_ptr_emplaceIN3mlx4core5FloorENS_9allocatorIS3_EEEE, 
                       __ZTINSt3__120__shared_ptr_emplaceIN3mlx4core5Log1pENS_9allocatorIS3_EEEE, 
                       __ZTINSt3__120__shared_ptr_emplaceIN3mlx4core5PowerENS_9allocatorIS3_EEEE, 
                       __ZTINSt3__120__shared_ptr_emplaceIN3mlx4core5RoundENS_9allocatorIS3_EEEE, 
                       __ZTINSt3__120__shared_ptr_emplaceIN3mlx4core5SliceENS_9allocatorIS3_EEEE, 
                       __ZTINSt3__120__shared_ptr_emplaceIN3mlx4core5SplitENS_9allocatorIS3_EEEE, 
                       __ZTINSt3__120__shared_ptr_emplaceIN3mlx4core5array4DataENS_9allocatorIS4_EEEE, 
                       __ZTINSt3__120__shared_ptr_emplaceIN3mlx4core5array9ArrayDescENS_9allocatorIS4_EEEE, 
                       __ZTINSt3__120__shared_ptr_emplaceIN3mlx4core5metal5FenceENS_9allocatorIS4_EEEE, 
                       __ZTINSt3__120__shared_ptr_emplaceIN3mlx4core6ArangeENS_9allocatorIS3_EEEE, 
                       __ZTINSt3__120__shared_ptr_emplaceIN3mlx4core6ArcCosENS_9allocatorIS3_EEEE, 
                       __ZTINSt3__120__shared_ptr_emplaceIN3mlx4core6ArcSinENS_9allocatorIS3_EEEE, 
                       __ZTINSt3__120__shared_ptr_emplaceIN3mlx4core6ArcTanENS_9allocatorIS3_EEEE, 
                       __ZTINSt3__120__shared_ptr_emplaceIN3mlx4core6AsTypeENS_9allocatorIS3_EEEE, 
                       __ZTINSt3__120__shared_ptr_emplaceIN3mlx4core6DivModENS_9allocatorIS3_EEEE, 
                       __ZTINSt3__120__shared_ptr_emplaceIN3mlx4core6DivideENS_9allocatorIS3_EEEE, 
                       __ZTINSt3__120__shared_ptr_emplaceIN3mlx4core6ErfInvENS_9allocatorIS3_EEEE, 
                       __ZTINSt3__120__shared_ptr_emplaceIN3mlx4core6GatherENS_9allocatorIS3_EEEE, 
                       __ZTINSt3__120__shared_ptr_emplaceIN3mlx4core6MatmulENS_9allocatorIS3_EEEE, 
                       __ZTINSt3__120__shared_ptr_emplaceIN3mlx4core6ReduceENS_9allocatorIS3_EEEE, 
                       __ZTINSt3__120__shared_ptr_emplaceIN3mlx4core6SelectENS_9allocatorIS3_EEEE, 
                       __ZTINSt3__120__shared_ptr_emplaceIN3mlx4core6SquareENS_9allocatorIS3_EEEE, 
                       __ZTINSt3__120__shared_ptr_emplaceIN3mlx4core7ArcCoshENS_9allocatorIS3_EEEE, 
                       __ZTINSt3__120__shared_ptr_emplaceIN3mlx4core7ArcSinhENS_9allocatorIS3_EEEE, 
                       __ZTINSt3__120__shared_ptr_emplaceIN3mlx4core7ArcTan2ENS_9allocatorIS3_EEEE, 
                       __ZTINSt3__120__shared_ptr_emplaceIN3mlx4core7ArcTanhENS_9allocatorIS3_EEEE, 
                       __ZTINSt3__120__shared_ptr_emplaceIN3mlx4core7ArgSortENS_9allocatorIS3_EEEE, 
                       __ZTINSt3__120__shared_ptr_emplaceIN3mlx4core7DependsENS_9allocatorIS3_EEEE, 
                       __ZTINSt3__120__shared_ptr_emplaceIN3mlx4core7FlattenENS_9allocatorIS3_EEEE, 
                       __ZTINSt3__120__shared_ptr_emplaceIN3mlx4core7GreaterENS_9allocatorIS3_EEEE, 
                       __ZTINSt3__120__shared_ptr_emplaceIN3mlx4core7InverseENS_9allocatorIS3_EEEE, 
                       __ZTINSt3__120__shared_ptr_emplaceIN3mlx4core7MaximumENS_9allocatorIS3_EEEE, 
                       __ZTINSt3__120__shared_ptr_emplaceIN3mlx4core7MinimumENS_9allocatorIS3_EEEE, 
                       __ZTINSt3__120__shared_ptr_emplaceIN3mlx4core7ReshapeENS_9allocatorIS3_EEEE, 
                       __ZTINSt3__120__shared_ptr_emplaceIN3mlx4core7ScatterENS_9allocatorIS3_EEEE, 
                       __ZTINSt3__120__shared_ptr_emplaceIN3mlx4core7SigmoidENS_9allocatorIS3_EEEE, 
                       __ZTINSt3__120__shared_ptr_emplaceIN3mlx4core7SoftmaxENS_9allocatorIS3_EEEE, 
                       __ZTINSt3__120__shared_ptr_emplaceIN3mlx4core7SqueezeENS_9allocatorIS3_EEEE, 
                       __ZTINSt3__120__shared_ptr_emplaceIN3mlx4core8CholeskyENS_9allocatorIS3_EEEE, 
                       __ZTINSt3__120__shared_ptr_emplaceIN3mlx4core8CompiledENS_9allocatorIS3_EEEE, 
                       __ZTINSt3__120__shared_ptr_emplaceIN3mlx4core8GatherMMENS_9allocatorIS3_EEEE, 
                       __ZTINSt3__120__shared_ptr_emplaceIN3mlx4core8HadamardENS_9allocatorIS3_EEEE, 
                       __ZTINSt3__120__shared_ptr_emplaceIN3mlx4core8MultiplyENS_9allocatorIS3_EEEE, 
                       __ZTINSt3__120__shared_ptr_emplaceIN3mlx4core8NegativeENS_9allocatorIS3_EEEE, 
                       __ZTINSt3__120__shared_ptr_emplaceIN3mlx4core8NotEqualENS_9allocatorIS3_EEEE, 
                       __ZTINSt3__120__shared_ptr_emplaceIN3mlx4core8SubtractENS_9allocatorIS3_EEEE, 
                       __ZTINSt3__120__shared_ptr_emplaceIN3mlx4core9ArgReduceENS_9allocatorIS3_EEEE, 
                       __ZTINSt3__120__shared_ptr_emplaceIN3mlx4core9AsStridedENS_9allocatorIS3_EEEE, 
                       __ZTINSt3__120__shared_ptr_emplaceIN3mlx4core9BroadcastENS_9allocatorIS3_EEEE, 
                       __ZTINSt3__120__shared_ptr_emplaceIN3mlx4core9ConjugateENS_9allocatorIS3_EEEE, 
                       __ZTINSt3__120__shared_ptr_emplaceIN3mlx4core9GatherQMMENS_9allocatorIS3_EEEE, 
                       __ZTINSt3__120__shared_ptr_emplaceIN3mlx4core9LessEqualENS_9allocatorIS3_EEEE, 
                       __ZTINSt3__120__shared_ptr_emplaceIN3mlx4core9LogAddExpENS_9allocatorIS3_EEEE, 
                       __ZTINSt3__120__shared_ptr_emplaceIN3mlx4core9LogSumExpENS_9allocatorIS3_EEEE, 
                       __ZTINSt3__120__shared_ptr_emplaceIN3mlx4core9LogicalOrENS_9allocatorIS3_EEEE, 
                       __ZTINSt3__120__shared_ptr_emplaceIN3mlx4core9PartitionENS_9allocatorIS3_EEEE, 
                       __ZTINSt3__120__shared_ptr_emplaceIN3mlx4core9RemainderENS_9allocatorIS3_EEEE, 
                       __ZTINSt3__120__shared_ptr_emplaceIN3mlx4core9TransposeENS_9allocatorIS3_EEEE, 
                       __ZTINSt3__120__shared_ptr_emplaceIN3mlx4core9UnflattenENS_9allocatorIS3_EEEE, 
                       __ZTINSt3__120__shared_ptr_emplaceIN8nlohmann16json_abi_v3_11_36detail21output_string_adapterIcNS_12basic_stringIcNS_11char_traitsIcEENS_9allocatorIcEEEEEENS8_ISB_EEEE, 
                       __ZTINSt3__120__shared_ptr_emplaceIN9pocketfft6detail11pocketfft_cIfEENS_9allocatorIS4_EEEE, 
                       __ZTINSt3__120__shared_ptr_emplaceIN9pocketfft6detail11pocketfft_rIfEENS_9allocatorIS4_EEEE, 
                       __ZTINSt3__120__shared_ptr_emplaceINS_13packaged_taskIFbvEEENS_9allocatorIS3_EEEE, 
                       __ZTINSt3__120__shared_ptr_emplaceINS_13packaged_taskIFvvEEENS_9allocatorIS3_EEEE, 
                       __ZTINSt3__120__shared_ptr_emplaceINS_7promiseIvEENS_9allocatorIS2_EEEE, 
                       __ZTINSt3__120__shared_ptr_pointerIPNS_13__empty_stateIcEENS_10shared_ptrIS2_E27__shared_ptr_default_deleteIS2_S2_EENS_9allocatorIS2_EEEE, 
                       __ZTINSt3__120__shared_ptr_pointerIPvPFvS1_ENS_9allocatorIvEEEE, 
                       __ZTINSt3__121__empty_non_own_stateIcEE, __ZTINSt3__122__weak_result_type_impIZN3mlx4core12inverse_implIdEEvRKNS2_5arrayERS4_bbNS2_6StreamEEUlvE0_Lb0EEE, 
                       __ZTINSt3__122__weak_result_type_impIZN3mlx4core12inverse_implIdEEvRKNS2_5arrayERS4_bbNS2_6StreamEEUlvE_Lb0EEE, 
                       __ZTINSt3__122__weak_result_type_impIZN3mlx4core12inverse_implIfEEvRKNS2_5arrayERS4_bbNS2_6StreamEEUlvE0_Lb0EEE, 
                       __ZTINSt3__122__weak_result_type_impIZN3mlx4core12inverse_implIfEEvRKNS2_5arrayERS4_bbNS2_6StreamEEUlvE_Lb0EEE, 
                       __ZTINSt3__122__weak_result_type_impIZN3mlx4core12unary_signedINS2_6detail3AbsEEEvRKNS2_5arrayERS6_T_NS2_6StreamEEUlvE_Lb0EEE, 
                       __ZTINSt3__122__weak_result_type_impIZN3mlx4core13cholesky_implIdEEvRKNS2_5arrayERS4_bNS2_6StreamEEUlvE_Lb0EEE, 
                       __ZTINSt3__122__weak_result_type_impIZN3mlx4core13cholesky_implIfEEvRKNS2_5arrayERS4_bNS2_6StreamEEUlvE_Lb0EEE, 
                       __ZTINSt3__122__weak_result_type_impIZN3mlx4core13unary_complexINS2_6detail9ConjugateEEEvRKNS2_5arrayERS6_T_NS2_6StreamEEUlvE_Lb0EEE, 
                       __ZTINSt3__122__weak_result_type_impIZN3mlx4core13unary_real_fpINS2_6detail3ErfEEEvRKNS2_5arrayERS6_T_NS2_6StreamEEUlvE_Lb0EEE, 
                       __ZTINSt3__122__weak_result_type_impIZN3mlx4core13unary_real_fpINS2_6detail6ErfInvEEEvRKNS2_5arrayERS6_T_NS2_6StreamEEUlvE_Lb0EEE, 
                       __ZTINSt3__122__weak_result_type_impIZN3mlx4core15matmul_dispatchINS2_12_MLX_Float16EEEvRKNS2_5arrayES7_RS5_bbmmffNS2_6StreamEEUlvE_Lb0EEE, 
                       __ZTINSt3__122__weak_result_type_impIZN3mlx4core15matmul_dispatchINS2_13_MLX_BFloat16EEEvRKNS2_5arrayES7_RS5_bbmmffNS2_6StreamEEUlvE_Lb0EEE, 
                       __ZTINSt3__122__weak_result_type_impIZN3mlx4core15matmul_dispatchIdEEvRKNS2_5arrayES6_RS4_bbmmffNS2_6StreamEEUlvE_Lb0EEE, 
                       __ZTINSt3__122__weak_result_type_impIZN3mlx4core15matmul_dispatchIfEEvRKNS2_5arrayES6_RS4_bbmmffNS2_6StreamEEUlvE_Lb0EEE, 
                       __ZTINSt3__122__weak_result_type_impIZN3mlx4core22unary_complex_to_floatINS2_6detail4ImagEEEvRKNS2_5arrayERS6_T_NS2_6StreamEEUlvE_Lb0EEE, 
                       __ZTINSt3__122__weak_result_type_impIZN3mlx4core22unary_complex_to_floatINS2_6detail4RealEEEvRKNS2_5arrayERS6_T_NS2_6StreamEEUlvE_Lb0EEE, 
                       __ZTINSt3__122__weak_result_type_impIZN3mlx4core5unaryINS2_6detail10LogicalNotEEEvRKNS2_5arrayERS6_T_NS2_6StreamEEUlvE_Lb0EEE, 
                       __ZTINSt3__122__weak_result_type_impIZN3mlx4core5unaryINS2_6detail4SignEEEvRKNS2_5arrayERS6_T_NS2_6StreamEEUlvE_Lb0EEE, 
                       __ZTINSt3__122__weak_result_type_impIZN3mlx4core5unaryINS2_6detail6SquareEEEvRKNS2_5arrayERS6_T_NS2_6StreamEEUlvE_Lb0EEE, 
                       __ZTINSt3__122__weak_result_type_impIZN3mlx4core5unaryINS2_6detail8NegativeEEEvRKNS2_5arrayERS6_T_NS2_6StreamEEUlvE_Lb0EEE, 
                       __ZTINSt3__122__weak_result_type_impIZN3mlx4core8hadamardINS2_12_MLX_Float16EEEvRNS2_5arrayEiifNS2_6StreamEEUlvE_Lb0EEE, 
                       __ZTINSt3__122__weak_result_type_impIZN3mlx4core8hadamardINS2_13_MLX_BFloat16EEEvRNS2_5arrayEiifNS2_6StreamEEUlvE_Lb0EEE, 
                       __ZTINSt3__122__weak_result_type_impIZN3mlx4core8hadamardIfEEvRNS2_5arrayEiifNS2_6StreamEEUlvE_Lb0EEE, 
                       __ZTINSt3__122__weak_result_type_impIZN3mlx4core8luf_implIdEEvRKNS2_5arrayERS4_S7_S7_NS2_6StreamEEUlvE_Lb0EEE, 
                       __ZTINSt3__122__weak_result_type_impIZN3mlx4core8luf_implIfEEvRKNS2_5arrayERS4_S7_S7_NS2_6StreamEEUlvE_Lb0EEE, 
                       __ZTINSt3__122__weak_result_type_impIZN3mlx4core8qrf_implIdEEvRKNS2_5arrayERS4_S7_NS2_6StreamEEUlvE_Lb0EEE, 
                       __ZTINSt3__122__weak_result_type_impIZN3mlx4core8qrf_implIfEEvRKNS2_5arrayERS4_S7_NS2_6StreamEEUlvE_Lb0EEE, 
                       __ZTINSt3__122__weak_result_type_impIZN3mlx4core8svd_implIdEEvRKNS2_5arrayERNS_6vectorIS4_NS_9allocatorIS4_EEEEbNS2_6StreamEEUlvE_Lb0EEE, 
                       __ZTINSt3__122__weak_result_type_impIZN3mlx4core8svd_implIfEEvRKNS2_5arrayERNS_6vectorIS4_NS_9allocatorIS4_EEEEbNS2_6StreamEEUlvE_Lb0EEE, 
                       __ZTINSt3__122__weak_result_type_impIZN3mlx4core8unary_fpINS2_6detail3CosEEEvRKNS2_5arrayERS6_T_NS2_6StreamEEUlvE_Lb0EEE, 
                       __ZTINSt3__122__weak_result_type_impIZN3mlx4core8unary_fpINS2_6detail3ExpEEEvRKNS2_5arrayERS6_T_NS2_6StreamEEUlvE_Lb0EEE, 
                       __ZTINSt3__122__weak_result_type_impIZN3mlx4core8unary_fpINS2_6detail3LogEEEvRKNS2_5arrayERS6_T_NS2_6StreamEEUlvE_Lb0EEE, 
                       __ZTINSt3__122__weak_result_type_impIZN3mlx4core8unary_fpINS2_6detail3SinEEEvRKNS2_5arrayERS6_T_NS2_6StreamEEUlvE_Lb0EEE, 
                       __ZTINSt3__122__weak_result_type_impIZN3mlx4core8unary_fpINS2_6detail3TanEEEvRKNS2_5arrayERS6_T_NS2_6StreamEEUlvE_Lb0EEE, 
                       __ZTINSt3__122__weak_result_type_impIZN3mlx4core8unary_fpINS2_6detail4CeilEEEvRKNS2_5arrayERS6_T_NS2_6StreamEEUlvE_Lb0EEE, 
                       __ZTINSt3__122__weak_result_type_impIZN3mlx4core8unary_fpINS2_6detail4CoshEEEvRKNS2_5arrayERS6_T_NS2_6StreamEEUlvE_Lb0EEE, 
                       __ZTINSt3__122__weak_result_type_impIZN3mlx4core8unary_fpINS2_6detail4Log2EEEvRKNS2_5arrayERS6_T_NS2_6StreamEEUlvE_Lb0EEE, 
                       __ZTINSt3__122__weak_result_type_impIZN3mlx4core8unary_fpINS2_6detail4SinhEEEvRKNS2_5arrayERS6_T_NS2_6StreamEEUlvE_Lb0EEE, 
                       __ZTINSt3__122__weak_result_type_impIZN3mlx4core8unary_fpINS2_6detail4SqrtEEEvRKNS2_5arrayERS6_T_NS2_6StreamEEUlvE_Lb0EEE, 
                       __ZTINSt3__122__weak_result_type_impIZN3mlx4core8unary_fpINS2_6detail4TanhEEEvRKNS2_5arrayERS6_T_NS2_6StreamEEUlvE_Lb0EEE, 
                       __ZTINSt3__122__weak_result_type_impIZN3mlx4core8unary_fpINS2_6detail5Expm1EEEvRKNS2_5arrayERS6_T_NS2_6StreamEEUlvE_Lb0EEE, 
                       __ZTINSt3__122__weak_result_type_impIZN3mlx4core8unary_fpINS2_6detail5FloorEEEvRKNS2_5arrayERS6_T_NS2_6StreamEEUlvE_Lb0EEE, 
                       __ZTINSt3__122__weak_result_type_impIZN3mlx4core8unary_fpINS2_6detail5Log10EEEvRKNS2_5arrayERS6_T_NS2_6StreamEEUlvE_Lb0EEE, 
                       __ZTINSt3__122__weak_result_type_impIZN3mlx4core8unary_fpINS2_6detail5Log1pEEEvRKNS2_5arrayERS6_T_NS2_6StreamEEUlvE_Lb0EEE, 
                       __ZTINSt3__122__weak_result_type_impIZN3mlx4core8unary_fpINS2_6detail5RoundEEEvRKNS2_5arrayERS6_T_NS2_6StreamEEUlvE_Lb0EEE, 
                       __ZTINSt3__122__weak_result_type_impIZN3mlx4core8unary_fpINS2_6detail5RsqrtEEEvRKNS2_5arrayERS6_T_NS2_6StreamEEUlvE_Lb0EEE, 
                       __ZTINSt3__122__weak_result_type_impIZN3mlx4core8unary_fpINS2_6detail6ArcCosEEEvRKNS2_5arrayERS6_T_NS2_6StreamEEUlvE_Lb0EEE, 
                       __ZTINSt3__122__weak_result_type_impIZN3mlx4core8unary_fpINS2_6detail6ArcSinEEEvRKNS2_5arrayERS6_T_NS2_6StreamEEUlvE_Lb0EEE, 
                       __ZTINSt3__122__weak_result_type_impIZN3mlx4core8unary_fpINS2_6detail6ArcTanEEEvRKNS2_5arrayERS6_T_NS2_6StreamEEUlvE_Lb0EEE, 
                       __ZTINSt3__122__weak_result_type_impIZN3mlx4core8unary_fpINS2_6detail7ArcCoshEEEvRKNS2_5arrayERS6_T_NS2_6StreamEEUlvE_Lb0EEE, 
                       __ZTINSt3__122__weak_result_type_impIZN3mlx4core8unary_fpINS2_6detail7ArcSinhEEEvRKNS2_5arrayERS6_T_NS2_6StreamEEUlvE_Lb0EEE, 
                       __ZTINSt3__122__weak_result_type_impIZN3mlx4core8unary_fpINS2_6detail7ArcTanhEEEvRKNS2_5arrayERS6_T_NS2_6StreamEEUlvE_Lb0EEE, 
                       __ZTINSt3__122__weak_result_type_impIZN3mlx4core8unary_fpINS2_6detail7SigmoidEEEvRKNS2_5arrayERS6_T_NS2_6StreamEEUlvE_Lb0EEE, 
                       __ZTINSt3__122__weak_result_type_impIZN3mlx4core9unary_intINS2_6detail13BitwiseInvertEEEvRKNS2_5arrayERS6_T_NS2_6StreamEEUlvE_Lb0EEE, 
                       __ZTINSt3__123__match_any_but_newlineIcEE, __ZTINSt3__126__end_marked_subexpressionIcEE, 
                       __ZTINSt3__128__begin_marked_subexpressionIcEE, __ZTINSt3__133__unary_function_keep_layout_baseINS_6vectorIN3mlx4core5arrayENS_9allocatorIS4_EEEES7_EE, 
                       __ZTINSt3__134__maybe_derive_from_unary_functionIZN3mlx4core12inverse_implIdEEvRKNS2_5arrayERS4_bbNS2_6StreamEEUlvE0_Lb0EEE, 
                       __ZTINSt3__134__maybe_derive_from_unary_functionIZN3mlx4core12inverse_implIdEEvRKNS2_5arrayERS4_bbNS2_6StreamEEUlvE_Lb0EEE, 
                       __ZTINSt3__134__maybe_derive_from_unary_functionIZN3mlx4core12inverse_implIfEEvRKNS2_5arrayERS4_bbNS2_6StreamEEUlvE0_Lb0EEE, 
                       __ZTINSt3__134__maybe_derive_from_unary_functionIZN3mlx4core12inverse_implIfEEvRKNS2_5arrayERS4_bbNS2_6StreamEEUlvE_Lb0EEE, 
                       __ZTINSt3__134__maybe_derive_from_unary_functionIZN3mlx4core12unary_signedINS2_6detail3AbsEEEvRKNS2_5arrayERS6_T_NS2_6StreamEEUlvE_Lb0EEE, 
                       __ZTINSt3__134__maybe_derive_from_unary_functionIZN3mlx4core13cholesky_implIdEEvRKNS2_5arrayERS4_bNS2_6StreamEEUlvE_Lb0EEE, 
                       __ZTINSt3__134__maybe_derive_from_unary_functionIZN3mlx4core13cholesky_implIfEEvRKNS2_5arrayERS4_bNS2_6StreamEEUlvE_Lb0EEE, 
                       __ZTINSt3__134__maybe_derive_from_unary_functionIZN3mlx4core13unary_complexINS2_6detail9ConjugateEEEvRKNS2_5arrayERS6_T_NS2_6StreamEEUlvE_Lb0EEE, 
                       __ZTINSt3__134__maybe_derive_from_unary_functionIZN3mlx4core13unary_real_fpINS2_6detail3ErfEEEvRKNS2_5arrayERS6_T_NS2_6StreamEEUlvE_Lb0EEE, 
                       __ZTINSt3__134__maybe_derive_from_unary_functionIZN3mlx4core13unary_real_fpINS2_6detail6ErfInvEEEvRKNS2_5arrayERS6_T_NS2_6StreamEEUlvE_Lb0EEE, 
                       __ZTINSt3__134__maybe_derive_from_unary_functionIZN3mlx4core15matmul_dispatchINS2_12_MLX_Float16EEEvRKNS2_5arrayES7_RS5_bbmmffNS2_6StreamEEUlvE_Lb0EEE, 
                       __ZTINSt3__134__maybe_derive_from_unary_functionIZN3mlx4core15matmul_dispatchINS2_13_MLX_BFloat16EEEvRKNS2_5arrayES7_RS5_bbmmffNS2_6StreamEEUlvE_Lb0EEE, 
                       __ZTINSt3__134__maybe_derive_from_unary_functionIZN3mlx4core15matmul_dispatchIdEEvRKNS2_5arrayES6_RS4_bbmmffNS2_6StreamEEUlvE_Lb0EEE, 
                       __ZTINSt3__134__maybe_derive_from_unary_functionIZN3mlx4core15matmul_dispatchIfEEvRKNS2_5arrayES6_RS4_bbmmffNS2_6StreamEEUlvE_Lb0EEE, 
                       __ZTINSt3__134__maybe_derive_from_unary_functionIZN3mlx4core22unary_complex_to_floatINS2_6detail4ImagEEEvRKNS2_5arrayERS6_T_NS2_6StreamEEUlvE_Lb0EEE, 
                       __ZTINSt3__134__maybe_derive_from_unary_functionIZN3mlx4core22unary_complex_to_floatINS2_6detail4RealEEEvRKNS2_5arrayERS6_T_NS2_6StreamEEUlvE_Lb0EEE, 
                       __ZTINSt3__134__maybe_derive_from_unary_functionIZN3mlx4core5unaryINS2_6detail10LogicalNotEEEvRKNS2_5arrayERS6_T_NS2_6StreamEEUlvE_Lb0EEE, 
                       __ZTINSt3__134__maybe_derive_from_unary_functionIZN3mlx4core5unaryINS2_6detail4SignEEEvRKNS2_5arrayERS6_T_NS2_6StreamEEUlvE_Lb0EEE, 
                       __ZTINSt3__134__maybe_derive_from_unary_functionIZN3mlx4core5unaryINS2_6detail6SquareEEEvRKNS2_5arrayERS6_T_NS2_6StreamEEUlvE_Lb0EEE, 
                       __ZTINSt3__134__maybe_derive_from_unary_functionIZN3mlx4core5unaryINS2_6detail8NegativeEEEvRKNS2_5arrayERS6_T_NS2_6StreamEEUlvE_Lb0EEE, 
                       __ZTINSt3__134__maybe_derive_from_unary_functionIZN3mlx4core8hadamardINS2_12_MLX_Float16EEEvRNS2_5arrayEiifNS2_6StreamEEUlvE_Lb0EEE, 
                       __ZTINSt3__134__maybe_derive_from_unary_functionIZN3mlx4core8hadamardINS2_13_MLX_BFloat16EEEvRNS2_5arrayEiifNS2_6StreamEEUlvE_Lb0EEE, 
                       __ZTINSt3__134__maybe_derive_from_unary_functionIZN3mlx4core8hadamardIfEEvRNS2_5arrayEiifNS2_6StreamEEUlvE_Lb0EEE, 
                       __ZTINSt3__134__maybe_derive_from_unary_functionIZN3mlx4core8luf_implIdEEvRKNS2_5arrayERS4_S7_S7_NS2_6StreamEEUlvE_Lb0EEE, 
                       __ZTINSt3__134__maybe_derive_from_unary_functionIZN3mlx4core8luf_implIfEEvRKNS2_5arrayERS4_S7_S7_NS2_6StreamEEUlvE_Lb0EEE, 
                       __ZTINSt3__134__maybe_derive_from_unary_functionIZN3mlx4core8qrf_implIdEEvRKNS2_5arrayERS4_S7_NS2_6StreamEEUlvE_Lb0EEE, 
                       __ZTINSt3__134__maybe_derive_from_unary_functionIZN3mlx4core8qrf_implIfEEvRKNS2_5arrayERS4_S7_NS2_6StreamEEUlvE_Lb0EEE, 
                       __ZTINSt3__134__maybe_derive_from_unary_functionIZN3mlx4core8svd_implIdEEvRKNS2_5arrayERNS_6vectorIS4_NS_9allocatorIS4_EEEEbNS2_6StreamEEUlvE_Lb0EEE, 
                       __ZTINSt3__134__maybe_derive_from_unary_functionIZN3mlx4core8svd_implIfEEvRKNS2_5arrayERNS_6vectorIS4_NS_9allocatorIS4_EEEEbNS2_6StreamEEUlvE_Lb0EEE, 
                       __ZTINSt3__134__maybe_derive_from_unary_functionIZN3mlx4core8unary_fpINS2_6detail3CosEEEvRKNS2_5arrayERS6_T_NS2_6StreamEEUlvE_Lb0EEE, 
                       __ZTINSt3__134__maybe_derive_from_unary_functionIZN3mlx4core8unary_fpINS2_6detail3ExpEEEvRKNS2_5arrayERS6_T_NS2_6StreamEEUlvE_Lb0EEE, 
                       __ZTINSt3__134__maybe_derive_from_unary_functionIZN3mlx4core8unary_fpINS2_6detail3LogEEEvRKNS2_5arrayERS6_T_NS2_6StreamEEUlvE_Lb0EEE, 
                       __ZTINSt3__134__maybe_derive_from_unary_functionIZN3mlx4core8unary_fpINS2_6detail3SinEEEvRKNS2_5arrayERS6_T_NS2_6StreamEEUlvE_Lb0EEE, 
                       __ZTINSt3__134__maybe_derive_from_unary_functionIZN3mlx4core8unary_fpINS2_6detail3TanEEEvRKNS2_5arrayERS6_T_NS2_6StreamEEUlvE_Lb0EEE, 
                       __ZTINSt3__134__maybe_derive_from_unary_functionIZN3mlx4core8unary_fpINS2_6detail4CeilEEEvRKNS2_5arrayERS6_T_NS2_6StreamEEUlvE_Lb0EEE, 
                       __ZTINSt3__134__maybe_derive_from_unary_functionIZN3mlx4core8unary_fpINS2_6detail4CoshEEEvRKNS2_5arrayERS6_T_NS2_6StreamEEUlvE_Lb0EEE, 
                       __ZTINSt3__134__maybe_derive_from_unary_functionIZN3mlx4core8unary_fpINS2_6detail4Log2EEEvRKNS2_5arrayERS6_T_NS2_6StreamEEUlvE_Lb0EEE, 
                       __ZTINSt3__134__maybe_derive_from_unary_functionIZN3mlx4core8unary_fpINS2_6detail4SinhEEEvRKNS2_5arrayERS6_T_NS2_6StreamEEUlvE_Lb0EEE, 
                       __ZTINSt3__134__maybe_derive_from_unary_functionIZN3mlx4core8unary_fpINS2_6detail4SqrtEEEvRKNS2_5arrayERS6_T_NS2_6StreamEEUlvE_Lb0EEE, 
                       __ZTINSt3__134__maybe_derive_from_unary_functionIZN3mlx4core8unary_fpINS2_6detail4TanhEEEvRKNS2_5arrayERS6_T_NS2_6StreamEEUlvE_Lb0EEE, 
                       __ZTINSt3__134__maybe_derive_from_unary_functionIZN3mlx4core8unary_fpINS2_6detail5Expm1EEEvRKNS2_5arrayERS6_T_NS2_6StreamEEUlvE_Lb0EEE, 
                       __ZTINSt3__134__maybe_derive_from_unary_functionIZN3mlx4core8unary_fpINS2_6detail5FloorEEEvRKNS2_5arrayERS6_T_NS2_6StreamEEUlvE_Lb0EEE, 
                       __ZTINSt3__134__maybe_derive_from_unary_functionIZN3mlx4core8unary_fpINS2_6detail5Log10EEEvRKNS2_5arrayERS6_T_NS2_6StreamEEUlvE_Lb0EEE, 
                       __ZTINSt3__134__maybe_derive_from_unary_functionIZN3mlx4core8unary_fpINS2_6detail5Log1pEEEvRKNS2_5arrayERS6_T_NS2_6StreamEEUlvE_Lb0EEE, 
                       __ZTINSt3__134__maybe_derive_from_unary_functionIZN3mlx4core8unary_fpINS2_6detail5RoundEEEvRKNS2_5arrayERS6_T_NS2_6StreamEEUlvE_Lb0EEE, 
                       __ZTINSt3__134__maybe_derive_from_unary_functionIZN3mlx4core8unary_fpINS2_6detail5RsqrtEEEvRKNS2_5arrayERS6_T_NS2_6StreamEEUlvE_Lb0EEE, 
                       __ZTINSt3__134__maybe_derive_from_unary_functionIZN3mlx4core8unary_fpINS2_6detail6ArcCosEEEvRKNS2_5arrayERS6_T_NS2_6StreamEEUlvE_Lb0EEE, 
                       __ZTINSt3__134__maybe_derive_from_unary_functionIZN3mlx4core8unary_fpINS2_6detail6ArcSinEEEvRKNS2_5arrayERS6_T_NS2_6StreamEEUlvE_Lb0EEE, 
                       __ZTINSt3__134__maybe_derive_from_unary_functionIZN3mlx4core8unary_fpINS2_6detail6ArcTanEEEvRKNS2_5arrayERS6_T_NS2_6StreamEEUlvE_Lb0EEE, 
                       __ZTINSt3__134__maybe_derive_from_unary_functionIZN3mlx4core8unary_fpINS2_6detail7ArcCoshEEEvRKNS2_5arrayERS6_T_NS2_6StreamEEUlvE_Lb0EEE, 
                       __ZTINSt3__134__maybe_derive_from_unary_functionIZN3mlx4core8unary_fpINS2_6detail7ArcSinhEEEvRKNS2_5arrayERS6_T_NS2_6StreamEEUlvE_Lb0EEE, 
                       __ZTINSt3__134__maybe_derive_from_unary_functionIZN3mlx4core8unary_fpINS2_6detail7ArcTanhEEEvRKNS2_5arrayERS6_T_NS2_6StreamEEUlvE_Lb0EEE, 
                       __ZTINSt3__134__maybe_derive_from_unary_functionIZN3mlx4core8unary_fpINS2_6detail7SigmoidEEEvRKNS2_5arrayERS6_T_NS2_6StreamEEUlvE_Lb0EEE, 
                       __ZTINSt3__134__maybe_derive_from_unary_functionIZN3mlx4core9unary_intINS2_6detail13BitwiseInvertEEEvRKNS2_5arrayERS6_T_NS2_6StreamEEUlvE_Lb0EEE, 
                       __ZTINSt3__135__maybe_derive_from_binary_functionIZN3mlx4core12inverse_implIdEEvRKNS2_5arrayERS4_bbNS2_6StreamEEUlvE0_Lb0EEE, 
                       __ZTINSt3__135__maybe_derive_from_binary_functionIZN3mlx4core12inverse_implIdEEvRKNS2_5arrayERS4_bbNS2_6StreamEEUlvE_Lb0EEE, 
                       __ZTINSt3__135__maybe_derive_from_binary_functionIZN3mlx4core12inverse_implIfEEvRKNS2_5arrayERS4_bbNS2_6StreamEEUlvE0_Lb0EEE, 
                       __ZTINSt3__135__maybe_derive_from_binary_functionIZN3mlx4core12inverse_implIfEEvRKNS2_5arrayERS4_bbNS2_6StreamEEUlvE_Lb0EEE, 
                       __ZTINSt3__135__maybe_derive_from_binary_functionIZN3mlx4core12unary_signedINS2_6detail3AbsEEEvRKNS2_5arrayERS6_T_NS2_6StreamEEUlvE_Lb0EEE, 
                       __ZTINSt3__135__maybe_derive_from_binary_functionIZN3mlx4core13cholesky_implIdEEvRKNS2_5arrayERS4_bNS2_6StreamEEUlvE_Lb0EEE, 
                       __ZTINSt3__135__maybe_derive_from_binary_functionIZN3mlx4core13cholesky_implIfEEvRKNS2_5arrayERS4_bNS2_6StreamEEUlvE_Lb0EEE, 
                       __ZTINSt3__135__maybe_derive_from_binary_functionIZN3mlx4core13unary_complexINS2_6detail9ConjugateEEEvRKNS2_5arrayERS6_T_NS2_6StreamEEUlvE_Lb0EEE, 
                       __ZTINSt3__135__maybe_derive_from_binary_functionIZN3mlx4core13unary_real_fpINS2_6detail3ErfEEEvRKNS2_5arrayERS6_T_NS2_6StreamEEUlvE_Lb0EEE, 
                       __ZTINSt3__135__maybe_derive_from_binary_functionIZN3mlx4core13unary_real_fpINS2_6detail6ErfInvEEEvRKNS2_5arrayERS6_T_NS2_6StreamEEUlvE_Lb0EEE, 
                       __ZTINSt3__135__maybe_derive_from_binary_functionIZN3mlx4core15matmul_dispatchINS2_12_MLX_Float16EEEvRKNS2_5arrayES7_RS5_bbmmffNS2_6StreamEEUlvE_Lb0EEE, 
                       __ZTINSt3__135__maybe_derive_from_binary_functionIZN3mlx4core15matmul_dispatchINS2_13_MLX_BFloat16EEEvRKNS2_5arrayES7_RS5_bbmmffNS2_6StreamEEUlvE_Lb0EEE, 
                       __ZTINSt3__135__maybe_derive_from_binary_functionIZN3mlx4core15matmul_dispatchIdEEvRKNS2_5arrayES6_RS4_bbmmffNS2_6StreamEEUlvE_Lb0EEE, 
                       __ZTINSt3__135__maybe_derive_from_binary_functionIZN3mlx4core15matmul_dispatchIfEEvRKNS2_5arrayES6_RS4_bbmmffNS2_6StreamEEUlvE_Lb0EEE, 
                       __ZTINSt3__135__maybe_derive_from_binary_functionIZN3mlx4core22unary_complex_to_floatINS2_6detail4ImagEEEvRKNS2_5arrayERS6_T_NS2_6StreamEEUlvE_Lb0EEE, 
                       __ZTINSt3__135__maybe_derive_from_binary_functionIZN3mlx4core22unary_complex_to_floatINS2_6detail4RealEEEvRKNS2_5arrayERS6_T_NS2_6StreamEEUlvE_Lb0EEE, 
                       __ZTINSt3__135__maybe_derive_from_binary_functionIZN3mlx4core5unaryINS2_6detail10LogicalNotEEEvRKNS2_5arrayERS6_T_NS2_6StreamEEUlvE_Lb0EEE, 
                       __ZTINSt3__135__maybe_derive_from_binary_functionIZN3mlx4core5unaryINS2_6detail4SignEEEvRKNS2_5arrayERS6_T_NS2_6StreamEEUlvE_Lb0EEE, 
                       __ZTINSt3__135__maybe_derive_from_binary_functionIZN3mlx4core5unaryINS2_6detail6SquareEEEvRKNS2_5arrayERS6_T_NS2_6StreamEEUlvE_Lb0EEE, 
                       __ZTINSt3__135__maybe_derive_from_binary_functionIZN3mlx4core5unaryINS2_6detail8NegativeEEEvRKNS2_5arrayERS6_T_NS2_6StreamEEUlvE_Lb0EEE, 
                       __ZTINSt3__135__maybe_derive_from_binary_functionIZN3mlx4core8hadamardINS2_12_MLX_Float16EEEvRNS2_5arrayEiifNS2_6StreamEEUlvE_Lb0EEE, 
                       __ZTINSt3__135__maybe_derive_from_binary_functionIZN3mlx4core8hadamardINS2_13_MLX_BFloat16EEEvRNS2_5arrayEiifNS2_6StreamEEUlvE_Lb0EEE, 
                       __ZTINSt3__135__maybe_derive_from_binary_functionIZN3mlx4core8hadamardIfEEvRNS2_5arrayEiifNS2_6StreamEEUlvE_Lb0EEE, 
                       __ZTINSt3__135__maybe_derive_from_binary_functionIZN3mlx4core8luf_implIdEEvRKNS2_5arrayERS4_S7_S7_NS2_6StreamEEUlvE_Lb0EEE, 
                       __ZTINSt3__135__maybe_derive_from_binary_functionIZN3mlx4core8luf_implIfEEvRKNS2_5arrayERS4_S7_S7_NS2_6StreamEEUlvE_Lb0EEE, 
                       __ZTINSt3__135__maybe_derive_from_binary_functionIZN3mlx4core8qrf_implIdEEvRKNS2_5arrayERS4_S7_NS2_6StreamEEUlvE_Lb0EEE, 
                       __ZTINSt3__135__maybe_derive_from_binary_functionIZN3mlx4core8qrf_implIfEEvRKNS2_5arrayERS4_S7_NS2_6StreamEEUlvE_Lb0EEE, 
                       __ZTINSt3__135__maybe_derive_from_binary_functionIZN3mlx4core8svd_implIdEEvRKNS2_5arrayERNS_6vectorIS4_NS_9allocatorIS4_EEEEbNS2_6StreamEEUlvE_Lb0EEE, 
                       __ZTINSt3__135__maybe_derive_from_binary_functionIZN3mlx4core8svd_implIfEEvRKNS2_5arrayERNS_6vectorIS4_NS_9allocatorIS4_EEEEbNS2_6StreamEEUlvE_Lb0EEE, 
                       __ZTINSt3__135__maybe_derive_from_binary_functionIZN3mlx4core8unary_fpINS2_6detail3CosEEEvRKNS2_5arrayERS6_T_NS2_6StreamEEUlvE_Lb0EEE, 
                       __ZTINSt3__135__maybe_derive_from_binary_functionIZN3mlx4core8unary_fpINS2_6detail3ExpEEEvRKNS2_5arrayERS6_T_NS2_6StreamEEUlvE_Lb0EEE, 
                       __ZTINSt3__135__maybe_derive_from_binary_functionIZN3mlx4core8unary_fpINS2_6detail3LogEEEvRKNS2_5arrayERS6_T_NS2_6StreamEEUlvE_Lb0EEE, 
                       __ZTINSt3__135__maybe_derive_from_binary_functionIZN3mlx4core8unary_fpINS2_6detail3SinEEEvRKNS2_5arrayERS6_T_NS2_6StreamEEUlvE_Lb0EEE, 
                       __ZTINSt3__135__maybe_derive_from_binary_functionIZN3mlx4core8unary_fpINS2_6detail3TanEEEvRKNS2_5arrayERS6_T_NS2_6StreamEEUlvE_Lb0EEE, 
                       __ZTINSt3__135__maybe_derive_from_binary_functionIZN3mlx4core8unary_fpINS2_6detail4CeilEEEvRKNS2_5arrayERS6_T_NS2_6StreamEEUlvE_Lb0EEE, 
                       __ZTINSt3__135__maybe_derive_from_binary_functionIZN3mlx4core8unary_fpINS2_6detail4CoshEEEvRKNS2_5arrayERS6_T_NS2_6StreamEEUlvE_Lb0EEE, 
                       __ZTINSt3__135__maybe_derive_from_binary_functionIZN3mlx4core8unary_fpINS2_6detail4Log2EEEvRKNS2_5arrayERS6_T_NS2_6StreamEEUlvE_Lb0EEE, 
                       __ZTINSt3__135__maybe_derive_from_binary_functionIZN3mlx4core8unary_fpINS2_6detail4SinhEEEvRKNS2_5arrayERS6_T_NS2_6StreamEEUlvE_Lb0EEE, 
                       __ZTINSt3__135__maybe_derive_from_binary_functionIZN3mlx4core8unary_fpINS2_6detail4SqrtEEEvRKNS2_5arrayERS6_T_NS2_6StreamEEUlvE_Lb0EEE, 
                       __ZTINSt3__135__maybe_derive_from_binary_functionIZN3mlx4core8unary_fpINS2_6detail4TanhEEEvRKNS2_5arrayERS6_T_NS2_6StreamEEUlvE_Lb0EEE, 
                       __ZTINSt3__135__maybe_derive_from_binary_functionIZN3mlx4core8unary_fpINS2_6detail5Expm1EEEvRKNS2_5arrayERS6_T_NS2_6StreamEEUlvE_Lb0EEE, 
                       __ZTINSt3__135__maybe_derive_from_binary_functionIZN3mlx4core8unary_fpINS2_6detail5FloorEEEvRKNS2_5arrayERS6_T_NS2_6StreamEEUlvE_Lb0EEE, 
                       __ZTINSt3__135__maybe_derive_from_binary_functionIZN3mlx4core8unary_fpINS2_6detail5Log10EEEvRKNS2_5arrayERS6_T_NS2_6StreamEEUlvE_Lb0EEE, 
                       __ZTINSt3__135__maybe_derive_from_binary_functionIZN3mlx4core8unary_fpINS2_6detail5Log1pEEEvRKNS2_5arrayERS6_T_NS2_6StreamEEUlvE_Lb0EEE, 
                       __ZTINSt3__135__maybe_derive_from_binary_functionIZN3mlx4core8unary_fpINS2_6detail5RoundEEEvRKNS2_5arrayERS6_T_NS2_6StreamEEUlvE_Lb0EEE, 
                       __ZTINSt3__135__maybe_derive_from_binary_functionIZN3mlx4core8unary_fpINS2_6detail5RsqrtEEEvRKNS2_5arrayERS6_T_NS2_6StreamEEUlvE_Lb0EEE, 
                       __ZTINSt3__135__maybe_derive_from_binary_functionIZN3mlx4core8unary_fpINS2_6detail6ArcCosEEEvRKNS2_5arrayERS6_T_NS2_6StreamEEUlvE_Lb0EEE, 
                       __ZTINSt3__135__maybe_derive_from_binary_functionIZN3mlx4core8unary_fpINS2_6detail6ArcSinEEEvRKNS2_5arrayERS6_T_NS2_6StreamEEUlvE_Lb0EEE, 
                       __ZTINSt3__135__maybe_derive_from_binary_functionIZN3mlx4core8unary_fpINS2_6detail6ArcTanEEEvRKNS2_5arrayERS6_T_NS2_6StreamEEUlvE_Lb0EEE, 
                       __ZTINSt3__135__maybe_derive_from_binary_functionIZN3mlx4core8unary_fpINS2_6detail7ArcCoshEEEvRKNS2_5arrayERS6_T_NS2_6StreamEEUlvE_Lb0EEE, 
                       __ZTINSt3__135__maybe_derive_from_binary_functionIZN3mlx4core8unary_fpINS2_6detail7ArcSinhEEEvRKNS2_5arrayERS6_T_NS2_6StreamEEUlvE_Lb0EEE, 
                       __ZTINSt3__135__maybe_derive_from_binary_functionIZN3mlx4core8unary_fpINS2_6detail7ArcTanhEEEvRKNS2_5arrayERS6_T_NS2_6StreamEEUlvE_Lb0EEE, 
                       __ZTINSt3__135__maybe_derive_from_binary_functionIZN3mlx4core8unary_fpINS2_6detail7SigmoidEEEvRKNS2_5arrayERS6_T_NS2_6StreamEEUlvE_Lb0EEE, 
                       __ZTINSt3__135__maybe_derive_from_binary_functionIZN3mlx4core9unary_intINS2_6detail13BitwiseInvertEEEvRKNS2_5arrayERS6_T_NS2_6StreamEEUlvE_Lb0EEE, 
                       __ZTINSt3__16__bindIRPFiPKvPviS3_S3_S3_EJS2_S3_mS3_S3_RS3_EEE, 
                       __ZTINSt3__16__bindIRPFiPKviPvS3_iS3_S3_EJS2_mS3_S3_mS3_RS3_EEE, 
                       __ZTINSt3__16__bindIRPFiPKviPviiS3_EJS2_mS3_RiiRS3_EEE, __ZTINSt3__16__bindIZN3mlx4core12inverse_implIdEEvRKNS2_5arrayERS4_bbNS2_6StreamEEUlvE0_JEEE, 
                       __ZTINSt3__16__bindIZN3mlx4core12inverse_implIdEEvRKNS2_5arrayERS4_bbNS2_6StreamEEUlvE_JEEE, 
                       __ZTINSt3__16__bindIZN3mlx4core12inverse_implIfEEvRKNS2_5arrayERS4_bbNS2_6StreamEEUlvE0_JEEE, 
                       __ZTINSt3__16__bindIZN3mlx4core12inverse_implIfEEvRKNS2_5arrayERS4_bbNS2_6StreamEEUlvE_JEEE, 
                       __ZTINSt3__16__bindIZN3mlx4core12unary_signedINS2_6detail3AbsEEEvRKNS2_5arrayERS6_T_NS2_6StreamEEUlvE_JEEE, 
                       __ZTINSt3__16__bindIZN3mlx4core13cholesky_implIdEEvRKNS2_5arrayERS4_bNS2_6StreamEEUlvE_JEEE, 
                       __ZTINSt3__16__bindIZN3mlx4core13cholesky_implIfEEvRKNS2_5arrayERS4_bNS2_6StreamEEUlvE_JEEE, 
                       __ZTINSt3__16__bindIZN3mlx4core13unary_complexINS2_6detail9ConjugateEEEvRKNS2_5arrayERS6_T_NS2_6StreamEEUlvE_JEEE, 
                       __ZTINSt3__16__bindIZN3mlx4core13unary_real_fpINS2_6detail3ErfEEEvRKNS2_5arrayERS6_T_NS2_6StreamEEUlvE_JEEE, 
                       __ZTINSt3__16__bindIZN3mlx4core13unary_real_fpINS2_6detail6ErfInvEEEvRKNS2_5arrayERS6_T_NS2_6StreamEEUlvE_JEEE, 
                       __ZTINSt3__16__bindIZN3mlx4core15matmul_dispatchINS2_12_MLX_Float16EEEvRKNS2_5arrayES7_RS5_bbmmffNS2_6StreamEEUlvE_JEEE, 
                       __ZTINSt3__16__bindIZN3mlx4core15matmul_dispatchINS2_13_MLX_BFloat16EEEvRKNS2_5arrayES7_RS5_bbmmffNS2_6StreamEEUlvE_JEEE, 
                       __ZTINSt3__16__bindIZN3mlx4core15matmul_dispatchIdEEvRKNS2_5arrayES6_RS4_bbmmffNS2_6StreamEEUlvE_JEEE, 
                       __ZTINSt3__16__bindIZN3mlx4core15matmul_dispatchIfEEvRKNS2_5arrayES6_RS4_bbmmffNS2_6StreamEEUlvE_JEEE, 
                       __ZTINSt3__16__bindIZN3mlx4core22unary_complex_to_floatINS2_6detail4ImagEEEvRKNS2_5arrayERS6_T_NS2_6StreamEEUlvE_JEEE, 
                       __ZTINSt3__16__bindIZN3mlx4core22unary_complex_to_floatINS2_6detail4RealEEEvRKNS2_5arrayERS6_T_NS2_6StreamEEUlvE_JEEE, 
                       __ZTINSt3__16__bindIZN3mlx4core5unaryINS2_6detail10LogicalNotEEEvRKNS2_5arrayERS6_T_NS2_6StreamEEUlvE_JEEE, 
                       __ZTINSt3__16__bindIZN3mlx4core5unaryINS2_6detail4SignEEEvRKNS2_5arrayERS6_T_NS2_6StreamEEUlvE_JEEE, 
                       __ZTINSt3__16__bindIZN3mlx4core5unaryINS2_6detail6SquareEEEvRKNS2_5arrayERS6_T_NS2_6StreamEEUlvE_JEEE, 
                       __ZTINSt3__16__bindIZN3mlx4core5unaryINS2_6detail8NegativeEEEvRKNS2_5arrayERS6_T_NS2_6StreamEEUlvE_JEEE, 
                       __ZTINSt3__16__bindIZN3mlx4core8hadamardINS2_12_MLX_Float16EEEvRNS2_5arrayEiifNS2_6StreamEEUlvE_JEEE, 
                       __ZTINSt3__16__bindIZN3mlx4core8hadamardINS2_13_MLX_BFloat16EEEvRNS2_5arrayEiifNS2_6StreamEEUlvE_JEEE, 
                       __ZTINSt3__16__bindIZN3mlx4core8hadamardIfEEvRNS2_5arrayEiifNS2_6StreamEEUlvE_JEEE, 
                       __ZTINSt3__16__bindIZN3mlx4core8luf_implIdEEvRKNS2_5arrayERS4_S7_S7_NS2_6StreamEEUlvE_JEEE, 
                       __ZTINSt3__16__bindIZN3mlx4core8luf_implIfEEvRKNS2_5arrayERS4_S7_S7_NS2_6StreamEEUlvE_JEEE, 
                       __ZTINSt3__16__bindIZN3mlx4core8qrf_implIdEEvRKNS2_5arrayERS4_S7_NS2_6StreamEEUlvE_JEEE, 
                       __ZTINSt3__16__bindIZN3mlx4core8qrf_implIfEEvRKNS2_5arrayERS4_S7_NS2_6StreamEEUlvE_JEEE, 
                       __ZTINSt3__16__bindIZN3mlx4core8svd_implIdEEvRKNS2_5arrayERNS_6vectorIS4_NS_9allocatorIS4_EEEEbNS2_6StreamEEUlvE_JEEE, 
                       __ZTINSt3__16__bindIZN3mlx4core8svd_implIfEEvRKNS2_5arrayERNS_6vectorIS4_NS_9allocatorIS4_EEEEbNS2_6StreamEEUlvE_JEEE, 
                       __ZTINSt3__16__bindIZN3mlx4core8unary_fpINS2_6detail3CosEEEvRKNS2_5arrayERS6_T_NS2_6StreamEEUlvE_JEEE, 
                       __ZTINSt3__16__bindIZN3mlx4core8unary_fpINS2_6detail3ExpEEEvRKNS2_5arrayERS6_T_NS2_6StreamEEUlvE_JEEE, 
                       __ZTINSt3__16__bindIZN3mlx4core8unary_fpINS2_6detail3LogEEEvRKNS2_5arrayERS6_T_NS2_6StreamEEUlvE_JEEE, 
                       __ZTINSt3__16__bindIZN3mlx4core8unary_fpINS2_6detail3SinEEEvRKNS2_5arrayERS6_T_NS2_6StreamEEUlvE_JEEE, 
                       __ZTINSt3__16__bindIZN3mlx4core8unary_fpINS2_6detail3TanEEEvRKNS2_5arrayERS6_T_NS2_6StreamEEUlvE_JEEE, 
                       __ZTINSt3__16__bindIZN3mlx4core8unary_fpINS2_6detail4CeilEEEvRKNS2_5arrayERS6_T_NS2_6StreamEEUlvE_JEEE, 
                       __ZTINSt3__16__bindIZN3mlx4core8unary_fpINS2_6detail4CoshEEEvRKNS2_5arrayERS6_T_NS2_6StreamEEUlvE_JEEE, 
                       __ZTINSt3__16__bindIZN3mlx4core8unary_fpINS2_6detail4Log2EEEvRKNS2_5arrayERS6_T_NS2_6StreamEEUlvE_JEEE, 
                       __ZTINSt3__16__bindIZN3mlx4core8unary_fpINS2_6detail4SinhEEEvRKNS2_5arrayERS6_T_NS2_6StreamEEUlvE_JEEE, 
                       __ZTINSt3__16__bindIZN3mlx4core8unary_fpINS2_6detail4SqrtEEEvRKNS2_5arrayERS6_T_NS2_6StreamEEUlvE_JEEE, 
                       __ZTINSt3__16__bindIZN3mlx4core8unary_fpINS2_6detail4TanhEEEvRKNS2_5arrayERS6_T_NS2_6StreamEEUlvE_JEEE, 
                       __ZTINSt3__16__bindIZN3mlx4core8unary_fpINS2_6detail5Expm1EEEvRKNS2_5arrayERS6_T_NS2_6StreamEEUlvE_JEEE, 
                       __ZTINSt3__16__bindIZN3mlx4core8unary_fpINS2_6detail5FloorEEEvRKNS2_5arrayERS6_T_NS2_6StreamEEUlvE_JEEE, 
                       __ZTINSt3__16__bindIZN3mlx4core8unary_fpINS2_6detail5Log10EEEvRKNS2_5arrayERS6_T_NS2_6StreamEEUlvE_JEEE, 
                       __ZTINSt3__16__bindIZN3mlx4core8unary_fpINS2_6detail5Log1pEEEvRKNS2_5arrayERS6_T_NS2_6StreamEEUlvE_JEEE, 
                       __ZTINSt3__16__bindIZN3mlx4core8unary_fpINS2_6detail5RoundEEEvRKNS2_5arrayERS6_T_NS2_6StreamEEUlvE_JEEE, 
                       __ZTINSt3__16__bindIZN3mlx4core8unary_fpINS2_6detail5RsqrtEEEvRKNS2_5arrayERS6_T_NS2_6StreamEEUlvE_JEEE, 
                       __ZTINSt3__16__bindIZN3mlx4core8unary_fpINS2_6detail6ArcCosEEEvRKNS2_5arrayERS6_T_NS2_6StreamEEUlvE_JEEE, 
                       __ZTINSt3__16__bindIZN3mlx4core8unary_fpINS2_6detail6ArcSinEEEvRKNS2_5arrayERS6_T_NS2_6StreamEEUlvE_JEEE, 
                       __ZTINSt3__16__bindIZN3mlx4core8unary_fpINS2_6detail6ArcTanEEEvRKNS2_5arrayERS6_T_NS2_6StreamEEUlvE_JEEE, 
                       __ZTINSt3__16__bindIZN3mlx4core8unary_fpINS2_6detail7ArcCoshEEEvRKNS2_5arrayERS6_T_NS2_6StreamEEUlvE_JEEE, 
                       __ZTINSt3__16__bindIZN3mlx4core8unary_fpINS2_6detail7ArcSinhEEEvRKNS2_5arrayERS6_T_NS2_6StreamEEUlvE_JEEE, 
                       __ZTINSt3__16__bindIZN3mlx4core8unary_fpINS2_6detail7ArcTanhEEEvRKNS2_5arrayERS6_T_NS2_6StreamEEUlvE_JEEE, 
                       __ZTINSt3__16__bindIZN3mlx4core8unary_fpINS2_6detail7SigmoidEEEvRKNS2_5arrayERS6_T_NS2_6StreamEEUlvE_JEEE, 
                       __ZTINSt3__16__bindIZN3mlx4core9unary_intINS2_6detail13BitwiseInvertEEEvRKNS2_5arrayERS6_T_NS2_6StreamEEUlvE_JEEE, 
                       __ZTINSt3__16__loopIcEE, __ZTINSt3__16__nodeIcEE, __ZTINSt3__18functionIFNS_6vectorIN3mlx4core5arrayENS_9allocatorIS4_EEEES7_EEE, 
                       __ZTIPFNSt3__110shared_ptrIN3mlx4core10ExpandDimsEEERNS2_2io18ParallelFileReaderENS2_6StreamEE, 
                       __ZTIPFNSt3__110shared_ptrIN3mlx4core10GatherAxisEEERNS2_2io18ParallelFileReaderENS2_6StreamEE, 
                       __ZTIPFNSt3__110shared_ptrIN3mlx4core10LogicalAndEEERNS2_2io18ParallelFileReaderENS2_6StreamEE, 
                       __ZTIPFNSt3__110shared_ptrIN3mlx4core10LogicalNotEEERNS2_2io18ParallelFileReaderENS2_6StreamEE, 
                       __ZTIPFNSt3__110shared_ptrIN3mlx4core10RandomBitsEEERNS2_2io18ParallelFileReaderENS2_6StreamEE, 
                       __ZTIPFNSt3__110shared_ptrIN3mlx4core11ConcatenateEEERNS2_2io18ParallelFileReaderENS2_6StreamEE, 
                       __ZTIPFNSt3__110shared_ptrIN3mlx4core11ConvolutionEEERNS2_2io18ParallelFileReaderENS2_6StreamEE, 
                       __ZTIPFNSt3__110shared_ptrIN3mlx4core11ScatterAxisEEERNS2_2io18ParallelFileReaderENS2_6StreamEE, 
                       __ZTIPFNSt3__110shared_ptrIN3mlx4core11SliceUpdateEEERNS2_2io18ParallelFileReaderENS2_6StreamEE, 
                       __ZTIPFNSt3__110shared_ptrIN3mlx4core12ArgPartitionEEERNS2_2io18ParallelFileReaderENS2_6StreamEE, 
                       __ZTIPFNSt3__110shared_ptrIN3mlx4core12DynamicSliceEEERNS2_2io18ParallelFileReaderENS2_6StreamEE, 
                       __ZTIPFNSt3__110shared_ptrIN3mlx4core12GreaterEqualEEERNS2_2io18ParallelFileReaderENS2_6StreamEE, 
                       __ZTIPFNSt3__110shared_ptrIN3mlx4core12StopGradientEEERNS2_2io18ParallelFileReaderENS2_6StreamEE, 
                       __ZTIPFNSt3__110shared_ptrIN3mlx4core13BitwiseBinaryEEERNS2_2io18ParallelFileReaderENS2_6StreamEE, 
                       __ZTIPFNSt3__110shared_ptrIN3mlx4core13BlockMaskedMMEEERNS2_2io18ParallelFileReaderENS2_6StreamEE, 
                       __ZTIPFNSt3__110shared_ptrIN3mlx4core13BroadcastAxesEEERNS2_2io18ParallelFileReaderENS2_6StreamEE, 
                       __ZTIPFNSt3__110shared_ptrIN3mlx4core15QuantizedMatmulEEERNS2_2io18ParallelFileReaderENS2_6StreamEE, 
                       __ZTIPFNSt3__110shared_ptrIN3mlx4core16NumberOfElementsEEERNS2_2io18ParallelFileReaderENS2_6StreamEE, 
                       __ZTIPFNSt3__110shared_ptrIN3mlx4core18DynamicSliceUpdateEEERNS2_2io18ParallelFileReaderENS2_6StreamEE, 
                       __ZTIPFNSt3__110shared_ptrIN3mlx4core3AbsEEERNS2_2io18ParallelFileReaderENS2_6StreamEE, 
                       __ZTIPFNSt3__110shared_ptrIN3mlx4core3AddEEERNS2_2io18ParallelFileReaderENS2_6StreamEE, 
                       __ZTIPFNSt3__110shared_ptrIN3mlx4core3CosEEERNS2_2io18ParallelFileReaderENS2_6StreamEE, 
                       __ZTIPFNSt3__110shared_ptrIN3mlx4core3ErfEEERNS2_2io18ParallelFileReaderENS2_6StreamEE, 
                       __ZTIPFNSt3__110shared_ptrIN3mlx4core3ExpEEERNS2_2io18ParallelFileReaderENS2_6StreamEE, 
                       __ZTIPFNSt3__110shared_ptrIN3mlx4core3FFTEEERNS2_2io18ParallelFileReaderENS2_6StreamEE, 
                       __ZTIPFNSt3__110shared_ptrIN3mlx4core3LogEEERNS2_2io18ParallelFileReaderENS2_6StreamEE, 
                       __ZTIPFNSt3__110shared_ptrIN3mlx4core3PadEEERNS2_2io18ParallelFileReaderENS2_6StreamEE, 
                       __ZTIPFNSt3__110shared_ptrIN3mlx4core3QRFEEERNS2_2io18ParallelFileReaderENS2_6StreamEE, 
                       __ZTIPFNSt3__110shared_ptrIN3mlx4core3SVDEEERNS2_2io18ParallelFileReaderENS2_6StreamEE, 
                       __ZTIPFNSt3__110shared_ptrIN3mlx4core3SinEEERNS2_2io18ParallelFileReaderENS2_6StreamEE, 
                       __ZTIPFNSt3__110shared_ptrIN3mlx4core3TanEEERNS2_2io18ParallelFileReaderENS2_6StreamEE, 
                       __ZTIPFNSt3__110shared_ptrIN3mlx4core4CeilEEERNS2_2io18ParallelFileReaderENS2_6StreamEE, 
                       __ZTIPFNSt3__110shared_ptrIN3mlx4core4CopyEEERNS2_2io18ParallelFileReaderENS2_6StreamEE, 
                       __ZTIPFNSt3__110shared_ptrIN3mlx4core4CoshEEERNS2_2io18ParallelFileReaderENS2_6StreamEE, 
                       __ZTIPFNSt3__110shared_ptrIN3mlx4core4EighEEERNS2_2io18ParallelFileReaderENS2_6StreamEE, 
                       __ZTIPFNSt3__110shared_ptrIN3mlx4core4FullEEERNS2_2io18ParallelFileReaderENS2_6StreamEE, 
                       __ZTIPFNSt3__110shared_ptrIN3mlx4core4ImagEEERNS2_2io18ParallelFileReaderENS2_6StreamEE, 
                       __ZTIPFNSt3__110shared_ptrIN3mlx4core4LessEEERNS2_2io18ParallelFileReaderENS2_6StreamEE, 
                       __ZTIPFNSt3__110shared_ptrIN3mlx4core4RealEEERNS2_2io18ParallelFileReaderENS2_6StreamEE, 
                       __ZTIPFNSt3__110shared_ptrIN3mlx4core4ScanEEERNS2_2io18ParallelFileReaderENS2_6StreamEE, 
                       __ZTIPFNSt3__110shared_ptrIN3mlx4core4SignEEERNS2_2io18ParallelFileReaderENS2_6StreamEE, 
                       __ZTIPFNSt3__110shared_ptrIN3mlx4core4SinhEEERNS2_2io18ParallelFileReaderENS2_6StreamEE, 
                       __ZTIPFNSt3__110shared_ptrIN3mlx4core4SortEEERNS2_2io18ParallelFileReaderENS2_6StreamEE, 
                       __ZTIPFNSt3__110shared_ptrIN3mlx4core4SqrtEEERNS2_2io18ParallelFileReaderENS2_6StreamEE, 
                       __ZTIPFNSt3__110shared_ptrIN3mlx4core4TanhEEERNS2_2io18ParallelFileReaderENS2_6StreamEE, 
                       __ZTIPFNSt3__110shared_ptrIN3mlx4core4ViewEEERNS2_2io18ParallelFileReaderENS2_6StreamEE, 
                       __ZTIPFNSt3__110shared_ptrIN3mlx4core4fast10RMSNormVJPEEERNS2_2io18ParallelFileReaderENS2_6StreamEE, 
                       __ZTIPFNSt3__110shared_ptrIN3mlx4core4fast12LayerNormVJPEEERNS2_2io18ParallelFileReaderENS2_6StreamEE, 
                       __ZTIPFNSt3__110shared_ptrIN3mlx4core4fast14AffineQuantizeEEERNS2_2io18ParallelFileReaderENS2_6StreamEE, 
                       __ZTIPFNSt3__110shared_ptrIN3mlx4core4fast25ScaledDotProductAttentionEEERNS2_2io18ParallelFileReaderENS2_6StreamEE, 
                       __ZTIPFNSt3__110shared_ptrIN3mlx4core4fast4RoPEEEERNS2_2io18ParallelFileReaderENS2_6StreamEE, 
                       __ZTIPFNSt3__110shared_ptrIN3mlx4core4fast7RMSNormEEERNS2_2io18ParallelFileReaderENS2_6StreamEE, 
                       __ZTIPFNSt3__110shared_ptrIN3mlx4core4fast9LayerNormEEERNS2_2io18ParallelFileReaderENS2_6StreamEE, 
                       __ZTIPFNSt3__110shared_ptrIN3mlx4core5AddMMEEERNS2_2io18ParallelFileReaderENS2_6StreamEE, 
                       __ZTIPFNSt3__110shared_ptrIN3mlx4core5EqualEEERNS2_2io18ParallelFileReaderENS2_6StreamEE, 
                       __ZTIPFNSt3__110shared_ptrIN3mlx4core5Expm1EEERNS2_2io18ParallelFileReaderENS2_6StreamEE, 
                       __ZTIPFNSt3__110shared_ptrIN3mlx4core5FloorEEERNS2_2io18ParallelFileReaderENS2_6StreamEE, 
                       __ZTIPFNSt3__110shared_ptrIN3mlx4core5Log1pEEERNS2_2io18ParallelFileReaderENS2_6StreamEE, 
                       __ZTIPFNSt3__110shared_ptrIN3mlx4core5PowerEEERNS2_2io18ParallelFileReaderENS2_6StreamEE, 
                       __ZTIPFNSt3__110shared_ptrIN3mlx4core5RoundEEERNS2_2io18ParallelFileReaderENS2_6StreamEE, 
                       __ZTIPFNSt3__110shared_ptrIN3mlx4core5SliceEEERNS2_2io18ParallelFileReaderENS2_6StreamEE, 
                       __ZTIPFNSt3__110shared_ptrIN3mlx4core5SplitEEERNS2_2io18ParallelFileReaderENS2_6StreamEE, 
                       __ZTIPFNSt3__110shared_ptrIN3mlx4core6ArangeEEERNS2_2io18ParallelFileReaderENS2_6StreamEE, 
                       __ZTIPFNSt3__110shared_ptrIN3mlx4core6ArcCosEEERNS2_2io18ParallelFileReaderENS2_6StreamEE, 
                       __ZTIPFNSt3__110shared_ptrIN3mlx4core6ArcSinEEERNS2_2io18ParallelFileReaderENS2_6StreamEE, 
                       __ZTIPFNSt3__110shared_ptrIN3mlx4core6ArcTanEEERNS2_2io18ParallelFileReaderENS2_6StreamEE, 
                       __ZTIPFNSt3__110shared_ptrIN3mlx4core6AsTypeEEERNS2_2io18ParallelFileReaderENS2_6StreamEE, 
                       __ZTIPFNSt3__110shared_ptrIN3mlx4core6DivModEEERNS2_2io18ParallelFileReaderENS2_6StreamEE, 
                       __ZTIPFNSt3__110shared_ptrIN3mlx4core6DivideEEERNS2_2io18ParallelFileReaderENS2_6StreamEE, 
                       __ZTIPFNSt3__110shared_ptrIN3mlx4core6ErfInvEEERNS2_2io18ParallelFileReaderENS2_6StreamEE, 
                       __ZTIPFNSt3__110shared_ptrIN3mlx4core6GatherEEERNS2_2io18ParallelFileReaderENS2_6StreamEE, 
                       __ZTIPFNSt3__110shared_ptrIN3mlx4core6MatmulEEERNS2_2io18ParallelFileReaderENS2_6StreamEE, 
                       __ZTIPFNSt3__110shared_ptrIN3mlx4core6ReduceEEERNS2_2io18ParallelFileReaderENS2_6StreamEE, 
                       __ZTIPFNSt3__110shared_ptrIN3mlx4core6SelectEEERNS2_2io18ParallelFileReaderENS2_6StreamEE, 
                       __ZTIPFNSt3__110shared_ptrIN3mlx4core6SquareEEERNS2_2io18ParallelFileReaderENS2_6StreamEE, 
                       __ZTIPFNSt3__110shared_ptrIN3mlx4core7ArcCoshEEERNS2_2io18ParallelFileReaderENS2_6StreamEE, 
                       __ZTIPFNSt3__110shared_ptrIN3mlx4core7ArcSinhEEERNS2_2io18ParallelFileReaderENS2_6StreamEE, 
                       __ZTIPFNSt3__110shared_ptrIN3mlx4core7ArcTan2EEERNS2_2io18ParallelFileReaderENS2_6StreamEE, 
                       __ZTIPFNSt3__110shared_ptrIN3mlx4core7ArcTanhEEERNS2_2io18ParallelFileReaderENS2_6StreamEE, 
                       __ZTIPFNSt3__110shared_ptrIN3mlx4core7ArgSortEEERNS2_2io18ParallelFileReaderENS2_6StreamEE, 
                       __ZTIPFNSt3__110shared_ptrIN3mlx4core7DependsEEERNS2_2io18ParallelFileReaderENS2_6StreamEE, 
                       __ZTIPFNSt3__110shared_ptrIN3mlx4core7FlattenEEERNS2_2io18ParallelFileReaderENS2_6StreamEE, 
                       __ZTIPFNSt3__110shared_ptrIN3mlx4core7GreaterEEERNS2_2io18ParallelFileReaderENS2_6StreamEE, 
                       __ZTIPFNSt3__110shared_ptrIN3mlx4core7InverseEEERNS2_2io18ParallelFileReaderENS2_6StreamEE, 
                       __ZTIPFNSt3__110shared_ptrIN3mlx4core7MaximumEEERNS2_2io18ParallelFileReaderENS2_6StreamEE, 
                       __ZTIPFNSt3__110shared_ptrIN3mlx4core7MinimumEEERNS2_2io18ParallelFileReaderENS2_6StreamEE, 
                       __ZTIPFNSt3__110shared_ptrIN3mlx4core7ReshapeEEERNS2_2io18ParallelFileReaderENS2_6StreamEE, 
                       __ZTIPFNSt3__110shared_ptrIN3mlx4core7ScatterEEERNS2_2io18ParallelFileReaderENS2_6StreamEE, 
                       __ZTIPFNSt3__110shared_ptrIN3mlx4core7SigmoidEEERNS2_2io18ParallelFileReaderENS2_6StreamEE, 
                       __ZTIPFNSt3__110shared_ptrIN3mlx4core7SoftmaxEEERNS2_2io18ParallelFileReaderENS2_6StreamEE, 
                       __ZTIPFNSt3__110shared_ptrIN3mlx4core7SqueezeEEERNS2_2io18ParallelFileReaderENS2_6StreamEE, 
                       __ZTIPFNSt3__110shared_ptrIN3mlx4core8CholeskyEEERNS2_2io18ParallelFileReaderENS2_6StreamEE, 
                       __ZTIPFNSt3__110shared_ptrIN3mlx4core8GatherMMEEERNS2_2io18ParallelFileReaderENS2_6StreamEE, 
                       __ZTIPFNSt3__110shared_ptrIN3mlx4core8HadamardEEERNS2_2io18ParallelFileReaderENS2_6StreamEE, 
                       __ZTIPFNSt3__110shared_ptrIN3mlx4core8MultiplyEEERNS2_2io18ParallelFileReaderENS2_6StreamEE, 
                       __ZTIPFNSt3__110shared_ptrIN3mlx4core8NegativeEEERNS2_2io18ParallelFileReaderENS2_6StreamEE, 
                       __ZTIPFNSt3__110shared_ptrIN3mlx4core8NotEqualEEERNS2_2io18ParallelFileReaderENS2_6StreamEE, 
                       __ZTIPFNSt3__110shared_ptrIN3mlx4core8SubtractEEERNS2_2io18ParallelFileReaderENS2_6StreamEE, 
                       __ZTIPFNSt3__110shared_ptrIN3mlx4core9ArgReduceEEERNS2_2io18ParallelFileReaderENS2_6StreamEE, 
                       __ZTIPFNSt3__110shared_ptrIN3mlx4core9AsStridedEEERNS2_2io18ParallelFileReaderENS2_6StreamEE, 
                       __ZTIPFNSt3__110shared_ptrIN3mlx4core9BroadcastEEERNS2_2io18ParallelFileReaderENS2_6StreamEE, 
                       __ZTIPFNSt3__110shared_ptrIN3mlx4core9ConjugateEEERNS2_2io18ParallelFileReaderENS2_6StreamEE, 
                       __ZTIPFNSt3__110shared_ptrIN3mlx4core9GatherQMMEEERNS2_2io18ParallelFileReaderENS2_6StreamEE, 
                       __ZTIPFNSt3__110shared_ptrIN3mlx4core9LessEqualEEERNS2_2io18ParallelFileReaderENS2_6StreamEE, 
                       __ZTIPFNSt3__110shared_ptrIN3mlx4core9LogAddExpEEERNS2_2io18ParallelFileReaderENS2_6StreamEE, 
                       __ZTIPFNSt3__110shared_ptrIN3mlx4core9LogSumExpEEERNS2_2io18ParallelFileReaderENS2_6StreamEE, 
                       __ZTIPFNSt3__110shared_ptrIN3mlx4core9LogicalOrEEERNS2_2io18ParallelFileReaderENS2_6StreamEE, 
                       __ZTIPFNSt3__110shared_ptrIN3mlx4core9PartitionEEERNS2_2io18ParallelFileReaderENS2_6StreamEE, 
                       __ZTIPFNSt3__110shared_ptrIN3mlx4core9RemainderEEERNS2_2io18ParallelFileReaderENS2_6StreamEE, 
                       __ZTIPFNSt3__110shared_ptrIN3mlx4core9TransposeEEERNS2_2io18ParallelFileReaderENS2_6StreamEE, 
                       __ZTIPFNSt3__110shared_ptrIN3mlx4core9UnflattenEEERNS2_2io18ParallelFileReaderENS2_6StreamEE, 
                       __ZTIPFNSt3__16vectorIN3mlx4core5arrayENS_9allocatorIS3_EEEERKS6_E, 
                       __ZTIPFvN3mlx4core9allocator6BufferEE, __ZTIPFvRN3mlx4core2io10FileWriterERKNS0_9PrimitiveEE, 
                       __ZTIZN10ThreadPool7enqueueINSt3__16__bindIMN3mlx4core11distributed4ring9RingGroupEFvPKcPcmmiiiEJPS7_S9_SA_RKmmRiSG_iEEEJEEENS1_6futureINS1_20__invoke_result_implIvJT_DpT0_EE4typeEEEOSK_DpOSL_EUlvE_, 
                       __ZTIZN3mlx4core12reduction_opINS0_11complex64_tES2_NS0_10ProdReduceEEEvRKNS0_5arrayERS4_RKNSt3__16vectorIiNS8_9allocatorIiEEEET0_EUliE0_, 
                       __ZTIZN3mlx4core12reduction_opINS0_11complex64_tES2_NS0_10ProdReduceEEEvRKNS0_5arrayERS4_RKNSt3__16vectorIiNS8_9allocatorIiEEEET0_EUliE1_, 
                       __ZTIZN3mlx4core12reduction_opINS0_11complex64_tES2_NS0_10ProdReduceEEEvRKNS0_5arrayERS4_RKNSt3__16vectorIiNS8_9allocatorIiEEEET0_EUliE_, 
                       __ZTIZN3mlx4core12reduction_opINS0_11complex64_tES2_NS0_9MaxReduceEEEvRKNS0_5arrayERS4_RKNSt3__16vectorIiNS8_9allocatorIiEEEET0_EUliE0_, 
                       __ZTIZN3mlx4core12reduction_opINS0_11complex64_tES2_NS0_9MaxReduceEEEvRKNS0_5arrayERS4_RKNSt3__16vectorIiNS8_9allocatorIiEEEET0_EUliE1_, 
                       __ZTIZN3mlx4core12reduction_opINS0_11complex64_tES2_NS0_9MaxReduceEEEvRKNS0_5arrayERS4_RKNSt3__16vectorIiNS8_9allocatorIiEEEET0_EUliE_, 
                       __ZTIZN3mlx4core12reduction_opINS0_11complex64_tES2_NS0_9MinReduceEEEvRKNS0_5arrayERS4_RKNSt3__16vectorIiNS8_9allocatorIiEEEET0_EUliE0_, 
                       __ZTIZN3mlx4core12reduction_opINS0_11complex64_tES2_NS0_9MinReduceEEEvRKNS0_5arrayERS4_RKNSt3__16vectorIiNS8_9allocatorIiEEEET0_EUliE1_, 
                       __ZTIZN3mlx4core12reduction_opINS0_11complex64_tES2_NS0_9MinReduceEEEvRKNS0_5arrayERS4_RKNSt3__16vectorIiNS8_9allocatorIiEEEET0_EUliE_, 
                       __ZTIZN3mlx4core12reduction_opINS0_11complex64_tES2_NS0_9SumReduceEEEvRKNS0_5arrayERS4_RKNSt3__16vectorIiNS8_9allocatorIiEEEET0_EUliE0_, 
                       __ZTIZN3mlx4core12reduction_opINS0_11complex64_tES2_NS0_9SumReduceEEEvRKNS0_5arrayERS4_RKNSt3__16vectorIiNS8_9allocatorIiEEEET0_EUliE1_, 
                       __ZTIZN3mlx4core12reduction_opINS0_11complex64_tES2_NS0_9SumReduceEEEvRKNS0_5arrayERS4_RKNSt3__16vectorIiNS8_9allocatorIiEEEET0_EUliE_, 
                       __ZTIZN3mlx4core12reduction_opINS0_12_MLX_Float16ES2_NS0_10ProdReduceEEEvRKNS0_5arrayERS4_RKNSt3__16vectorIiNS8_9allocatorIiEEEET0_EUliE0_, 
                       __ZTIZN3mlx4core12reduction_opINS0_12_MLX_Float16ES2_NS0_10ProdReduceEEEvRKNS0_5arrayERS4_RKNSt3__16vectorIiNS8_9allocatorIiEEEET0_EUliE1_, 
                       __ZTIZN3mlx4core12reduction_opINS0_12_MLX_Float16ES2_NS0_10ProdReduceEEEvRKNS0_5arrayERS4_RKNSt3__16vectorIiNS8_9allocatorIiEEEET0_EUliE_, 
                       __ZTIZN3mlx4core12reduction_opINS0_12_MLX_Float16ES2_NS0_9MaxReduceEEEvRKNS0_5arrayERS4_RKNSt3__16vectorIiNS8_9allocatorIiEEEET0_EUliE0_, 
                       __ZTIZN3mlx4core12reduction_opINS0_12_MLX_Float16ES2_NS0_9MaxReduceEEEvRKNS0_5arrayERS4_RKNSt3__16vectorIiNS8_9allocatorIiEEEET0_EUliE1_, 
                       __ZTIZN3mlx4core12reduction_opINS0_12_MLX_Float16ES2_NS0_9MaxReduceEEEvRKNS0_5arrayERS4_RKNSt3__16vectorIiNS8_9allocatorIiEEEET0_EUliE_, 
                       __ZTIZN3mlx4core12reduction_opINS0_12_MLX_Float16ES2_NS0_9MinReduceEEEvRKNS0_5arrayERS4_RKNSt3__16vectorIiNS8_9allocatorIiEEEET0_EUliE0_, 
                       __ZTIZN3mlx4core12reduction_opINS0_12_MLX_Float16ES2_NS0_9MinReduceEEEvRKNS0_5arrayERS4_RKNSt3__16vectorIiNS8_9allocatorIiEEEET0_EUliE1_, 
                       __ZTIZN3mlx4core12reduction_opINS0_12_MLX_Float16ES2_NS0_9MinReduceEEEvRKNS0_5arrayERS4_RKNSt3__16vectorIiNS8_9allocatorIiEEEET0_EUliE_, 
                       __ZTIZN3mlx4core12reduction_opINS0_12_MLX_Float16ES2_NS0_9SumReduceEEEvRKNS0_5arrayERS4_RKNSt3__16vectorIiNS8_9allocatorIiEEEET0_EUliE0_, 
                       __ZTIZN3mlx4core12reduction_opINS0_12_MLX_Float16ES2_NS0_9SumReduceEEEvRKNS0_5arrayERS4_RKNSt3__16vectorIiNS8_9allocatorIiEEEET0_EUliE1_, 
                       __ZTIZN3mlx4core12reduction_opINS0_12_MLX_Float16ES2_NS0_9SumReduceEEEvRKNS0_5arrayERS4_RKNSt3__16vectorIiNS8_9allocatorIiEEEET0_EUliE_, 
                       __ZTIZN3mlx4core12reduction_opINS0_13_MLX_BFloat16ES2_NS0_10ProdReduceEEEvRKNS0_5arrayERS4_RKNSt3__16vectorIiNS8_9allocatorIiEEEET0_EUliE0_, 
                       __ZTIZN3mlx4core12reduction_opINS0_13_MLX_BFloat16ES2_NS0_10ProdReduceEEEvRKNS0_5arrayERS4_RKNSt3__16vectorIiNS8_9allocatorIiEEEET0_EUliE1_, 
                       __ZTIZN3mlx4core12reduction_opINS0_13_MLX_BFloat16ES2_NS0_10ProdReduceEEEvRKNS0_5arrayERS4_RKNSt3__16vectorIiNS8_9allocatorIiEEEET0_EUliE_, 
                       __ZTIZN3mlx4core12reduction_opINS0_13_MLX_BFloat16ES2_NS0_9MaxReduceEEEvRKNS0_5arrayERS4_RKNSt3__16vectorIiNS8_9allocatorIiEEEET0_EUliE0_, 
                       __ZTIZN3mlx4core12reduction_opINS0_13_MLX_BFloat16ES2_NS0_9MaxReduceEEEvRKNS0_5arrayERS4_RKNSt3__16vectorIiNS8_9allocatorIiEEEET0_EUliE1_, 
                       __ZTIZN3mlx4core12reduction_opINS0_13_MLX_BFloat16ES2_NS0_9MaxReduceEEEvRKNS0_5arrayERS4_RKNSt3__16vectorIiNS8_9allocatorIiEEEET0_EUliE_, 
                       __ZTIZN3mlx4core12reduction_opINS0_13_MLX_BFloat16ES2_NS0_9MinReduceEEEvRKNS0_5arrayERS4_RKNSt3__16vectorIiNS8_9allocatorIiEEEET0_EUliE0_, 
                       __ZTIZN3mlx4core12reduction_opINS0_13_MLX_BFloat16ES2_NS0_9MinReduceEEEvRKNS0_5arrayERS4_RKNSt3__16vectorIiNS8_9allocatorIiEEEET0_EUliE1_, 
                       __ZTIZN3mlx4core12reduction_opINS0_13_MLX_BFloat16ES2_NS0_9MinReduceEEEvRKNS0_5arrayERS4_RKNSt3__16vectorIiNS8_9allocatorIiEEEET0_EUliE_, 
                       __ZTIZN3mlx4core12reduction_opINS0_13_MLX_BFloat16ES2_NS0_9SumReduceEEEvRKNS0_5arrayERS4_RKNSt3__16vectorIiNS8_9allocatorIiEEEET0_EUliE0_, 
                       __ZTIZN3mlx4core12reduction_opINS0_13_MLX_BFloat16ES2_NS0_9SumReduceEEEvRKNS0_5arrayERS4_RKNSt3__16vectorIiNS8_9allocatorIiEEEET0_EUliE1_, 
                       __ZTIZN3mlx4core12reduction_opINS0_13_MLX_BFloat16ES2_NS0_9SumReduceEEEvRKNS0_5arrayERS4_RKNSt3__16vectorIiNS8_9allocatorIiEEEET0_EUliE_, 
                       __ZTIZN3mlx4core12reduction_opIabNS0_8OrReduceEEEvRKNS0_5arrayERS3_RKNSt3__16vectorIiNS7_9allocatorIiEEEET0_EUliE0_, 
                       __ZTIZN3mlx4core12reduction_opIabNS0_8OrReduceEEEvRKNS0_5arrayERS3_RKNSt3__16vectorIiNS7_9allocatorIiEEEET0_EUliE1_, 
                       __ZTIZN3mlx4core12reduction_opIabNS0_8OrReduceEEEvRKNS0_5arrayERS3_RKNSt3__16vectorIiNS7_9allocatorIiEEEET0_EUliE_, 
                       __ZTIZN3mlx4core12reduction_opIabNS0_9AndReduceEEEvRKNS0_5arrayERS3_RKNSt3__16vectorIiNS7_9allocatorIiEEEET0_EUliE0_, 
                       __ZTIZN3mlx4core12reduction_opIabNS0_9AndReduceEEEvRKNS0_5arrayERS3_RKNSt3__16vectorIiNS7_9allocatorIiEEEET0_EUliE1_, 
                       __ZTIZN3mlx4core12reduction_opIabNS0_9AndReduceEEEvRKNS0_5arrayERS3_RKNSt3__16vectorIiNS7_9allocatorIiEEEET0_EUliE_, 
                       __ZTIZN3mlx4core12reduction_opIaiNS0_10ProdReduceEEEvRKNS0_5arrayERS3_RKNSt3__16vectorIiNS7_9allocatorIiEEEET0_EUliE0_, 
                       __ZTIZN3mlx4core12reduction_opIaiNS0_10ProdReduceEEEvRKNS0_5arrayERS3_RKNSt3__16vectorIiNS7_9allocatorIiEEEET0_EUliE1_, 
                       __ZTIZN3mlx4core12reduction_opIaiNS0_10ProdReduceEEEvRKNS0_5arrayERS3_RKNSt3__16vectorIiNS7_9allocatorIiEEEET0_EUliE_, 
                       __ZTIZN3mlx4core12reduction_opIaiNS0_9SumReduceEEEvRKNS0_5arrayERS3_RKNSt3__16vectorIiNS7_9allocatorIiEEEET0_EUliE0_, 
                       __ZTIZN3mlx4core12reduction_opIaiNS0_9SumReduceEEEvRKNS0_5arrayERS3_RKNSt3__16vectorIiNS7_9allocatorIiEEEET0_EUliE1_, 
                       __ZTIZN3mlx4core12reduction_opIaiNS0_9SumReduceEEEvRKNS0_5arrayERS3_RKNSt3__16vectorIiNS7_9allocatorIiEEEET0_EUliE_, 
                       __ZTIZN3mlx4core12reduction_opIbbNS0_9MaxReduceEEEvRKNS0_5arrayERS3_RKNSt3__16vectorIiNS7_9allocatorIiEEEET0_EUliE0_, 
                       __ZTIZN3mlx4core12reduction_opIbbNS0_9MaxReduceEEEvRKNS0_5arrayERS3_RKNSt3__16vectorIiNS7_9allocatorIiEEEET0_EUliE1_, 
                       __ZTIZN3mlx4core12reduction_opIbbNS0_9MaxReduceEEEvRKNS0_5arrayERS3_RKNSt3__16vectorIiNS7_9allocatorIiEEEET0_EUliE_, 
                       __ZTIZN3mlx4core12reduction_opIbbNS0_9MinReduceEEEvRKNS0_5arrayERS3_RKNSt3__16vectorIiNS7_9allocatorIiEEEET0_EUliE0_, 
                       __ZTIZN3mlx4core12reduction_opIbbNS0_9MinReduceEEEvRKNS0_5arrayERS3_RKNSt3__16vectorIiNS7_9allocatorIiEEEET0_EUliE1_, 
                       __ZTIZN3mlx4core12reduction_opIbbNS0_9MinReduceEEEvRKNS0_5arrayERS3_RKNSt3__16vectorIiNS7_9allocatorIiEEEET0_EUliE_, 
                       __ZTIZN3mlx4core12reduction_opIddNS0_10ProdReduceEEEvRKNS0_5arrayERS3_RKNSt3__16vectorIiNS7_9allocatorIiEEEET0_EUliE0_, 
                       __ZTIZN3mlx4core12reduction_opIddNS0_10ProdReduceEEEvRKNS0_5arrayERS3_RKNSt3__16vectorIiNS7_9allocatorIiEEEET0_EUliE1_, 
                       __ZTIZN3mlx4core12reduction_opIddNS0_10ProdReduceEEEvRKNS0_5arrayERS3_RKNSt3__16vectorIiNS7_9allocatorIiEEEET0_EUliE_, 
                       __ZTIZN3mlx4core12reduction_opIddNS0_9MaxReduceEEEvRKNS0_5arrayERS3_RKNSt3__16vectorIiNS7_9allocatorIiEEEET0_EUliE0_, 
                       __ZTIZN3mlx4core12reduction_opIddNS0_9MaxReduceEEEvRKNS0_5arrayERS3_RKNSt3__16vectorIiNS7_9allocatorIiEEEET0_EUliE1_, 
                       __ZTIZN3mlx4core12reduction_opIddNS0_9MaxReduceEEEvRKNS0_5arrayERS3_RKNSt3__16vectorIiNS7_9allocatorIiEEEET0_EUliE_, 
                       __ZTIZN3mlx4core12reduction_opIddNS0_9MinReduceEEEvRKNS0_5arrayERS3_RKNSt3__16vectorIiNS7_9allocatorIiEEEET0_EUliE0_, 
                       __ZTIZN3mlx4core12reduction_opIddNS0_9MinReduceEEEvRKNS0_5arrayERS3_RKNSt3__16vectorIiNS7_9allocatorIiEEEET0_EUliE1_, 
                       __ZTIZN3mlx4core12reduction_opIddNS0_9MinReduceEEEvRKNS0_5arrayERS3_RKNSt3__16vectorIiNS7_9allocatorIiEEEET0_EUliE_, 
                       __ZTIZN3mlx4core12reduction_opIddNS0_9SumReduceEEEvRKNS0_5arrayERS3_RKNSt3__16vectorIiNS7_9allocatorIiEEEET0_EUliE0_, 
                       __ZTIZN3mlx4core12reduction_opIddNS0_9SumReduceEEEvRKNS0_5arrayERS3_RKNSt3__16vectorIiNS7_9allocatorIiEEEET0_EUliE1_, 
                       __ZTIZN3mlx4core12reduction_opIddNS0_9SumReduceEEEvRKNS0_5arrayERS3_RKNSt3__16vectorIiNS7_9allocatorIiEEEET0_EUliE_, 
                       __ZTIZN3mlx4core12reduction_opIffNS0_10ProdReduceEEEvRKNS0_5arrayERS3_RKNSt3__16vectorIiNS7_9allocatorIiEEEET0_EUliE0_, 
                       __ZTIZN3mlx4core12reduction_opIffNS0_10ProdReduceEEEvRKNS0_5arrayERS3_RKNSt3__16vectorIiNS7_9allocatorIiEEEET0_EUliE1_, 
                       __ZTIZN3mlx4core12reduction_opIffNS0_10ProdReduceEEEvRKNS0_5arrayERS3_RKNSt3__16vectorIiNS7_9allocatorIiEEEET0_EUliE_, 
                       __ZTIZN3mlx4core12reduction_opIffNS0_9MaxReduceEEEvRKNS0_5arrayERS3_RKNSt3__16vectorIiNS7_9allocatorIiEEEET0_EUliE0_, 
                       __ZTIZN3mlx4core12reduction_opIffNS0_9MaxReduceEEEvRKNS0_5arrayERS3_RKNSt3__16vectorIiNS7_9allocatorIiEEEET0_EUliE1_, 
                       __ZTIZN3mlx4core12reduction_opIffNS0_9MaxReduceEEEvRKNS0_5arrayERS3_RKNSt3__16vectorIiNS7_9allocatorIiEEEET0_EUliE_, 
                       __ZTIZN3mlx4core12reduction_opIffNS0_9MinReduceEEEvRKNS0_5arrayERS3_RKNSt3__16vectorIiNS7_9allocatorIiEEEET0_EUliE0_, 
                       __ZTIZN3mlx4core12reduction_opIffNS0_9MinReduceEEEvRKNS0_5arrayERS3_RKNSt3__16vectorIiNS7_9allocatorIiEEEET0_EUliE1_, 
                       __ZTIZN3mlx4core12reduction_opIffNS0_9MinReduceEEEvRKNS0_5arrayERS3_RKNSt3__16vectorIiNS7_9allocatorIiEEEET0_EUliE_, 
                       __ZTIZN3mlx4core12reduction_opIffNS0_9SumReduceEEEvRKNS0_5arrayERS3_RKNSt3__16vectorIiNS7_9allocatorIiEEEET0_EUliE0_, 
                       __ZTIZN3mlx4core12reduction_opIffNS0_9SumReduceEEEvRKNS0_5arrayERS3_RKNSt3__16vectorIiNS7_9allocatorIiEEEET0_EUliE1_, 
                       __ZTIZN3mlx4core12reduction_opIffNS0_9SumReduceEEEvRKNS0_5arrayERS3_RKNSt3__16vectorIiNS7_9allocatorIiEEEET0_EUliE_, 
                       __ZTIZN3mlx4core12reduction_opIhhNS0_9MaxReduceEEEvRKNS0_5arrayERS3_RKNSt3__16vectorIiNS7_9allocatorIiEEEET0_EUliE0_, 
                       __ZTIZN3mlx4core12reduction_opIhhNS0_9MaxReduceEEEvRKNS0_5arrayERS3_RKNSt3__16vectorIiNS7_9allocatorIiEEEET0_EUliE1_, 
                       __ZTIZN3mlx4core12reduction_opIhhNS0_9MaxReduceEEEvRKNS0_5arrayERS3_RKNSt3__16vectorIiNS7_9allocatorIiEEEET0_EUliE_, 
                       __ZTIZN3mlx4core12reduction_opIhhNS0_9MinReduceEEEvRKNS0_5arrayERS3_RKNSt3__16vectorIiNS7_9allocatorIiEEEET0_EUliE0_, 
                       __ZTIZN3mlx4core12reduction_opIhhNS0_9MinReduceEEEvRKNS0_5arrayERS3_RKNSt3__16vectorIiNS7_9allocatorIiEEEET0_EUliE1_, 
                       __ZTIZN3mlx4core12reduction_opIhhNS0_9MinReduceEEEvRKNS0_5arrayERS3_RKNSt3__16vectorIiNS7_9allocatorIiEEEET0_EUliE_, 
                       __ZTIZN3mlx4core12reduction_opIibNS0_8OrReduceEEEvRKNS0_5arrayERS3_RKNSt3__16vectorIiNS7_9allocatorIiEEEET0_EUliE0_, 
                       __ZTIZN3mlx4core12reduction_opIibNS0_8OrReduceEEEvRKNS0_5arrayERS3_RKNSt3__16vectorIiNS7_9allocatorIiEEEET0_EUliE1_, 
                       __ZTIZN3mlx4core12reduction_opIibNS0_8OrReduceEEEvRKNS0_5arrayERS3_RKNSt3__16vectorIiNS7_9allocatorIiEEEET0_EUliE_, 
                       __ZTIZN3mlx4core12reduction_opIibNS0_9AndReduceEEEvRKNS0_5arrayERS3_RKNSt3__16vectorIiNS7_9allocatorIiEEEET0_EUliE0_, 
                       __ZTIZN3mlx4core12reduction_opIibNS0_9AndReduceEEEvRKNS0_5arrayERS3_RKNSt3__16vectorIiNS7_9allocatorIiEEEET0_EUliE1_, 
                       __ZTIZN3mlx4core12reduction_opIibNS0_9AndReduceEEEvRKNS0_5arrayERS3_RKNSt3__16vectorIiNS7_9allocatorIiEEEET0_EUliE_, 
                       __ZTIZN3mlx4core12reduction_opIiiNS0_10ProdReduceEEEvRKNS0_5arrayERS3_RKNSt3__16vectorIiNS7_9allocatorIiEEEET0_EUliE0_, 
                       __ZTIZN3mlx4core12reduction_opIiiNS0_10ProdReduceEEEvRKNS0_5arrayERS3_RKNSt3__16vectorIiNS7_9allocatorIiEEEET0_EUliE1_, 
                       __ZTIZN3mlx4core12reduction_opIiiNS0_10ProdReduceEEEvRKNS0_5arrayERS3_RKNSt3__16vectorIiNS7_9allocatorIiEEEET0_EUliE_, 
                       __ZTIZN3mlx4core12reduction_opIiiNS0_9MaxReduceEEEvRKNS0_5arrayERS3_RKNSt3__16vectorIiNS7_9allocatorIiEEEET0_EUliE0_, 
                       __ZTIZN3mlx4core12reduction_opIiiNS0_9MaxReduceEEEvRKNS0_5arrayERS3_RKNSt3__16vectorIiNS7_9allocatorIiEEEET0_EUliE1_, 
                       __ZTIZN3mlx4core12reduction_opIiiNS0_9MaxReduceEEEvRKNS0_5arrayERS3_RKNSt3__16vectorIiNS7_9allocatorIiEEEET0_EUliE_, 
                       __ZTIZN3mlx4core12reduction_opIiiNS0_9MinReduceEEEvRKNS0_5arrayERS3_RKNSt3__16vectorIiNS7_9allocatorIiEEEET0_EUliE0_, 
                       __ZTIZN3mlx4core12reduction_opIiiNS0_9MinReduceEEEvRKNS0_5arrayERS3_RKNSt3__16vectorIiNS7_9allocatorIiEEEET0_EUliE1_, 
                       __ZTIZN3mlx4core12reduction_opIiiNS0_9MinReduceEEEvRKNS0_5arrayERS3_RKNSt3__16vectorIiNS7_9allocatorIiEEEET0_EUliE_, 
                       __ZTIZN3mlx4core12reduction_opIiiNS0_9SumReduceEEEvRKNS0_5arrayERS3_RKNSt3__16vectorIiNS7_9allocatorIiEEEET0_EUliE0_, 
                       __ZTIZN3mlx4core12reduction_opIiiNS0_9SumReduceEEEvRKNS0_5arrayERS3_RKNSt3__16vectorIiNS7_9allocatorIiEEEET0_EUliE1_, 
                       __ZTIZN3mlx4core12reduction_opIiiNS0_9SumReduceEEEvRKNS0_5arrayERS3_RKNSt3__16vectorIiNS7_9allocatorIiEEEET0_EUliE_, 
                       __ZTIZN3mlx4core12reduction_opIjjNS0_9MaxReduceEEEvRKNS0_5arrayERS3_RKNSt3__16vectorIiNS7_9allocatorIiEEEET0_EUliE0_, 
                       __ZTIZN3mlx4core12reduction_opIjjNS0_9MaxReduceEEEvRKNS0_5arrayERS3_RKNSt3__16vectorIiNS7_9allocatorIiEEEET0_EUliE1_, 
                       __ZTIZN3mlx4core12reduction_opIjjNS0_9MaxReduceEEEvRKNS0_5arrayERS3_RKNSt3__16vectorIiNS7_9allocatorIiEEEET0_EUliE_, 
                       __ZTIZN3mlx4core12reduction_opIjjNS0_9MinReduceEEEvRKNS0_5arrayERS3_RKNSt3__16vectorIiNS7_9allocatorIiEEEET0_EUliE0_, 
                       __ZTIZN3mlx4core12reduction_opIjjNS0_9MinReduceEEEvRKNS0_5arrayERS3_RKNSt3__16vectorIiNS7_9allocatorIiEEEET0_EUliE1_, 
                       __ZTIZN3mlx4core12reduction_opIjjNS0_9MinReduceEEEvRKNS0_5arrayERS3_RKNSt3__16vectorIiNS7_9allocatorIiEEEET0_EUliE_, 
                       __ZTIZN3mlx4core12reduction_opIsbNS0_8OrReduceEEEvRKNS0_5arrayERS3_RKNSt3__16vectorIiNS7_9allocatorIiEEEET0_EUliE0_, 
                       __ZTIZN3mlx4core12reduction_opIsbNS0_8OrReduceEEEvRKNS0_5arrayERS3_RKNSt3__16vectorIiNS7_9allocatorIiEEEET0_EUliE1_, 
                       __ZTIZN3mlx4core12reduction_opIsbNS0_8OrReduceEEEvRKNS0_5arrayERS3_RKNSt3__16vectorIiNS7_9allocatorIiEEEET0_EUliE_, 
                       __ZTIZN3mlx4core12reduction_opIsbNS0_9AndReduceEEEvRKNS0_5arrayERS3_RKNSt3__16vectorIiNS7_9allocatorIiEEEET0_EUliE0_, 
                       __ZTIZN3mlx4core12reduction_opIsbNS0_9AndReduceEEEvRKNS0_5arrayERS3_RKNSt3__16vectorIiNS7_9allocatorIiEEEET0_EUliE1_, 
                       __ZTIZN3mlx4core12reduction_opIsbNS0_9AndReduceEEEvRKNS0_5arrayERS3_RKNSt3__16vectorIiNS7_9allocatorIiEEEET0_EUliE_, 
                       __ZTIZN3mlx4core12reduction_opIsiNS0_10ProdReduceEEEvRKNS0_5arrayERS3_RKNSt3__16vectorIiNS7_9allocatorIiEEEET0_EUliE0_, 
                       __ZTIZN3mlx4core12reduction_opIsiNS0_10ProdReduceEEEvRKNS0_5arrayERS3_RKNSt3__16vectorIiNS7_9allocatorIiEEEET0_EUliE1_, 
                       __ZTIZN3mlx4core12reduction_opIsiNS0_10ProdReduceEEEvRKNS0_5arrayERS3_RKNSt3__16vectorIiNS7_9allocatorIiEEEET0_EUliE_, 
                       __ZTIZN3mlx4core12reduction_opIsiNS0_9SumReduceEEEvRKNS0_5arrayERS3_RKNSt3__16vectorIiNS7_9allocatorIiEEEET0_EUliE0_, 
                       __ZTIZN3mlx4core12reduction_opIsiNS0_9SumReduceEEEvRKNS0_5arrayERS3_RKNSt3__16vectorIiNS7_9allocatorIiEEEET0_EUliE1_, 
                       __ZTIZN3mlx4core12reduction_opIsiNS0_9SumReduceEEEvRKNS0_5arrayERS3_RKNSt3__16vectorIiNS7_9allocatorIiEEEET0_EUliE_, 
                       __ZTIZN3mlx4core12reduction_opIttNS0_9MaxReduceEEEvRKNS0_5arrayERS3_RKNSt3__16vectorIiNS7_9allocatorIiEEEET0_EUliE0_, 
                       __ZTIZN3mlx4core12reduction_opIttNS0_9MaxReduceEEEvRKNS0_5arrayERS3_RKNSt3__16vectorIiNS7_9allocatorIiEEEET0_EUliE1_, 
                       __ZTIZN3mlx4core12reduction_opIttNS0_9MaxReduceEEEvRKNS0_5arrayERS3_RKNSt3__16vectorIiNS7_9allocatorIiEEEET0_EUliE_, 
                       __ZTIZN3mlx4core12reduction_opIttNS0_9MinReduceEEEvRKNS0_5arrayERS3_RKNSt3__16vectorIiNS7_9allocatorIiEEEET0_EUliE0_, 
                       __ZTIZN3mlx4core12reduction_opIttNS0_9MinReduceEEEvRKNS0_5arrayERS3_RKNSt3__16vectorIiNS7_9allocatorIiEEEET0_EUliE1_, 
                       __ZTIZN3mlx4core12reduction_opIttNS0_9MinReduceEEEvRKNS0_5arrayERS3_RKNSt3__16vectorIiNS7_9allocatorIiEEEET0_EUliE_, 
                       __ZTIZN3mlx4core12reduction_opIxbNS0_8OrReduceEEEvRKNS0_5arrayERS3_RKNSt3__16vectorIiNS7_9allocatorIiEEEET0_EUliE0_, 
                       __ZTIZN3mlx4core12reduction_opIxbNS0_8OrReduceEEEvRKNS0_5arrayERS3_RKNSt3__16vectorIiNS7_9allocatorIiEEEET0_EUliE1_, 
                       __ZTIZN3mlx4core12reduction_opIxbNS0_8OrReduceEEEvRKNS0_5arrayERS3_RKNSt3__16vectorIiNS7_9allocatorIiEEEET0_EUliE_, 
                       __ZTIZN3mlx4core12reduction_opIxbNS0_9AndReduceEEEvRKNS0_5arrayERS3_RKNSt3__16vectorIiNS7_9allocatorIiEEEET0_EUliE0_, 
                       __ZTIZN3mlx4core12reduction_opIxbNS0_9AndReduceEEEvRKNS0_5arrayERS3_RKNSt3__16vectorIiNS7_9allocatorIiEEEET0_EUliE1_, 
                       __ZTIZN3mlx4core12reduction_opIxbNS0_9AndReduceEEEvRKNS0_5arrayERS3_RKNSt3__16vectorIiNS7_9allocatorIiEEEET0_EUliE_, 
                       __ZTIZN3mlx4core12reduction_opIxxNS0_10ProdReduceEEEvRKNS0_5arrayERS3_RKNSt3__16vectorIiNS7_9allocatorIiEEEET0_EUliE0_, 
                       __ZTIZN3mlx4core12reduction_opIxxNS0_10ProdReduceEEEvRKNS0_5arrayERS3_RKNSt3__16vectorIiNS7_9allocatorIiEEEET0_EUliE1_, 
                       __ZTIZN3mlx4core12reduction_opIxxNS0_10ProdReduceEEEvRKNS0_5arrayERS3_RKNSt3__16vectorIiNS7_9allocatorIiEEEET0_EUliE_, 
                       __ZTIZN3mlx4core12reduction_opIxxNS0_9MaxReduceEEEvRKNS0_5arrayERS3_RKNSt3__16vectorIiNS7_9allocatorIiEEEET0_EUliE0_, 
                       __ZTIZN3mlx4core12reduction_opIxxNS0_9MaxReduceEEEvRKNS0_5arrayERS3_RKNSt3__16vectorIiNS7_9allocatorIiEEEET0_EUliE1_, 
                       __ZTIZN3mlx4core12reduction_opIxxNS0_9MaxReduceEEEvRKNS0_5arrayERS3_RKNSt3__16vectorIiNS7_9allocatorIiEEEET0_EUliE_, 
                       __ZTIZN3mlx4core12reduction_opIxxNS0_9MinReduceEEEvRKNS0_5arrayERS3_RKNSt3__16vectorIiNS7_9allocatorIiEEEET0_EUliE0_, 
                       __ZTIZN3mlx4core12reduction_opIxxNS0_9MinReduceEEEvRKNS0_5arrayERS3_RKNSt3__16vectorIiNS7_9allocatorIiEEEET0_EUliE1_, 
                       __ZTIZN3mlx4core12reduction_opIxxNS0_9MinReduceEEEvRKNS0_5arrayERS3_RKNSt3__16vectorIiNS7_9allocatorIiEEEET0_EUliE_, 
                       __ZTIZN3mlx4core12reduction_opIxxNS0_9SumReduceEEEvRKNS0_5arrayERS3_RKNSt3__16vectorIiNS7_9allocatorIiEEEET0_EUliE0_, 
                       __ZTIZN3mlx4core12reduction_opIxxNS0_9SumReduceEEEvRKNS0_5arrayERS3_RKNSt3__16vectorIiNS7_9allocatorIiEEEET0_EUliE1_, 
                       __ZTIZN3mlx4core12reduction_opIxxNS0_9SumReduceEEEvRKNS0_5arrayERS3_RKNSt3__16vectorIiNS7_9allocatorIiEEEET0_EUliE_, 
                       __ZTIZN3mlx4core12reduction_opIyyNS0_9MaxReduceEEEvRKNS0_5arrayERS3_RKNSt3__16vectorIiNS7_9allocatorIiEEEET0_EUliE0_, 
                       __ZTIZN3mlx4core12reduction_opIyyNS0_9MaxReduceEEEvRKNS0_5arrayERS3_RKNSt3__16vectorIiNS7_9allocatorIiEEEET0_EUliE1_, 
                       __ZTIZN3mlx4core12reduction_opIyyNS0_9MaxReduceEEEvRKNS0_5arrayERS3_RKNSt3__16vectorIiNS7_9allocatorIiEEEET0_EUliE_, 
                       __ZTIZN3mlx4core12reduction_opIyyNS0_9MinReduceEEEvRKNS0_5arrayERS3_RKNSt3__16vectorIiNS7_9allocatorIiEEEET0_EUliE0_, 
                       __ZTIZN3mlx4core12reduction_opIyyNS0_9MinReduceEEEvRKNS0_5arrayERS3_RKNSt3__16vectorIiNS7_9allocatorIiEEEET0_EUliE1_, 
                       __ZTIZN3mlx4core12reduction_opIyyNS0_9MinReduceEEEvRKNS0_5arrayERS3_RKNSt3__16vectorIiNS7_9allocatorIiEEEET0_EUliE_, 
                       __ZTIZN9pocketfft6detail9threading10thread_mapIZNS0_10general_ndINS0_11pocketfft_cIfEENS0_5cmplxIfEEfNS0_7ExecC2CEEEvRKNS0_6cndarrIT0_EERNS0_5ndarrISA_EERKNSt3__16vectorImNSH_9allocatorImEEEET1_mRKT2_bEUlvE_EEvmT_EUlvE_, 
                       __ZTIZN9pocketfft6detail9threading10thread_mapIZNS0_11general_c2rIfEEvRKNS0_6cndarrINS0_5cmplxIT_EEEERNS0_5ndarrIS6_EEmbS6_mEUlvE_EEvmS6_EUlvE_, 
                       __ZTIZN9pocketfft6detail9threading10thread_mapIZNS0_11general_r2cIfEEvRKNS0_6cndarrIT_EERNS0_5ndarrINS0_5cmplxIS5_EEEEmbS5_mEUlvE_EEvmS5_EUlvE_, 
                       __ZTSFNSt3__110shared_ptrIN3mlx4core10ExpandDimsEEERNS2_2io18ParallelFileReaderENS2_6StreamEE, 
                       __ZTSFNSt3__110shared_ptrIN3mlx4core10GatherAxisEEERNS2_2io18ParallelFileReaderENS2_6StreamEE, 
                       __ZTSFNSt3__110shared_ptrIN3mlx4core10LogicalAndEEERNS2_2io18ParallelFileReaderENS2_6StreamEE, 
                       __ZTSFNSt3__110shared_ptrIN3mlx4core10LogicalNotEEERNS2_2io18ParallelFileReaderENS2_6StreamEE, 
                       __ZTSFNSt3__110shared_ptrIN3mlx4core10RandomBitsEEERNS2_2io18ParallelFileReaderENS2_6StreamEE, 
                       __ZTSFNSt3__110shared_ptrIN3mlx4core11ConcatenateEEERNS2_2io18ParallelFileReaderENS2_6StreamEE, 
                       __ZTSFNSt3__110shared_ptrIN3mlx4core11ConvolutionEEERNS2_2io18ParallelFileReaderENS2_6StreamEE, 
                       __ZTSFNSt3__110shared_ptrIN3mlx4core11ScatterAxisEEERNS2_2io18ParallelFileReaderENS2_6StreamEE, 
                       __ZTSFNSt3__110shared_ptrIN3mlx4core11SliceUpdateEEERNS2_2io18ParallelFileReaderENS2_6StreamEE, 
                       __ZTSFNSt3__110shared_ptrIN3mlx4core12ArgPartitionEEERNS2_2io18ParallelFileReaderENS2_6StreamEE, 
                       __ZTSFNSt3__110shared_ptrIN3mlx4core12DynamicSliceEEERNS2_2io18ParallelFileReaderENS2_6StreamEE, 
                       __ZTSFNSt3__110shared_ptrIN3mlx4core12GreaterEqualEEERNS2_2io18ParallelFileReaderENS2_6StreamEE, 
                       __ZTSFNSt3__110shared_ptrIN3mlx4core12StopGradientEEERNS2_2io18ParallelFileReaderENS2_6StreamEE, 
                       __ZTSFNSt3__110shared_ptrIN3mlx4core13BitwiseBinaryEEERNS2_2io18ParallelFileReaderENS2_6StreamEE, 
                       __ZTSFNSt3__110shared_ptrIN3mlx4core13BlockMaskedMMEEERNS2_2io18ParallelFileReaderENS2_6StreamEE, 
                       __ZTSFNSt3__110shared_ptrIN3mlx4core13BroadcastAxesEEERNS2_2io18ParallelFileReaderENS2_6StreamEE, 
                       __ZTSFNSt3__110shared_ptrIN3mlx4core15QuantizedMatmulEEERNS2_2io18ParallelFileReaderENS2_6StreamEE, 
                       __ZTSFNSt3__110shared_ptrIN3mlx4core16NumberOfElementsEEERNS2_2io18ParallelFileReaderENS2_6StreamEE, 
                       __ZTSFNSt3__110shared_ptrIN3mlx4core18DynamicSliceUpdateEEERNS2_2io18ParallelFileReaderENS2_6StreamEE, 
                       __ZTSFNSt3__110shared_ptrIN3mlx4core3AbsEEERNS2_2io18ParallelFileReaderENS2_6StreamEE, 
                       __ZTSFNSt3__110shared_ptrIN3mlx4core3AddEEERNS2_2io18ParallelFileReaderENS2_6StreamEE, 
                       __ZTSFNSt3__110shared_ptrIN3mlx4core3CosEEERNS2_2io18ParallelFileReaderENS2_6StreamEE, 
                       __ZTSFNSt3__110shared_ptrIN3mlx4core3ErfEEERNS2_2io18ParallelFileReaderENS2_6StreamEE, 
                       __ZTSFNSt3__110shared_ptrIN3mlx4core3ExpEEERNS2_2io18ParallelFileReaderENS2_6StreamEE, 
                       __ZTSFNSt3__110shared_ptrIN3mlx4core3FFTEEERNS2_2io18ParallelFileReaderENS2_6StreamEE, 
                       __ZTSFNSt3__110shared_ptrIN3mlx4core3LogEEERNS2_2io18ParallelFileReaderENS2_6StreamEE, 
                       __ZTSFNSt3__110shared_ptrIN3mlx4core3PadEEERNS2_2io18ParallelFileReaderENS2_6StreamEE, 
                       __ZTSFNSt3__110shared_ptrIN3mlx4core3QRFEEERNS2_2io18ParallelFileReaderENS2_6StreamEE, 
                       __ZTSFNSt3__110shared_ptrIN3mlx4core3SVDEEERNS2_2io18ParallelFileReaderENS2_6StreamEE, 
                       __ZTSFNSt3__110shared_ptrIN3mlx4core3SinEEERNS2_2io18ParallelFileReaderENS2_6StreamEE, 
                       __ZTSFNSt3__110shared_ptrIN3mlx4core3TanEEERNS2_2io18ParallelFileReaderENS2_6StreamEE, 
                       __ZTSFNSt3__110shared_ptrIN3mlx4core4CeilEEERNS2_2io18ParallelFileReaderENS2_6StreamEE, 
                       __ZTSFNSt3__110shared_ptrIN3mlx4core4CopyEEERNS2_2io18ParallelFileReaderENS2_6StreamEE, 
                       __ZTSFNSt3__110shared_ptrIN3mlx4core4CoshEEERNS2_2io18ParallelFileReaderENS2_6StreamEE, 
                       __ZTSFNSt3__110shared_ptrIN3mlx4core4EighEEERNS2_2io18ParallelFileReaderENS2_6StreamEE, 
                       __ZTSFNSt3__110shared_ptrIN3mlx4core4FullEEERNS2_2io18ParallelFileReaderENS2_6StreamEE, 
                       __ZTSFNSt3__110shared_ptrIN3mlx4core4ImagEEERNS2_2io18ParallelFileReaderENS2_6StreamEE, 
                       __ZTSFNSt3__110shared_ptrIN3mlx4core4LessEEERNS2_2io18ParallelFileReaderENS2_6StreamEE, 
                       __ZTSFNSt3__110shared_ptrIN3mlx4core4RealEEERNS2_2io18ParallelFileReaderENS2_6StreamEE, 
                       __ZTSFNSt3__110shared_ptrIN3mlx4core4ScanEEERNS2_2io18ParallelFileReaderENS2_6StreamEE, 
                       __ZTSFNSt3__110shared_ptrIN3mlx4core4SignEEERNS2_2io18ParallelFileReaderENS2_6StreamEE, 
                       __ZTSFNSt3__110shared_ptrIN3mlx4core4SinhEEERNS2_2io18ParallelFileReaderENS2_6StreamEE, 
                       __ZTSFNSt3__110shared_ptrIN3mlx4core4SortEEERNS2_2io18ParallelFileReaderENS2_6StreamEE, 
                       __ZTSFNSt3__110shared_ptrIN3mlx4core4SqrtEEERNS2_2io18ParallelFileReaderENS2_6StreamEE, 
                       __ZTSFNSt3__110shared_ptrIN3mlx4core4TanhEEERNS2_2io18ParallelFileReaderENS2_6StreamEE, 
                       __ZTSFNSt3__110shared_ptrIN3mlx4core4ViewEEERNS2_2io18ParallelFileReaderENS2_6StreamEE, 
                       __ZTSFNSt3__110shared_ptrIN3mlx4core4fast10RMSNormVJPEEERNS2_2io18ParallelFileReaderENS2_6StreamEE, 
                       __ZTSFNSt3__110shared_ptrIN3mlx4core4fast12LayerNormVJPEEERNS2_2io18ParallelFileReaderENS2_6StreamEE, 
                       __ZTSFNSt3__110shared_ptrIN3mlx4core4fast14AffineQuantizeEEERNS2_2io18ParallelFileReaderENS2_6StreamEE, 
                       __ZTSFNSt3__110shared_ptrIN3mlx4core4fast25ScaledDotProductAttentionEEERNS2_2io18ParallelFileReaderENS2_6StreamEE, 
                       __ZTSFNSt3__110shared_ptrIN3mlx4core4fast4RoPEEEERNS2_2io18ParallelFileReaderENS2_6StreamEE, 
                       __ZTSFNSt3__110shared_ptrIN3mlx4core4fast7RMSNormEEERNS2_2io18ParallelFileReaderENS2_6StreamEE, 
                       __ZTSFNSt3__110shared_ptrIN3mlx4core4fast9LayerNormEEERNS2_2io18ParallelFileReaderENS2_6StreamEE, 
                       __ZTSFNSt3__110shared_ptrIN3mlx4core5AddMMEEERNS2_2io18ParallelFileReaderENS2_6StreamEE, 
                       __ZTSFNSt3__110shared_ptrIN3mlx4core5EqualEEERNS2_2io18ParallelFileReaderENS2_6StreamEE, 
                       __ZTSFNSt3__110shared_ptrIN3mlx4core5Expm1EEERNS2_2io18ParallelFileReaderENS2_6StreamEE, 
                       __ZTSFNSt3__110shared_ptrIN3mlx4core5FloorEEERNS2_2io18ParallelFileReaderENS2_6StreamEE, 
                       __ZTSFNSt3__110shared_ptrIN3mlx4core5Log1pEEERNS2_2io18ParallelFileReaderENS2_6StreamEE, 
                       __ZTSFNSt3__110shared_ptrIN3mlx4core5PowerEEERNS2_2io18ParallelFileReaderENS2_6StreamEE, 
                       __ZTSFNSt3__110shared_ptrIN3mlx4core5RoundEEERNS2_2io18ParallelFileReaderENS2_6StreamEE, 
                       __ZTSFNSt3__110shared_ptrIN3mlx4core5SliceEEERNS2_2io18ParallelFileReaderENS2_6StreamEE, 
                       __ZTSFNSt3__110shared_ptrIN3mlx4core5SplitEEERNS2_2io18ParallelFileReaderENS2_6StreamEE, 
                       __ZTSFNSt3__110shared_ptrIN3mlx4core6ArangeEEERNS2_2io18ParallelFileReaderENS2_6StreamEE, 
                       __ZTSFNSt3__110shared_ptrIN3mlx4core6ArcCosEEERNS2_2io18ParallelFileReaderENS2_6StreamEE, 
                       __ZTSFNSt3__110shared_ptrIN3mlx4core6ArcSinEEERNS2_2io18ParallelFileReaderENS2_6StreamEE, 
                       __ZTSFNSt3__110shared_ptrIN3mlx4core6ArcTanEEERNS2_2io18ParallelFileReaderENS2_6StreamEE, 
                       __ZTSFNSt3__110shared_ptrIN3mlx4core6AsTypeEEERNS2_2io18ParallelFileReaderENS2_6StreamEE, 
                       __ZTSFNSt3__110shared_ptrIN3mlx4core6DivModEEERNS2_2io18ParallelFileReaderENS2_6StreamEE, 
                       __ZTSFNSt3__110shared_ptrIN3mlx4core6DivideEEERNS2_2io18ParallelFileReaderENS2_6StreamEE, 
                       __ZTSFNSt3__110shared_ptrIN3mlx4core6ErfInvEEERNS2_2io18ParallelFileReaderENS2_6StreamEE, 
                       __ZTSFNSt3__110shared_ptrIN3mlx4core6GatherEEERNS2_2io18ParallelFileReaderENS2_6StreamEE, 
                       __ZTSFNSt3__110shared_ptrIN3mlx4core6MatmulEEERNS2_2io18ParallelFileReaderENS2_6StreamEE, 
                       __ZTSFNSt3__110shared_ptrIN3mlx4core6ReduceEEERNS2_2io18ParallelFileReaderENS2_6StreamEE, 
                       __ZTSFNSt3__110shared_ptrIN3mlx4core6SelectEEERNS2_2io18ParallelFileReaderENS2_6StreamEE, 
                       __ZTSFNSt3__110shared_ptrIN3mlx4core6SquareEEERNS2_2io18ParallelFileReaderENS2_6StreamEE, 
                       __ZTSFNSt3__110shared_ptrIN3mlx4core7ArcCoshEEERNS2_2io18ParallelFileReaderENS2_6StreamEE, 
                       __ZTSFNSt3__110shared_ptrIN3mlx4core7ArcSinhEEERNS2_2io18ParallelFileReaderENS2_6StreamEE, 
                       __ZTSFNSt3__110shared_ptrIN3mlx4core7ArcTan2EEERNS2_2io18ParallelFileReaderENS2_6StreamEE, 
                       __ZTSFNSt3__110shared_ptrIN3mlx4core7ArcTanhEEERNS2_2io18ParallelFileReaderENS2_6StreamEE, 
                       __ZTSFNSt3__110shared_ptrIN3mlx4core7ArgSortEEERNS2_2io18ParallelFileReaderENS2_6StreamEE, 
                       __ZTSFNSt3__110shared_ptrIN3mlx4core7DependsEEERNS2_2io18ParallelFileReaderENS2_6StreamEE, 
                       __ZTSFNSt3__110shared_ptrIN3mlx4core7FlattenEEERNS2_2io18ParallelFileReaderENS2_6StreamEE, 
                       __ZTSFNSt3__110shared_ptrIN3mlx4core7GreaterEEERNS2_2io18ParallelFileReaderENS2_6StreamEE, 
                       __ZTSFNSt3__110shared_ptrIN3mlx4core7InverseEEERNS2_2io18ParallelFileReaderENS2_6StreamEE, 
                       __ZTSFNSt3__110shared_ptrIN3mlx4core7MaximumEEERNS2_2io18ParallelFileReaderENS2_6StreamEE, 
                       __ZTSFNSt3__110shared_ptrIN3mlx4core7MinimumEEERNS2_2io18ParallelFileReaderENS2_6StreamEE, 
                       __ZTSFNSt3__110shared_ptrIN3mlx4core7ReshapeEEERNS2_2io18ParallelFileReaderENS2_6StreamEE, 
                       __ZTSFNSt3__110shared_ptrIN3mlx4core7ScatterEEERNS2_2io18ParallelFileReaderENS2_6StreamEE, 
                       __ZTSFNSt3__110shared_ptrIN3mlx4core7SigmoidEEERNS2_2io18ParallelFileReaderENS2_6StreamEE, 
                       __ZTSFNSt3__110shared_ptrIN3mlx4core7SoftmaxEEERNS2_2io18ParallelFileReaderENS2_6StreamEE, 
                       __ZTSFNSt3__110shared_ptrIN3mlx4core7SqueezeEEERNS2_2io18ParallelFileReaderENS2_6StreamEE, 
                       __ZTSFNSt3__110shared_ptrIN3mlx4core8CholeskyEEERNS2_2io18ParallelFileReaderENS2_6StreamEE, 
                       __ZTSFNSt3__110shared_ptrIN3mlx4core8GatherMMEEERNS2_2io18ParallelFileReaderENS2_6StreamEE, 
                       __ZTSFNSt3__110shared_ptrIN3mlx4core8HadamardEEERNS2_2io18ParallelFileReaderENS2_6StreamEE, 
                       __ZTSFNSt3__110shared_ptrIN3mlx4core8MultiplyEEERNS2_2io18ParallelFileReaderENS2_6StreamEE, 
                       __ZTSFNSt3__110shared_ptrIN3mlx4core8NegativeEEERNS2_2io18ParallelFileReaderENS2_6StreamEE, 
                       __ZTSFNSt3__110shared_ptrIN3mlx4core8NotEqualEEERNS2_2io18ParallelFileReaderENS2_6StreamEE, 
                       __ZTSFNSt3__110shared_ptrIN3mlx4core8SubtractEEERNS2_2io18ParallelFileReaderENS2_6StreamEE, 
                       __ZTSFNSt3__110shared_ptrIN3mlx4core9ArgReduceEEERNS2_2io18ParallelFileReaderENS2_6StreamEE, 
                       __ZTSFNSt3__110shared_ptrIN3mlx4core9AsStridedEEERNS2_2io18ParallelFileReaderENS2_6StreamEE, 
                       __ZTSFNSt3__110shared_ptrIN3mlx4core9BroadcastEEERNS2_2io18ParallelFileReaderENS2_6StreamEE, 
                       __ZTSFNSt3__110shared_ptrIN3mlx4core9ConjugateEEERNS2_2io18ParallelFileReaderENS2_6StreamEE, 
                       __ZTSFNSt3__110shared_ptrIN3mlx4core9GatherQMMEEERNS2_2io18ParallelFileReaderENS2_6StreamEE, 
                       __ZTSFNSt3__110shared_ptrIN3mlx4core9LessEqualEEERNS2_2io18ParallelFileReaderENS2_6StreamEE, 
                       __ZTSFNSt3__110shared_ptrIN3mlx4core9LogAddExpEEERNS2_2io18ParallelFileReaderENS2_6StreamEE, 
                       __ZTSFNSt3__110shared_ptrIN3mlx4core9LogSumExpEEERNS2_2io18ParallelFileReaderENS2_6StreamEE, 
                       __ZTSFNSt3__110shared_ptrIN3mlx4core9LogicalOrEEERNS2_2io18ParallelFileReaderENS2_6StreamEE, 
                       __ZTSFNSt3__110shared_ptrIN3mlx4core9PartitionEEERNS2_2io18ParallelFileReaderENS2_6StreamEE, 
                       __ZTSFNSt3__110shared_ptrIN3mlx4core9RemainderEEERNS2_2io18ParallelFileReaderENS2_6StreamEE, 
                       __ZTSFNSt3__110shared_ptrIN3mlx4core9TransposeEEERNS2_2io18ParallelFileReaderENS2_6StreamEE, 
                       __ZTSFNSt3__110shared_ptrIN3mlx4core9UnflattenEEERNS2_2io18ParallelFileReaderENS2_6StreamEE, 
                       __ZTSFNSt3__16vectorIN3mlx4core5arrayENS_9allocatorIS3_EEEERKS6_E, 
                       __ZTSFvN3mlx4core9allocator6BufferEE, __ZTSFvRN3mlx4core2io10FileWriterERKNS0_9PrimitiveEE, 
                       __ZTSN3fmt3v1112format_errorE, __ZTSN3fmt3v1112format_facetINSt3__16localeEEE, 
                       __ZTSN3mlx4core11distributed13DistPrimitiveE, __ZTSN3mlx4core11distributed3mpi8MPIGroupE, 
                       __ZTSN3mlx4core11distributed4ring9RingGroupE, __ZTSN3mlx4core11distributed6detail10EmptyGroupE, 
                       __ZTSN3mlx4core11distributed6detail9GroupImplE, __ZTSN3mlx4core12SynchronizerE, 
                       __ZTSN3mlx4core14UnaryPrimitiveE, __ZTSN3mlx4core2io10FileWriterE, 
                       __ZTSN3mlx4core2io16SlicedFileReaderE, __ZTSN3mlx4core2io6ReaderE, 
                       __ZTSN3mlx4core2io6WriterE, __ZTSN3mlx4core9allocator9AllocatorE, 
                       __ZTSN8nlohmann16json_abi_v3_11_36detail10type_errorE, __ZTSN8nlohmann16json_abi_v3_11_36detail11parse_errorE, 
                       __ZTSN8nlohmann16json_abi_v3_11_36detail12out_of_rangeE, __ZTSN8nlohmann16json_abi_v3_11_36detail16invalid_iteratorE, 
                       __ZTSN8nlohmann16json_abi_v3_11_36detail21output_string_adapterIcNSt3__112basic_stringIcNS3_11char_traitsIcEENS3_9allocatorIcEEEEEE, 
                       __ZTSN8nlohmann16json_abi_v3_11_36detail23output_adapter_protocolIcEE, 
                       __ZTSN8nlohmann16json_abi_v3_11_36detail9exceptionE, __ZTSNSt3__110__back_refIcEE, 
                       __ZTSNSt3__110__function34__maybe_derive_from_unary_functionIFNS_6vectorIN3mlx4core5arrayENS_9allocatorIS5_EEEES8_EEE, 
                       __ZTSNSt3__110__function35__maybe_derive_from_binary_functionIFNS_6vectorIN3mlx4core5arrayENS_9allocatorIS5_EEEES8_EEE, 
                       __ZTSNSt3__110__function6__baseIFN3mlx4core5arrayERKS4_EEE, 
                       __ZTSNSt3__110__function6__baseIFN3mlx4core5arrayERKS4_S6_EEE, 
                       __ZTSNSt3__110__function6__baseIFNS_10shared_ptrIN3mlx4core9PrimitiveEEERNS4_2io18ParallelFileReaderENS4_6StreamEEEE, 
                       __ZTSNSt3__110__function6__baseIFNS_12basic_stringIcNS_11char_traitsIcEENS_9allocatorIcEEEEvEEE, 
                       __ZTSNSt3__110__function6__baseIFNS_4pairINS_6vectorIN3mlx4core5arrayENS_9allocatorIS6_EEEENS3_IiNS7_IiEEEEEERKS9_RKSB_EEE, 
                       __ZTSNSt3__110__function6__baseIFNS_4pairINS_6vectorIN3mlx4core5arrayENS_9allocatorIS6_EEEES9_EERKS9_EEE, 
                       __ZTSNSt3__110__function6__baseIFNS_6vectorIN3mlx4core5arrayENS_9allocatorIS5_EEEERKS8_EEE, 
                       __ZTSNSt3__110__function6__baseIFNS_6vectorIN3mlx4core5arrayENS_9allocatorIS5_EEEERKS8_RKNS2_INS2_IiNS6_IiEEEENS6_ISC_EEEERKNS2_INS4_5DtypeENS6_ISH_EEEENS_5tupleIJiiiEEESN_NS2_INS_4pairINS_12basic_stringIcNS_11char_traitsIcEENS6_IcEEEENS_7variantIJibSH_EEEEENS6_ISW_EEEENS_8optionalIfEEbNSU_IJNS_9monostateENS4_6StreamENS4_6DeviceEEEEEEE, 
                       __ZTSNSt3__110__function6__baseIFNS_6vectorIN3mlx4core5arrayENS_9allocatorIS5_EEEERKS8_RKNS_13unordered_mapINS_12basic_stringIcNS_11char_traitsIcEENS6_IcEEEES5_NS_4hashISG_EENS_8equal_toISG_EENS6_INS_4pairIKSG_S5_EEEEEEEEE, 
                       __ZTSNSt3__110__function6__baseIFNS_6vectorIN3mlx4core5arrayENS_9allocatorIS5_EEEERKS8_SA_RKNS2_IiNS6_IiEEEEEEE, 
                       __ZTSNSt3__110__function6__baseIFNS_6vectorIN3mlx4core5arrayENS_9allocatorIS5_EEEERKS8_SA_SA_EEE, 
                       __ZTSNSt3__110__function6__baseIFNS_6vectorIN3mlx4core5arrayENS_9allocatorIS5_EEEES8_EEE, 
                       __ZTSNSt3__110__function6__baseIFvN3mlx4core5arrayEEEE, __ZTSNSt3__110__function6__baseIFvN3mlx4core9allocator6BufferEEEE, 
                       __ZTSNSt3__110__function6__baseIFvPN3MTL13CommandBufferEEEE, 
                       __ZTSNSt3__110__function6__baseIFvPvEEE, __ZTSNSt3__110__function6__baseIFvRKN3mlx4core5arrayEEEE, 
                       __ZTSNSt3__110__function6__baseIFvRKN3mlx4core5arrayEiRKNS3_6StreamERKNS_6vectorIiNS_9allocatorIiEEEEEEE, 
                       __ZTSNSt3__110__function6__baseIFvRN3mlx4core2io10FileWriterERKNS3_9PrimitiveEEEE, 
                       __ZTSNSt3__110__function6__baseIFvRN3mlx4core5arrayEEEE, __ZTSNSt3__110__function6__baseIFviEEE, 
                       __ZTSNSt3__110__function6__baseIFviiEEE, __ZTSNSt3__110__function6__baseIFvvEEE, 
                       __ZTSNSt3__110__function6__funcINS_6__bindIRPFiPKvPviS5_S5_S5_EJS4_S5_mS5_S5_RS5_EEEFvvEEE, 
                       __ZTSNSt3__110__function6__funcINS_6__bindIRPFiPKviPvS5_iS5_S5_EJS4_mS5_S5_mS5_RS5_EEEFvvEEE, 
                       __ZTSNSt3__110__function6__funcINS_6__bindIRPFiPKviPviiS5_EJS4_mS5_RiiRS5_EEEFvvEEE, 
                       __ZTSNSt3__110__function6__funcINS_6__bindIZN3mlx4core12inverse_implIdEEvRKNS4_5arrayERS6_bbNS4_6StreamEEUlvE0_JEEEFvvEEE, 
                       __ZTSNSt3__110__function6__funcINS_6__bindIZN3mlx4core12inverse_implIdEEvRKNS4_5arrayERS6_bbNS4_6StreamEEUlvE_JEEEFvvEEE, 
                       __ZTSNSt3__110__function6__funcINS_6__bindIZN3mlx4core12inverse_implIfEEvRKNS4_5arrayERS6_bbNS4_6StreamEEUlvE0_JEEEFvvEEE, 
                       __ZTSNSt3__110__function6__funcINS_6__bindIZN3mlx4core12inverse_implIfEEvRKNS4_5arrayERS6_bbNS4_6StreamEEUlvE_JEEEFvvEEE, 
                       __ZTSNSt3__110__function6__funcINS_6__bindIZN3mlx4core12unary_signedINS4_6detail3AbsEEEvRKNS4_5arrayERS8_T_NS4_6StreamEEUlvE_JEEEFvvEEE, 
                       __ZTSNSt3__110__function6__funcINS_6__bindIZN3mlx4core13cholesky_implIdEEvRKNS4_5arrayERS6_bNS4_6StreamEEUlvE_JEEEFvvEEE, 
                       __ZTSNSt3__110__function6__funcINS_6__bindIZN3mlx4core13cholesky_implIfEEvRKNS4_5arrayERS6_bNS4_6StreamEEUlvE_JEEEFvvEEE, 
                       __ZTSNSt3__110__function6__funcINS_6__bindIZN3mlx4core13unary_complexINS4_6detail9ConjugateEEEvRKNS4_5arrayERS8_T_NS4_6StreamEEUlvE_JEEEFvvEEE, 
                       __ZTSNSt3__110__function6__funcINS_6__bindIZN3mlx4core13unary_real_fpINS4_6detail3ErfEEEvRKNS4_5arrayERS8_T_NS4_6StreamEEUlvE_JEEEFvvEEE, 
                       __ZTSNSt3__110__function6__funcINS_6__bindIZN3mlx4core13unary_real_fpINS4_6detail6ErfInvEEEvRKNS4_5arrayERS8_T_NS4_6StreamEEUlvE_JEEEFvvEEE, 
                       __ZTSNSt3__110__function6__funcINS_6__bindIZN3mlx4core15matmul_dispatchINS4_12_MLX_Float16EEEvRKNS4_5arrayES9_RS7_bbmmffNS4_6StreamEEUlvE_JEEEFvvEEE, 
                       __ZTSNSt3__110__function6__funcINS_6__bindIZN3mlx4core15matmul_dispatchINS4_13_MLX_BFloat16EEEvRKNS4_5arrayES9_RS7_bbmmffNS4_6StreamEEUlvE_JEEEFvvEEE, 
                       __ZTSNSt3__110__function6__funcINS_6__bindIZN3mlx4core15matmul_dispatchIdEEvRKNS4_5arrayES8_RS6_bbmmffNS4_6StreamEEUlvE_JEEEFvvEEE, 
                       __ZTSNSt3__110__function6__funcINS_6__bindIZN3mlx4core15matmul_dispatchIfEEvRKNS4_5arrayES8_RS6_bbmmffNS4_6StreamEEUlvE_JEEEFvvEEE, 
                       __ZTSNSt3__110__function6__funcINS_6__bindIZN3mlx4core22unary_complex_to_floatINS4_6detail4ImagEEEvRKNS4_5arrayERS8_T_NS4_6StreamEEUlvE_JEEEFvvEEE, 
                       __ZTSNSt3__110__function6__funcINS_6__bindIZN3mlx4core22unary_complex_to_floatINS4_6detail4RealEEEvRKNS4_5arrayERS8_T_NS4_6StreamEEUlvE_JEEEFvvEEE, 
                       __ZTSNSt3__110__function6__funcINS_6__bindIZN3mlx4core5unaryINS4_6detail10LogicalNotEEEvRKNS4_5arrayERS8_T_NS4_6StreamEEUlvE_JEEEFvvEEE, 
                       __ZTSNSt3__110__function6__funcINS_6__bindIZN3mlx4core5unaryINS4_6detail4SignEEEvRKNS4_5arrayERS8_T_NS4_6StreamEEUlvE_JEEEFvvEEE, 
                       __ZTSNSt3__110__function6__funcINS_6__bindIZN3mlx4core5unaryINS4_6detail6SquareEEEvRKNS4_5arrayERS8_T_NS4_6StreamEEUlvE_JEEEFvvEEE, 
                       __ZTSNSt3__110__function6__funcINS_6__bindIZN3mlx4core5unaryINS4_6detail8NegativeEEEvRKNS4_5arrayERS8_T_NS4_6StreamEEUlvE_JEEEFvvEEE, 
                       __ZTSNSt3__110__function6__funcINS_6__bindIZN3mlx4core8hadamardINS4_12_MLX_Float16EEEvRNS4_5arrayEiifNS4_6StreamEEUlvE_JEEEFvvEEE, 
                       __ZTSNSt3__110__function6__funcINS_6__bindIZN3mlx4core8hadamardINS4_13_MLX_BFloat16EEEvRNS4_5arrayEiifNS4_6StreamEEUlvE_JEEEFvvEEE, 
                       __ZTSNSt3__110__function6__funcINS_6__bindIZN3mlx4core8hadamardIfEEvRNS4_5arrayEiifNS4_6StreamEEUlvE_JEEEFvvEEE, 
                       __ZTSNSt3__110__function6__funcINS_6__bindIZN3mlx4core8luf_implIdEEvRKNS4_5arrayERS6_S9_S9_NS4_6StreamEEUlvE_JEEEFvvEEE, 
                       __ZTSNSt3__110__function6__funcINS_6__bindIZN3mlx4core8luf_implIfEEvRKNS4_5arrayERS6_S9_S9_NS4_6StreamEEUlvE_JEEEFvvEEE, 
                       __ZTSNSt3__110__function6__funcINS_6__bindIZN3mlx4core8qrf_implIdEEvRKNS4_5arrayERS6_S9_NS4_6StreamEEUlvE_JEEEFvvEEE, 
                       __ZTSNSt3__110__function6__funcINS_6__bindIZN3mlx4core8qrf_implIfEEvRKNS4_5arrayERS6_S9_NS4_6StreamEEUlvE_JEEEFvvEEE, 
                       __ZTSNSt3__110__function6__funcINS_6__bindIZN3mlx4core8svd_implIdEEvRKNS4_5arrayERNS_6vectorIS6_NS_9allocatorIS6_EEEEbNS4_6StreamEEUlvE_JEEEFvvEEE, 
                       __ZTSNSt3__110__function6__funcINS_6__bindIZN3mlx4core8svd_implIfEEvRKNS4_5arrayERNS_6vectorIS6_NS_9allocatorIS6_EEEEbNS4_6StreamEEUlvE_JEEEFvvEEE, 
                       __ZTSNSt3__110__function6__funcINS_6__bindIZN3mlx4core8unary_fpINS4_6detail3CosEEEvRKNS4_5arrayERS8_T_NS4_6StreamEEUlvE_JEEEFvvEEE, 
                       __ZTSNSt3__110__function6__funcINS_6__bindIZN3mlx4core8unary_fpINS4_6detail3ExpEEEvRKNS4_5arrayERS8_T_NS4_6StreamEEUlvE_JEEEFvvEEE, 
                       __ZTSNSt3__110__function6__funcINS_6__bindIZN3mlx4core8unary_fpINS4_6detail3LogEEEvRKNS4_5arrayERS8_T_NS4_6StreamEEUlvE_JEEEFvvEEE, 
                       __ZTSNSt3__110__function6__funcINS_6__bindIZN3mlx4core8unary_fpINS4_6detail3SinEEEvRKNS4_5arrayERS8_T_NS4_6StreamEEUlvE_JEEEFvvEEE, 
                       __ZTSNSt3__110__function6__funcINS_6__bindIZN3mlx4core8unary_fpINS4_6detail3TanEEEvRKNS4_5arrayERS8_T_NS4_6StreamEEUlvE_JEEEFvvEEE, 
                       __ZTSNSt3__110__function6__funcINS_6__bindIZN3mlx4core8unary_fpINS4_6detail4CeilEEEvRKNS4_5arrayERS8_T_NS4_6StreamEEUlvE_JEEEFvvEEE, 
                       __ZTSNSt3__110__function6__funcINS_6__bindIZN3mlx4core8unary_fpINS4_6detail4CoshEEEvRKNS4_5arrayERS8_T_NS4_6StreamEEUlvE_JEEEFvvEEE, 
                       __ZTSNSt3__110__function6__funcINS_6__bindIZN3mlx4core8unary_fpINS4_6detail4Log2EEEvRKNS4_5arrayERS8_T_NS4_6StreamEEUlvE_JEEEFvvEEE, 
                       __ZTSNSt3__110__function6__funcINS_6__bindIZN3mlx4core8unary_fpINS4_6detail4SinhEEEvRKNS4_5arrayERS8_T_NS4_6StreamEEUlvE_JEEEFvvEEE, 
                       __ZTSNSt3__110__function6__funcINS_6__bindIZN3mlx4core8unary_fpINS4_6detail4SqrtEEEvRKNS4_5arrayERS8_T_NS4_6StreamEEUlvE_JEEEFvvEEE, 
                       __ZTSNSt3__110__function6__funcINS_6__bindIZN3mlx4core8unary_fpINS4_6detail4TanhEEEvRKNS4_5arrayERS8_T_NS4_6StreamEEUlvE_JEEEFvvEEE, 
                       __ZTSNSt3__110__function6__funcINS_6__bindIZN3mlx4core8unary_fpINS4_6detail5Expm1EEEvRKNS4_5arrayERS8_T_NS4_6StreamEEUlvE_JEEEFvvEEE, 
                       __ZTSNSt3__110__function6__funcINS_6__bindIZN3mlx4core8unary_fpINS4_6detail5FloorEEEvRKNS4_5arrayERS8_T_NS4_6StreamEEUlvE_JEEEFvvEEE, 
                       __ZTSNSt3__110__function6__funcINS_6__bindIZN3mlx4core8unary_fpINS4_6detail5Log10EEEvRKNS4_5arrayERS8_T_NS4_6StreamEEUlvE_JEEEFvvEEE, 
                       __ZTSNSt3__110__function6__funcINS_6__bindIZN3mlx4core8unary_fpINS4_6detail5Log1pEEEvRKNS4_5arrayERS8_T_NS4_6StreamEEUlvE_JEEEFvvEEE, 
                       __ZTSNSt3__110__function6__funcINS_6__bindIZN3mlx4core8unary_fpINS4_6detail5RoundEEEvRKNS4_5arrayERS8_T_NS4_6StreamEEUlvE_JEEEFvvEEE, 
                       __ZTSNSt3__110__function6__funcINS_6__bindIZN3mlx4core8unary_fpINS4_6detail5RsqrtEEEvRKNS4_5arrayERS8_T_NS4_6StreamEEUlvE_JEEEFvvEEE, 
                       __ZTSNSt3__110__function6__funcINS_6__bindIZN3mlx4core8unary_fpINS4_6detail6ArcCosEEEvRKNS4_5arrayERS8_T_NS4_6StreamEEUlvE_JEEEFvvEEE, 
                       __ZTSNSt3__110__function6__funcINS_6__bindIZN3mlx4core8unary_fpINS4_6detail6ArcSinEEEvRKNS4_5arrayERS8_T_NS4_6StreamEEUlvE_JEEEFvvEEE, 
                       __ZTSNSt3__110__function6__funcINS_6__bindIZN3mlx4core8unary_fpINS4_6detail6ArcTanEEEvRKNS4_5arrayERS8_T_NS4_6StreamEEUlvE_JEEEFvvEEE, 
                       __ZTSNSt3__110__function6__funcINS_6__bindIZN3mlx4core8unary_fpINS4_6detail7ArcCoshEEEvRKNS4_5arrayERS8_T_NS4_6StreamEEUlvE_JEEEFvvEEE, 
                       __ZTSNSt3__110__function6__funcINS_6__bindIZN3mlx4core8unary_fpINS4_6detail7ArcSinhEEEvRKNS4_5arrayERS8_T_NS4_6StreamEEUlvE_JEEEFvvEEE, 
                       __ZTSNSt3__110__function6__funcINS_6__bindIZN3mlx4core8unary_fpINS4_6detail7ArcTanhEEEvRKNS4_5arrayERS8_T_NS4_6StreamEEUlvE_JEEEFvvEEE, 
                       __ZTSNSt3__110__function6__funcINS_6__bindIZN3mlx4core8unary_fpINS4_6detail7SigmoidEEEvRKNS4_5arrayERS8_T_NS4_6StreamEEUlvE_JEEEFvvEEE, 
                       __ZTSNSt3__110__function6__funcINS_6__bindIZN3mlx4core9unary_intINS4_6detail13BitwiseInvertEEEvRKNS4_5arrayERS8_T_NS4_6StreamEEUlvE_JEEEFvvEEE, 
                       __ZTSNSt3__110__function6__funcINS_8functionIFNS_6vectorIN3mlx4core5arrayENS_9allocatorIS6_EEEES9_EEEFS9_RKS9_EEE, 
                       __ZTSNSt3__110__function6__funcIPFNS_10shared_ptrIN3mlx4core10ExpandDimsEEERNS4_2io18ParallelFileReaderENS4_6StreamEEFNS2_INS4_9PrimitiveEEES9_SA_EEE, 
                       __ZTSNSt3__110__function6__funcIPFNS_10shared_ptrIN3mlx4core10GatherAxisEEERNS4_2io18ParallelFileReaderENS4_6StreamEEFNS2_INS4_9PrimitiveEEES9_SA_EEE, 
                       __ZTSNSt3__110__function6__funcIPFNS_10shared_ptrIN3mlx4core10LogicalAndEEERNS4_2io18ParallelFileReaderENS4_6StreamEEFNS2_INS4_9PrimitiveEEES9_SA_EEE, 
                       __ZTSNSt3__110__function6__funcIPFNS_10shared_ptrIN3mlx4core10LogicalNotEEERNS4_2io18ParallelFileReaderENS4_6StreamEEFNS2_INS4_9PrimitiveEEES9_SA_EEE, 
                       __ZTSNSt3__110__function6__funcIPFNS_10shared_ptrIN3mlx4core10RandomBitsEEERNS4_2io18ParallelFileReaderENS4_6StreamEEFNS2_INS4_9PrimitiveEEES9_SA_EEE, 
                       __ZTSNSt3__110__function6__funcIPFNS_10shared_ptrIN3mlx4core11ConcatenateEEERNS4_2io18ParallelFileReaderENS4_6StreamEEFNS2_INS4_9PrimitiveEEES9_SA_EEE, 
                       __ZTSNSt3__110__function6__funcIPFNS_10shared_ptrIN3mlx4core11ConvolutionEEERNS4_2io18ParallelFileReaderENS4_6StreamEEFNS2_INS4_9PrimitiveEEES9_SA_EEE, 
                       __ZTSNSt3__110__function6__funcIPFNS_10shared_ptrIN3mlx4core11ScatterAxisEEERNS4_2io18ParallelFileReaderENS4_6StreamEEFNS2_INS4_9PrimitiveEEES9_SA_EEE, 
                       __ZTSNSt3__110__function6__funcIPFNS_10shared_ptrIN3mlx4core11SliceUpdateEEERNS4_2io18ParallelFileReaderENS4_6StreamEEFNS2_INS4_9PrimitiveEEES9_SA_EEE, 
                       __ZTSNSt3__110__function6__funcIPFNS_10shared_ptrIN3mlx4core12ArgPartitionEEERNS4_2io18ParallelFileReaderENS4_6StreamEEFNS2_INS4_9PrimitiveEEES9_SA_EEE, 
                       __ZTSNSt3__110__function6__funcIPFNS_10shared_ptrIN3mlx4core12DynamicSliceEEERNS4_2io18ParallelFileReaderENS4_6StreamEEFNS2_INS4_9PrimitiveEEES9_SA_EEE, 
                       __ZTSNSt3__110__function6__funcIPFNS_10shared_ptrIN3mlx4core12GreaterEqualEEERNS4_2io18ParallelFileReaderENS4_6StreamEEFNS2_INS4_9PrimitiveEEES9_SA_EEE, 
                       __ZTSNSt3__110__function6__funcIPFNS_10shared_ptrIN3mlx4core12StopGradientEEERNS4_2io18ParallelFileReaderENS4_6StreamEEFNS2_INS4_9PrimitiveEEES9_SA_EEE, 
                       __ZTSNSt3__110__function6__funcIPFNS_10shared_ptrIN3mlx4core13BitwiseBinaryEEERNS4_2io18ParallelFileReaderENS4_6StreamEEFNS2_INS4_9PrimitiveEEES9_SA_EEE, 
                       __ZTSNSt3__110__function6__funcIPFNS_10shared_ptrIN3mlx4core13BlockMaskedMMEEERNS4_2io18ParallelFileReaderENS4_6StreamEEFNS2_INS4_9PrimitiveEEES9_SA_EEE, 
                       __ZTSNSt3__110__function6__funcIPFNS_10shared_ptrIN3mlx4core13BroadcastAxesEEERNS4_2io18ParallelFileReaderENS4_6StreamEEFNS2_INS4_9PrimitiveEEES9_SA_EEE, 
                       __ZTSNSt3__110__function6__funcIPFNS_10shared_ptrIN3mlx4core15QuantizedMatmulEEERNS4_2io18ParallelFileReaderENS4_6StreamEEFNS2_INS4_9PrimitiveEEES9_SA_EEE, 
                       __ZTSNSt3__110__function6__funcIPFNS_10shared_ptrIN3mlx4core16NumberOfElementsEEERNS4_2io18ParallelFileReaderENS4_6StreamEEFNS2_INS4_9PrimitiveEEES9_SA_EEE, 
                       __ZTSNSt3__110__function6__funcIPFNS_10shared_ptrIN3mlx4core18DynamicSliceUpdateEEERNS4_2io18ParallelFileReaderENS4_6StreamEEFNS2_INS4_9PrimitiveEEES9_SA_EEE, 
                       __ZTSNSt3__110__function6__funcIPFNS_10shared_ptrIN3mlx4core3AbsEEERNS4_2io18ParallelFileReaderENS4_6StreamEEFNS2_INS4_9PrimitiveEEES9_SA_EEE, 
                       __ZTSNSt3__110__function6__funcIPFNS_10shared_ptrIN3mlx4core3AddEEERNS4_2io18ParallelFileReaderENS4_6StreamEEFNS2_INS4_9PrimitiveEEES9_SA_EEE, 
                       __ZTSNSt3__110__function6__funcIPFNS_10shared_ptrIN3mlx4core3CosEEERNS4_2io18ParallelFileReaderENS4_6StreamEEFNS2_INS4_9PrimitiveEEES9_SA_EEE, 
                       __ZTSNSt3__110__function6__funcIPFNS_10shared_ptrIN3mlx4core3ErfEEERNS4_2io18ParallelFileReaderENS4_6StreamEEFNS2_INS4_9PrimitiveEEES9_SA_EEE, 
                       __ZTSNSt3__110__function6__funcIPFNS_10shared_ptrIN3mlx4core3ExpEEERNS4_2io18ParallelFileReaderENS4_6StreamEEFNS2_INS4_9PrimitiveEEES9_SA_EEE, 
                       __ZTSNSt3__110__function6__funcIPFNS_10shared_ptrIN3mlx4core3FFTEEERNS4_2io18ParallelFileReaderENS4_6StreamEEFNS2_INS4_9PrimitiveEEES9_SA_EEE, 
                       __ZTSNSt3__110__function6__funcIPFNS_10shared_ptrIN3mlx4core3LogEEERNS4_2io18ParallelFileReaderENS4_6StreamEEFNS2_INS4_9PrimitiveEEES9_SA_EEE, 
                       __ZTSNSt3__110__function6__funcIPFNS_10shared_ptrIN3mlx4core3PadEEERNS4_2io18ParallelFileReaderENS4_6StreamEEFNS2_INS4_9PrimitiveEEES9_SA_EEE, 
                       __ZTSNSt3__110__function6__funcIPFNS_10shared_ptrIN3mlx4core3QRFEEERNS4_2io18ParallelFileReaderENS4_6StreamEEFNS2_INS4_9PrimitiveEEES9_SA_EEE, 
                       __ZTSNSt3__110__function6__funcIPFNS_10shared_ptrIN3mlx4core3SVDEEERNS4_2io18ParallelFileReaderENS4_6StreamEEFNS2_INS4_9PrimitiveEEES9_SA_EEE, 
                       __ZTSNSt3__110__function6__funcIPFNS_10shared_ptrIN3mlx4core3SinEEERNS4_2io18ParallelFileReaderENS4_6StreamEEFNS2_INS4_9PrimitiveEEES9_SA_EEE, 
                       __ZTSNSt3__110__function6__funcIPFNS_10shared_ptrIN3mlx4core3TanEEERNS4_2io18ParallelFileReaderENS4_6StreamEEFNS2_INS4_9PrimitiveEEES9_SA_EEE, 
                       __ZTSNSt3__110__function6__funcIPFNS_10shared_ptrIN3mlx4core4CeilEEERNS4_2io18ParallelFileReaderENS4_6StreamEEFNS2_INS4_9PrimitiveEEES9_SA_EEE, 
                       __ZTSNSt3__110__function6__funcIPFNS_10shared_ptrIN3mlx4core4CopyEEERNS4_2io18ParallelFileReaderENS4_6StreamEEFNS2_INS4_9PrimitiveEEES9_SA_EEE, 
                       __ZTSNSt3__110__function6__funcIPFNS_10shared_ptrIN3mlx4core4CoshEEERNS4_2io18ParallelFileReaderENS4_6StreamEEFNS2_INS4_9PrimitiveEEES9_SA_EEE, 
                       __ZTSNSt3__110__function6__funcIPFNS_10shared_ptrIN3mlx4core4EighEEERNS4_2io18ParallelFileReaderENS4_6StreamEEFNS2_INS4_9PrimitiveEEES9_SA_EEE, 
                       __ZTSNSt3__110__function6__funcIPFNS_10shared_ptrIN3mlx4core4FullEEERNS4_2io18ParallelFileReaderENS4_6StreamEEFNS2_INS4_9PrimitiveEEES9_SA_EEE, 
                       __ZTSNSt3__110__function6__funcIPFNS_10shared_ptrIN3mlx4core4ImagEEERNS4_2io18ParallelFileReaderENS4_6StreamEEFNS2_INS4_9PrimitiveEEES9_SA_EEE, 
                       __ZTSNSt3__110__function6__funcIPFNS_10shared_ptrIN3mlx4core4LessEEERNS4_2io18ParallelFileReaderENS4_6StreamEEFNS2_INS4_9PrimitiveEEES9_SA_EEE, 
                       __ZTSNSt3__110__function6__funcIPFNS_10shared_ptrIN3mlx4core4RealEEERNS4_2io18ParallelFileReaderENS4_6StreamEEFNS2_INS4_9PrimitiveEEES9_SA_EEE, 
                       __ZTSNSt3__110__function6__funcIPFNS_10shared_ptrIN3mlx4core4ScanEEERNS4_2io18ParallelFileReaderENS4_6StreamEEFNS2_INS4_9PrimitiveEEES9_SA_EEE, 
                       __ZTSNSt3__110__function6__funcIPFNS_10shared_ptrIN3mlx4core4SignEEERNS4_2io18ParallelFileReaderENS4_6StreamEEFNS2_INS4_9PrimitiveEEES9_SA_EEE, 
                       __ZTSNSt3__110__function6__funcIPFNS_10shared_ptrIN3mlx4core4SinhEEERNS4_2io18ParallelFileReaderENS4_6StreamEEFNS2_INS4_9PrimitiveEEES9_SA_EEE, 
                       __ZTSNSt3__110__function6__funcIPFNS_10shared_ptrIN3mlx4core4SortEEERNS4_2io18ParallelFileReaderENS4_6StreamEEFNS2_INS4_9PrimitiveEEES9_SA_EEE, 
                       __ZTSNSt3__110__function6__funcIPFNS_10shared_ptrIN3mlx4core4SqrtEEERNS4_2io18ParallelFileReaderENS4_6StreamEEFNS2_INS4_9PrimitiveEEES9_SA_EEE, 
                       __ZTSNSt3__110__function6__funcIPFNS_10shared_ptrIN3mlx4core4TanhEEERNS4_2io18ParallelFileReaderENS4_6StreamEEFNS2_INS4_9PrimitiveEEES9_SA_EEE, 
                       __ZTSNSt3__110__function6__funcIPFNS_10shared_ptrIN3mlx4core4ViewEEERNS4_2io18ParallelFileReaderENS4_6StreamEEFNS2_INS4_9PrimitiveEEES9_SA_EEE, 
                       __ZTSNSt3__110__function6__funcIPFNS_10shared_ptrIN3mlx4core4fast10RMSNormVJPEEERNS4_2io18ParallelFileReaderENS4_6StreamEEFNS2_INS4_9PrimitiveEEESA_SB_EEE, 
                       __ZTSNSt3__110__function6__funcIPFNS_10shared_ptrIN3mlx4core4fast12LayerNormVJPEEERNS4_2io18ParallelFileReaderENS4_6StreamEEFNS2_INS4_9PrimitiveEEESA_SB_EEE, 
                       __ZTSNSt3__110__function6__funcIPFNS_10shared_ptrIN3mlx4core4fast14AffineQuantizeEEERNS4_2io18ParallelFileReaderENS4_6StreamEEFNS2_INS4_9PrimitiveEEESA_SB_EEE, 
                       __ZTSNSt3__110__function6__funcIPFNS_10shared_ptrIN3mlx4core4fast25ScaledDotProductAttentionEEERNS4_2io18ParallelFileReaderENS4_6StreamEEFNS2_INS4_9PrimitiveEEESA_SB_EEE, 
                       __ZTSNSt3__110__function6__funcIPFNS_10shared_ptrIN3mlx4core4fast4RoPEEEERNS4_2io18ParallelFileReaderENS4_6StreamEEFNS2_INS4_9PrimitiveEEESA_SB_EEE, 
                       __ZTSNSt3__110__function6__funcIPFNS_10shared_ptrIN3mlx4core4fast7RMSNormEEERNS4_2io18ParallelFileReaderENS4_6StreamEEFNS2_INS4_9PrimitiveEEESA_SB_EEE, 
                       __ZTSNSt3__110__function6__funcIPFNS_10shared_ptrIN3mlx4core4fast9LayerNormEEERNS4_2io18ParallelFileReaderENS4_6StreamEEFNS2_INS4_9PrimitiveEEESA_SB_EEE, 
                       __ZTSNSt3__110__function6__funcIPFNS_10shared_ptrIN3mlx4core5AddMMEEERNS4_2io18ParallelFileReaderENS4_6StreamEEFNS2_INS4_9PrimitiveEEES9_SA_EEE, 
                       __ZTSNSt3__110__function6__funcIPFNS_10shared_ptrIN3mlx4core5EqualEEERNS4_2io18ParallelFileReaderENS4_6StreamEEFNS2_INS4_9PrimitiveEEES9_SA_EEE, 
                       __ZTSNSt3__110__function6__funcIPFNS_10shared_ptrIN3mlx4core5Expm1EEERNS4_2io18ParallelFileReaderENS4_6StreamEEFNS2_INS4_9PrimitiveEEES9_SA_EEE, 
                       __ZTSNSt3__110__function6__funcIPFNS_10shared_ptrIN3mlx4core5FloorEEERNS4_2io18ParallelFileReaderENS4_6StreamEEFNS2_INS4_9PrimitiveEEES9_SA_EEE, 
                       __ZTSNSt3__110__function6__funcIPFNS_10shared_ptrIN3mlx4core5Log1pEEERNS4_2io18ParallelFileReaderENS4_6StreamEEFNS2_INS4_9PrimitiveEEES9_SA_EEE, 
                       __ZTSNSt3__110__function6__funcIPFNS_10shared_ptrIN3mlx4core5PowerEEERNS4_2io18ParallelFileReaderENS4_6StreamEEFNS2_INS4_9PrimitiveEEES9_SA_EEE, 
                       __ZTSNSt3__110__function6__funcIPFNS_10shared_ptrIN3mlx4core5RoundEEERNS4_2io18ParallelFileReaderENS4_6StreamEEFNS2_INS4_9PrimitiveEEES9_SA_EEE, 
                       __ZTSNSt3__110__function6__funcIPFNS_10shared_ptrIN3mlx4core5SliceEEERNS4_2io18ParallelFileReaderENS4_6StreamEEFNS2_INS4_9PrimitiveEEES9_SA_EEE, 
                       __ZTSNSt3__110__function6__funcIPFNS_10shared_ptrIN3mlx4core5SplitEEERNS4_2io18ParallelFileReaderENS4_6StreamEEFNS2_INS4_9PrimitiveEEES9_SA_EEE, 
                       __ZTSNSt3__110__function6__funcIPFNS_10shared_ptrIN3mlx4core6ArangeEEERNS4_2io18ParallelFileReaderENS4_6StreamEEFNS2_INS4_9PrimitiveEEES9_SA_EEE, 
                       __ZTSNSt3__110__function6__funcIPFNS_10shared_ptrIN3mlx4core6ArcCosEEERNS4_2io18ParallelFileReaderENS4_6StreamEEFNS2_INS4_9PrimitiveEEES9_SA_EEE, 
                       __ZTSNSt3__110__function6__funcIPFNS_10shared_ptrIN3mlx4core6ArcSinEEERNS4_2io18ParallelFileReaderENS4_6StreamEEFNS2_INS4_9PrimitiveEEES9_SA_EEE, 
                       __ZTSNSt3__110__function6__funcIPFNS_10shared_ptrIN3mlx4core6ArcTanEEERNS4_2io18ParallelFileReaderENS4_6StreamEEFNS2_INS4_9PrimitiveEEES9_SA_EEE, 
                       __ZTSNSt3__110__function6__funcIPFNS_10shared_ptrIN3mlx4core6AsTypeEEERNS4_2io18ParallelFileReaderENS4_6StreamEEFNS2_INS4_9PrimitiveEEES9_SA_EEE, 
                       __ZTSNSt3__110__function6__funcIPFNS_10shared_ptrIN3mlx4core6DivModEEERNS4_2io18ParallelFileReaderENS4_6StreamEEFNS2_INS4_9PrimitiveEEES9_SA_EEE, 
                       __ZTSNSt3__110__function6__funcIPFNS_10shared_ptrIN3mlx4core6DivideEEERNS4_2io18ParallelFileReaderENS4_6StreamEEFNS2_INS4_9PrimitiveEEES9_SA_EEE, 
                       __ZTSNSt3__110__function6__funcIPFNS_10shared_ptrIN3mlx4core6ErfInvEEERNS4_2io18ParallelFileReaderENS4_6StreamEEFNS2_INS4_9PrimitiveEEES9_SA_EEE, 
                       __ZTSNSt3__110__function6__funcIPFNS_10shared_ptrIN3mlx4core6GatherEEERNS4_2io18ParallelFileReaderENS4_6StreamEEFNS2_INS4_9PrimitiveEEES9_SA_EEE, 
                       __ZTSNSt3__110__function6__funcIPFNS_10shared_ptrIN3mlx4core6MatmulEEERNS4_2io18ParallelFileReaderENS4_6StreamEEFNS2_INS4_9PrimitiveEEES9_SA_EEE, 
                       __ZTSNSt3__110__function6__funcIPFNS_10shared_ptrIN3mlx4core6ReduceEEERNS4_2io18ParallelFileReaderENS4_6StreamEEFNS2_INS4_9PrimitiveEEES9_SA_EEE, 
                       __ZTSNSt3__110__function6__funcIPFNS_10shared_ptrIN3mlx4core6SelectEEERNS4_2io18ParallelFileReaderENS4_6StreamEEFNS2_INS4_9PrimitiveEEES9_SA_EEE, 
                       __ZTSNSt3__110__function6__funcIPFNS_10shared_ptrIN3mlx4core6SquareEEERNS4_2io18ParallelFileReaderENS4_6StreamEEFNS2_INS4_9PrimitiveEEES9_SA_EEE, 
                       __ZTSNSt3__110__function6__funcIPFNS_10shared_ptrIN3mlx4core7ArcCoshEEERNS4_2io18ParallelFileReaderENS4_6StreamEEFNS2_INS4_9PrimitiveEEES9_SA_EEE, 
                       __ZTSNSt3__110__function6__funcIPFNS_10shared_ptrIN3mlx4core7ArcSinhEEERNS4_2io18ParallelFileReaderENS4_6StreamEEFNS2_INS4_9PrimitiveEEES9_SA_EEE, 
                       __ZTSNSt3__110__function6__funcIPFNS_10shared_ptrIN3mlx4core7ArcTan2EEERNS4_2io18ParallelFileReaderENS4_6StreamEEFNS2_INS4_9PrimitiveEEES9_SA_EEE, 
                       __ZTSNSt3__110__function6__funcIPFNS_10shared_ptrIN3mlx4core7ArcTanhEEERNS4_2io18ParallelFileReaderENS4_6StreamEEFNS2_INS4_9PrimitiveEEES9_SA_EEE, 
                       __ZTSNSt3__110__function6__funcIPFNS_10shared_ptrIN3mlx4core7ArgSortEEERNS4_2io18ParallelFileReaderENS4_6StreamEEFNS2_INS4_9PrimitiveEEES9_SA_EEE, 
                       __ZTSNSt3__110__function6__funcIPFNS_10shared_ptrIN3mlx4core7DependsEEERNS4_2io18ParallelFileReaderENS4_6StreamEEFNS2_INS4_9PrimitiveEEES9_SA_EEE, 
                       __ZTSNSt3__110__function6__funcIPFNS_10shared_ptrIN3mlx4core7FlattenEEERNS4_2io18ParallelFileReaderENS4_6StreamEEFNS2_INS4_9PrimitiveEEES9_SA_EEE, 
                       __ZTSNSt3__110__function6__funcIPFNS_10shared_ptrIN3mlx4core7GreaterEEERNS4_2io18ParallelFileReaderENS4_6StreamEEFNS2_INS4_9PrimitiveEEES9_SA_EEE, 
                       __ZTSNSt3__110__function6__funcIPFNS_10shared_ptrIN3mlx4core7InverseEEERNS4_2io18ParallelFileReaderENS4_6StreamEEFNS2_INS4_9PrimitiveEEES9_SA_EEE, 
                       __ZTSNSt3__110__function6__funcIPFNS_10shared_ptrIN3mlx4core7MaximumEEERNS4_2io18ParallelFileReaderENS4_6StreamEEFNS2_INS4_9PrimitiveEEES9_SA_EEE, 
                       __ZTSNSt3__110__function6__funcIPFNS_10shared_ptrIN3mlx4core7MinimumEEERNS4_2io18ParallelFileReaderENS4_6StreamEEFNS2_INS4_9PrimitiveEEES9_SA_EEE, 
                       __ZTSNSt3__110__function6__funcIPFNS_10shared_ptrIN3mlx4core7ReshapeEEERNS4_2io18ParallelFileReaderENS4_6StreamEEFNS2_INS4_9PrimitiveEEES9_SA_EEE, 
                       __ZTSNSt3__110__function6__funcIPFNS_10shared_ptrIN3mlx4core7ScatterEEERNS4_2io18ParallelFileReaderENS4_6StreamEEFNS2_INS4_9PrimitiveEEES9_SA_EEE, 
                       __ZTSNSt3__110__function6__funcIPFNS_10shared_ptrIN3mlx4core7SigmoidEEERNS4_2io18ParallelFileReaderENS4_6StreamEEFNS2_INS4_9PrimitiveEEES9_SA_EEE, 
                       __ZTSNSt3__110__function6__funcIPFNS_10shared_ptrIN3mlx4core7SoftmaxEEERNS4_2io18ParallelFileReaderENS4_6StreamEEFNS2_INS4_9PrimitiveEEES9_SA_EEE, 
                       __ZTSNSt3__110__function6__funcIPFNS_10shared_ptrIN3mlx4core7SqueezeEEERNS4_2io18ParallelFileReaderENS4_6StreamEEFNS2_INS4_9PrimitiveEEES9_SA_EEE, 
                       __ZTSNSt3__110__function6__funcIPFNS_10shared_ptrIN3mlx4core8CholeskyEEERNS4_2io18ParallelFileReaderENS4_6StreamEEFNS2_INS4_9PrimitiveEEES9_SA_EEE, 
                       __ZTSNSt3__110__function6__funcIPFNS_10shared_ptrIN3mlx4core8GatherMMEEERNS4_2io18ParallelFileReaderENS4_6StreamEEFNS2_INS4_9PrimitiveEEES9_SA_EEE, 
                       __ZTSNSt3__110__function6__funcIPFNS_10shared_ptrIN3mlx4core8HadamardEEERNS4_2io18ParallelFileReaderENS4_6StreamEEFNS2_INS4_9PrimitiveEEES9_SA_EEE, 
                       __ZTSNSt3__110__function6__funcIPFNS_10shared_ptrIN3mlx4core8MultiplyEEERNS4_2io18ParallelFileReaderENS4_6StreamEEFNS2_INS4_9PrimitiveEEES9_SA_EEE, 
                       __ZTSNSt3__110__function6__funcIPFNS_10shared_ptrIN3mlx4core8NegativeEEERNS4_2io18ParallelFileReaderENS4_6StreamEEFNS2_INS4_9PrimitiveEEES9_SA_EEE, 
                       __ZTSNSt3__110__function6__funcIPFNS_10shared_ptrIN3mlx4core8NotEqualEEERNS4_2io18ParallelFileReaderENS4_6StreamEEFNS2_INS4_9PrimitiveEEES9_SA_EEE, 
                       __ZTSNSt3__110__function6__funcIPFNS_10shared_ptrIN3mlx4core8SubtractEEERNS4_2io18ParallelFileReaderENS4_6StreamEEFNS2_INS4_9PrimitiveEEES9_SA_EEE, 
                       __ZTSNSt3__110__function6__funcIPFNS_10shared_ptrIN3mlx4core9ArgReduceEEERNS4_2io18ParallelFileReaderENS4_6StreamEEFNS2_INS4_9PrimitiveEEES9_SA_EEE, 
                       __ZTSNSt3__110__function6__funcIPFNS_10shared_ptrIN3mlx4core9AsStridedEEERNS4_2io18ParallelFileReaderENS4_6StreamEEFNS2_INS4_9PrimitiveEEES9_SA_EEE, 
                       __ZTSNSt3__110__function6__funcIPFNS_10shared_ptrIN3mlx4core9BroadcastEEERNS4_2io18ParallelFileReaderENS4_6StreamEEFNS2_INS4_9PrimitiveEEES9_SA_EEE, 
                       __ZTSNSt3__110__function6__funcIPFNS_10shared_ptrIN3mlx4core9ConjugateEEERNS4_2io18ParallelFileReaderENS4_6StreamEEFNS2_INS4_9PrimitiveEEES9_SA_EEE, 
                       __ZTSNSt3__110__function6__funcIPFNS_10shared_ptrIN3mlx4core9GatherQMMEEERNS4_2io18ParallelFileReaderENS4_6StreamEEFNS2_INS4_9PrimitiveEEES9_SA_EEE, 
                       __ZTSNSt3__110__function6__funcIPFNS_10shared_ptrIN3mlx4core9LessEqualEEERNS4_2io18ParallelFileReaderENS4_6StreamEEFNS2_INS4_9PrimitiveEEES9_SA_EEE, 
                       __ZTSNSt3__110__function6__funcIPFNS_10shared_ptrIN3mlx4core9LogAddExpEEERNS4_2io18ParallelFileReaderENS4_6StreamEEFNS2_INS4_9PrimitiveEEES9_SA_EEE, 
                       __ZTSNSt3__110__function6__funcIPFNS_10shared_ptrIN3mlx4core9LogSumExpEEERNS4_2io18ParallelFileReaderENS4_6StreamEEFNS2_INS4_9PrimitiveEEES9_SA_EEE, 
                       __ZTSNSt3__110__function6__funcIPFNS_10shared_ptrIN3mlx4core9LogicalOrEEERNS4_2io18ParallelFileReaderENS4_6StreamEEFNS2_INS4_9PrimitiveEEES9_SA_EEE, 
                       __ZTSNSt3__110__function6__funcIPFNS_10shared_ptrIN3mlx4core9PartitionEEERNS4_2io18ParallelFileReaderENS4_6StreamEEFNS2_INS4_9PrimitiveEEES9_SA_EEE, 
                       __ZTSNSt3__110__function6__funcIPFNS_10shared_ptrIN3mlx4core9RemainderEEERNS4_2io18ParallelFileReaderENS4_6StreamEEFNS2_INS4_9PrimitiveEEES9_SA_EEE, 
                       __ZTSNSt3__110__function6__funcIPFNS_10shared_ptrIN3mlx4core9TransposeEEERNS4_2io18ParallelFileReaderENS4_6StreamEEFNS2_INS4_9PrimitiveEEES9_SA_EEE, 
                       __ZTSNSt3__110__function6__funcIPFNS_10shared_ptrIN3mlx4core9UnflattenEEERNS4_2io18ParallelFileReaderENS4_6StreamEEFNS2_INS4_9PrimitiveEEES9_SA_EEE, 
                       __ZTSNSt3__110__function6__funcIPFNS_6vectorIN3mlx4core5arrayENS_9allocatorIS5_EEEERKS8_ESB_EE, 
                       __ZTSNSt3__110__function6__funcIPFvN3mlx4core9allocator6BufferEES6_EE, 
                       __ZTSNSt3__110__function6__funcIPFvRN3mlx4core2io10FileWriterERKNS3_9PrimitiveEESA_EE, 
                       __ZTSNSt3__110__function6__funcIZN10ThreadPool7enqueueINS_6__bindIMN3mlx4core11distributed4ring9RingGroupEFvPKcPcmmiiiEJPS9_SB_SC_RKmmRiSI_iEEEJEEENS_6futureINS_20__invoke_result_implIvJT_DpT0_EE4typeEEEOSM_DpOSN_EUlvE_FvvEEE, 
                       __ZTSNSt3__110__function6__funcIZN3mlx4core12reduction_opINS3_11complex64_tES5_NS3_10ProdReduceEEEvRKNS3_5arrayERS7_RKNS_6vectorIiNS_9allocatorIiEEEET0_EUliE0_FviEEE, 
                       __ZTSNSt3__110__function6__funcIZN3mlx4core12reduction_opINS3_11complex64_tES5_NS3_10ProdReduceEEEvRKNS3_5arrayERS7_RKNS_6vectorIiNS_9allocatorIiEEEET0_EUliE1_FviEEE, 
                       __ZTSNSt3__110__function6__funcIZN3mlx4core12reduction_opINS3_11complex64_tES5_NS3_10ProdReduceEEEvRKNS3_5arrayERS7_RKNS_6vectorIiNS_9allocatorIiEEEET0_EUliE_FviEEE, 
                       __ZTSNSt3__110__function6__funcIZN3mlx4core12reduction_opINS3_11complex64_tES5_NS3_9MaxReduceEEEvRKNS3_5arrayERS7_RKNS_6vectorIiNS_9allocatorIiEEEET0_EUliE0_FviEEE, 
                       __ZTSNSt3__110__function6__funcIZN3mlx4core12reduction_opINS3_11complex64_tES5_NS3_9MaxReduceEEEvRKNS3_5arrayERS7_RKNS_6vectorIiNS_9allocatorIiEEEET0_EUliE1_FviEEE, 
                       __ZTSNSt3__110__function6__funcIZN3mlx4core12reduction_opINS3_11complex64_tES5_NS3_9MaxReduceEEEvRKNS3_5arrayERS7_RKNS_6vectorIiNS_9allocatorIiEEEET0_EUliE_FviEEE, 
                       __ZTSNSt3__110__function6__funcIZN3mlx4core12reduction_opINS3_11complex64_tES5_NS3_9MinReduceEEEvRKNS3_5arrayERS7_RKNS_6vectorIiNS_9allocatorIiEEEET0_EUliE0_FviEEE, 
                       __ZTSNSt3__110__function6__funcIZN3mlx4core12reduction_opINS3_11complex64_tES5_NS3_9MinReduceEEEvRKNS3_5arrayERS7_RKNS_6vectorIiNS_9allocatorIiEEEET0_EUliE1_FviEEE, 
                       __ZTSNSt3__110__function6__funcIZN3mlx4core12reduction_opINS3_11complex64_tES5_NS3_9MinReduceEEEvRKNS3_5arrayERS7_RKNS_6vectorIiNS_9allocatorIiEEEET0_EUliE_FviEEE, 
                       __ZTSNSt3__110__function6__funcIZN3mlx4core12reduction_opINS3_11complex64_tES5_NS3_9SumReduceEEEvRKNS3_5arrayERS7_RKNS_6vectorIiNS_9allocatorIiEEEET0_EUliE0_FviEEE, 
                       __ZTSNSt3__110__function6__funcIZN3mlx4core12reduction_opINS3_11complex64_tES5_NS3_9SumReduceEEEvRKNS3_5arrayERS7_RKNS_6vectorIiNS_9allocatorIiEEEET0_EUliE1_FviEEE, 
                       __ZTSNSt3__110__function6__funcIZN3mlx4core12reduction_opINS3_11complex64_tES5_NS3_9SumReduceEEEvRKNS3_5arrayERS7_RKNS_6vectorIiNS_9allocatorIiEEEET0_EUliE_FviEEE, 
                       __ZTSNSt3__110__function6__funcIZN3mlx4core12reduction_opINS3_12_MLX_Float16ES5_NS3_10ProdReduceEEEvRKNS3_5arrayERS7_RKNS_6vectorIiNS_9allocatorIiEEEET0_EUliE0_FviEEE, 
                       __ZTSNSt3__110__function6__funcIZN3mlx4core12reduction_opINS3_12_MLX_Float16ES5_NS3_10ProdReduceEEEvRKNS3_5arrayERS7_RKNS_6vectorIiNS_9allocatorIiEEEET0_EUliE1_FviEEE, 
                       __ZTSNSt3__110__function6__funcIZN3mlx4core12reduction_opINS3_12_MLX_Float16ES5_NS3_10ProdReduceEEEvRKNS3_5arrayERS7_RKNS_6vectorIiNS_9allocatorIiEEEET0_EUliE_FviEEE, 
                       __ZTSNSt3__110__function6__funcIZN3mlx4core12reduction_opINS3_12_MLX_Float16ES5_NS3_9MaxReduceEEEvRKNS3_5arrayERS7_RKNS_6vectorIiNS_9allocatorIiEEEET0_EUliE0_FviEEE, 
                       __ZTSNSt3__110__function6__funcIZN3mlx4core12reduction_opINS3_12_MLX_Float16ES5_NS3_9MaxReduceEEEvRKNS3_5arrayERS7_RKNS_6vectorIiNS_9allocatorIiEEEET0_EUliE1_FviEEE, 
                       __ZTSNSt3__110__function6__funcIZN3mlx4core12reduction_opINS3_12_MLX_Float16ES5_NS3_9MaxReduceEEEvRKNS3_5arrayERS7_RKNS_6vectorIiNS_9allocatorIiEEEET0_EUliE_FviEEE, 
                       __ZTSNSt3__110__function6__funcIZN3mlx4core12reduction_opINS3_12_MLX_Float16ES5_NS3_9MinReduceEEEvRKNS3_5arrayERS7_RKNS_6vectorIiNS_9allocatorIiEEEET0_EUliE0_FviEEE, 
                       __ZTSNSt3__110__function6__funcIZN3mlx4core12reduction_opINS3_12_MLX_Float16ES5_NS3_9MinReduceEEEvRKNS3_5arrayERS7_RKNS_6vectorIiNS_9allocatorIiEEEET0_EUliE1_FviEEE, 
                       __ZTSNSt3__110__function6__funcIZN3mlx4core12reduction_opINS3_12_MLX_Float16ES5_NS3_9MinReduceEEEvRKNS3_5arrayERS7_RKNS_6vectorIiNS_9allocatorIiEEEET0_EUliE_FviEEE, 
                       __ZTSNSt3__110__function6__funcIZN3mlx4core12reduction_opINS3_12_MLX_Float16ES5_NS3_9SumReduceEEEvRKNS3_5arrayERS7_RKNS_6vectorIiNS_9allocatorIiEEEET0_EUliE0_FviEEE, 
                       __ZTSNSt3__110__function6__funcIZN3mlx4core12reduction_opINS3_12_MLX_Float16ES5_NS3_9SumReduceEEEvRKNS3_5arrayERS7_RKNS_6vectorIiNS_9allocatorIiEEEET0_EUliE1_FviEEE, 
                       __ZTSNSt3__110__function6__funcIZN3mlx4core12reduction_opINS3_12_MLX_Float16ES5_NS3_9SumReduceEEEvRKNS3_5arrayERS7_RKNS_6vectorIiNS_9allocatorIiEEEET0_EUliE_FviEEE, 
                       __ZTSNSt3__110__function6__funcIZN3mlx4core12reduction_opINS3_13_MLX_BFloat16ES5_NS3_10ProdReduceEEEvRKNS3_5arrayERS7_RKNS_6vectorIiNS_9allocatorIiEEEET0_EUliE0_FviEEE, 
                       __ZTSNSt3__110__function6__funcIZN3mlx4core12reduction_opINS3_13_MLX_BFloat16ES5_NS3_10ProdReduceEEEvRKNS3_5arrayERS7_RKNS_6vectorIiNS_9allocatorIiEEEET0_EUliE1_FviEEE, 
                       __ZTSNSt3__110__function6__funcIZN3mlx4core12reduction_opINS3_13_MLX_BFloat16ES5_NS3_10ProdReduceEEEvRKNS3_5arrayERS7_RKNS_6vectorIiNS_9allocatorIiEEEET0_EUliE_FviEEE, 
                       __ZTSNSt3__110__function6__funcIZN3mlx4core12reduction_opINS3_13_MLX_BFloat16ES5_NS3_9MaxReduceEEEvRKNS3_5arrayERS7_RKNS_6vectorIiNS_9allocatorIiEEEET0_EUliE0_FviEEE, 
                       __ZTSNSt3__110__function6__funcIZN3mlx4core12reduction_opINS3_13_MLX_BFloat16ES5_NS3_9MaxReduceEEEvRKNS3_5arrayERS7_RKNS_6vectorIiNS_9allocatorIiEEEET0_EUliE1_FviEEE, 
                       __ZTSNSt3__110__function6__funcIZN3mlx4core12reduction_opINS3_13_MLX_BFloat16ES5_NS3_9MaxReduceEEEvRKNS3_5arrayERS7_RKNS_6vectorIiNS_9allocatorIiEEEET0_EUliE_FviEEE, 
                       __ZTSNSt3__110__function6__funcIZN3mlx4core12reduction_opINS3_13_MLX_BFloat16ES5_NS3_9MinReduceEEEvRKNS3_5arrayERS7_RKNS_6vectorIiNS_9allocatorIiEEEET0_EUliE0_FviEEE, 
                       __ZTSNSt3__110__function6__funcIZN3mlx4core12reduction_opINS3_13_MLX_BFloat16ES5_NS3_9MinReduceEEEvRKNS3_5arrayERS7_RKNS_6vectorIiNS_9allocatorIiEEEET0_EUliE1_FviEEE, 
                       __ZTSNSt3__110__function6__funcIZN3mlx4core12reduction_opINS3_13_MLX_BFloat16ES5_NS3_9MinReduceEEEvRKNS3_5arrayERS7_RKNS_6vectorIiNS_9allocatorIiEEEET0_EUliE_FviEEE, 
                       __ZTSNSt3__110__function6__funcIZN3mlx4core12reduction_opINS3_13_MLX_BFloat16ES5_NS3_9SumReduceEEEvRKNS3_5arrayERS7_RKNS_6vectorIiNS_9allocatorIiEEEET0_EUliE0_FviEEE, 
                       __ZTSNSt3__110__function6__funcIZN3mlx4core12reduction_opINS3_13_MLX_BFloat16ES5_NS3_9SumReduceEEEvRKNS3_5arrayERS7_RKNS_6vectorIiNS_9allocatorIiEEEET0_EUliE1_FviEEE, 
                       __ZTSNSt3__110__function6__funcIZN3mlx4core12reduction_opINS3_13_MLX_BFloat16ES5_NS3_9SumReduceEEEvRKNS3_5arrayERS7_RKNS_6vectorIiNS_9allocatorIiEEEET0_EUliE_FviEEE, 
                       __ZTSNSt3__110__function6__funcIZN3mlx4core12reduction_opIabNS3_8OrReduceEEEvRKNS3_5arrayERS6_RKNS_6vectorIiNS_9allocatorIiEEEET0_EUliE0_FviEEE, 
                       __ZTSNSt3__110__function6__funcIZN3mlx4core12reduction_opIabNS3_8OrReduceEEEvRKNS3_5arrayERS6_RKNS_6vectorIiNS_9allocatorIiEEEET0_EUliE1_FviEEE, 
                       __ZTSNSt3__110__function6__funcIZN3mlx4core12reduction_opIabNS3_8OrReduceEEEvRKNS3_5arrayERS6_RKNS_6vectorIiNS_9allocatorIiEEEET0_EUliE_FviEEE, 
                       __ZTSNSt3__110__function6__funcIZN3mlx4core12reduction_opIabNS3_9AndReduceEEEvRKNS3_5arrayERS6_RKNS_6vectorIiNS_9allocatorIiEEEET0_EUliE0_FviEEE, 
                       __ZTSNSt3__110__function6__funcIZN3mlx4core12reduction_opIabNS3_9AndReduceEEEvRKNS3_5arrayERS6_RKNS_6vectorIiNS_9allocatorIiEEEET0_EUliE1_FviEEE, 
                       __ZTSNSt3__110__function6__funcIZN3mlx4core12reduction_opIabNS3_9AndReduceEEEvRKNS3_5arrayERS6_RKNS_6vectorIiNS_9allocatorIiEEEET0_EUliE_FviEEE, 
                       __ZTSNSt3__110__function6__funcIZN3mlx4core12reduction_opIaiNS3_10ProdReduceEEEvRKNS3_5arrayERS6_RKNS_6vectorIiNS_9allocatorIiEEEET0_EUliE0_FviEEE, 
                       __ZTSNSt3__110__function6__funcIZN3mlx4core12reduction_opIaiNS3_10ProdReduceEEEvRKNS3_5arrayERS6_RKNS_6vectorIiNS_9allocatorIiEEEET0_EUliE1_FviEEE, 
                       __ZTSNSt3__110__function6__funcIZN3mlx4core12reduction_opIaiNS3_10ProdReduceEEEvRKNS3_5arrayERS6_RKNS_6vectorIiNS_9allocatorIiEEEET0_EUliE_FviEEE, 
                       __ZTSNSt3__110__function6__funcIZN3mlx4core12reduction_opIaiNS3_9SumReduceEEEvRKNS3_5arrayERS6_RKNS_6vectorIiNS_9allocatorIiEEEET0_EUliE0_FviEEE, 
                       __ZTSNSt3__110__function6__funcIZN3mlx4core12reduction_opIaiNS3_9SumReduceEEEvRKNS3_5arrayERS6_RKNS_6vectorIiNS_9allocatorIiEEEET0_EUliE1_FviEEE, 
                       __ZTSNSt3__110__function6__funcIZN3mlx4core12reduction_opIaiNS3_9SumReduceEEEvRKNS3_5arrayERS6_RKNS_6vectorIiNS_9allocatorIiEEEET0_EUliE_FviEEE, 
                       __ZTSNSt3__110__function6__funcIZN3mlx4core12reduction_opIbbNS3_9MaxReduceEEEvRKNS3_5arrayERS6_RKNS_6vectorIiNS_9allocatorIiEEEET0_EUliE0_FviEEE, 
                       __ZTSNSt3__110__function6__funcIZN3mlx4core12reduction_opIbbNS3_9MaxReduceEEEvRKNS3_5arrayERS6_RKNS_6vectorIiNS_9allocatorIiEEEET0_EUliE1_FviEEE, 
                       __ZTSNSt3__110__function6__funcIZN3mlx4core12reduction_opIbbNS3_9MaxReduceEEEvRKNS3_5arrayERS6_RKNS_6vectorIiNS_9allocatorIiEEEET0_EUliE_FviEEE, 
                       __ZTSNSt3__110__function6__funcIZN3mlx4core12reduction_opIbbNS3_9MinReduceEEEvRKNS3_5arrayERS6_RKNS_6vectorIiNS_9allocatorIiEEEET0_EUliE0_FviEEE, 
                       __ZTSNSt3__110__function6__funcIZN3mlx4core12reduction_opIbbNS3_9MinReduceEEEvRKNS3_5arrayERS6_RKNS_6vectorIiNS_9allocatorIiEEEET0_EUliE1_FviEEE, 
                       __ZTSNSt3__110__function6__funcIZN3mlx4core12reduction_opIbbNS3_9MinReduceEEEvRKNS3_5arrayERS6_RKNS_6vectorIiNS_9allocatorIiEEEET0_EUliE_FviEEE, 
                       __ZTSNSt3__110__function6__funcIZN3mlx4core12reduction_opIddNS3_10ProdReduceEEEvRKNS3_5arrayERS6_RKNS_6vectorIiNS_9allocatorIiEEEET0_EUliE0_FviEEE, 
                       __ZTSNSt3__110__function6__funcIZN3mlx4core12reduction_opIddNS3_10ProdReduceEEEvRKNS3_5arrayERS6_RKNS_6vectorIiNS_9allocatorIiEEEET0_EUliE1_FviEEE, 
                       __ZTSNSt3__110__function6__funcIZN3mlx4core12reduction_opIddNS3_10ProdReduceEEEvRKNS3_5arrayERS6_RKNS_6vectorIiNS_9allocatorIiEEEET0_EUliE_FviEEE, 
                       __ZTSNSt3__110__function6__funcIZN3mlx4core12reduction_opIddNS3_9MaxReduceEEEvRKNS3_5arrayERS6_RKNS_6vectorIiNS_9allocatorIiEEEET0_EUliE0_FviEEE, 
                       __ZTSNSt3__110__function6__funcIZN3mlx4core12reduction_opIddNS3_9MaxReduceEEEvRKNS3_5arrayERS6_RKNS_6vectorIiNS_9allocatorIiEEEET0_EUliE1_FviEEE, 
                       __ZTSNSt3__110__function6__funcIZN3mlx4core12reduction_opIddNS3_9MaxReduceEEEvRKNS3_5arrayERS6_RKNS_6vectorIiNS_9allocatorIiEEEET0_EUliE_FviEEE, 
                       __ZTSNSt3__110__function6__funcIZN3mlx4core12reduction_opIddNS3_9MinReduceEEEvRKNS3_5arrayERS6_RKNS_6vectorIiNS_9allocatorIiEEEET0_EUliE0_FviEEE, 
                       __ZTSNSt3__110__function6__funcIZN3mlx4core12reduction_opIddNS3_9MinReduceEEEvRKNS3_5arrayERS6_RKNS_6vectorIiNS_9allocatorIiEEEET0_EUliE1_FviEEE, 
                       __ZTSNSt3__110__function6__funcIZN3mlx4core12reduction_opIddNS3_9MinReduceEEEvRKNS3_5arrayERS6_RKNS_6vectorIiNS_9allocatorIiEEEET0_EUliE_FviEEE, 
                       __ZTSNSt3__110__function6__funcIZN3mlx4core12reduction_opIddNS3_9SumReduceEEEvRKNS3_5arrayERS6_RKNS_6vectorIiNS_9allocatorIiEEEET0_EUliE0_FviEEE, 
                       __ZTSNSt3__110__function6__funcIZN3mlx4core12reduction_opIddNS3_9SumReduceEEEvRKNS3_5arrayERS6_RKNS_6vectorIiNS_9allocatorIiEEEET0_EUliE1_FviEEE, 
                       __ZTSNSt3__110__function6__funcIZN3mlx4core12reduction_opIddNS3_9SumReduceEEEvRKNS3_5arrayERS6_RKNS_6vectorIiNS_9allocatorIiEEEET0_EUliE_FviEEE, 
                       __ZTSNSt3__110__function6__funcIZN3mlx4core12reduction_opIffNS3_10ProdReduceEEEvRKNS3_5arrayERS6_RKNS_6vectorIiNS_9allocatorIiEEEET0_EUliE0_FviEEE, 
                       __ZTSNSt3__110__function6__funcIZN3mlx4core12reduction_opIffNS3_10ProdReduceEEEvRKNS3_5arrayERS6_RKNS_6vectorIiNS_9allocatorIiEEEET0_EUliE1_FviEEE, 
                       __ZTSNSt3__110__function6__funcIZN3mlx4core12reduction_opIffNS3_10ProdReduceEEEvRKNS3_5arrayERS6_RKNS_6vectorIiNS_9allocatorIiEEEET0_EUliE_FviEEE, 
                       __ZTSNSt3__110__function6__funcIZN3mlx4core12reduction_opIffNS3_9MaxReduceEEEvRKNS3_5arrayERS6_RKNS_6vectorIiNS_9allocatorIiEEEET0_EUliE0_FviEEE, 
                       __ZTSNSt3__110__function6__funcIZN3mlx4core12reduction_opIffNS3_9MaxReduceEEEvRKNS3_5arrayERS6_RKNS_6vectorIiNS_9allocatorIiEEEET0_EUliE1_FviEEE, 
                       __ZTSNSt3__110__function6__funcIZN3mlx4core12reduction_opIffNS3_9MaxReduceEEEvRKNS3_5arrayERS6_RKNS_6vectorIiNS_9allocatorIiEEEET0_EUliE_FviEEE, 
                       __ZTSNSt3__110__function6__funcIZN3mlx4core12reduction_opIffNS3_9MinReduceEEEvRKNS3_5arrayERS6_RKNS_6vectorIiNS_9allocatorIiEEEET0_EUliE0_FviEEE, 
                       __ZTSNSt3__110__function6__funcIZN3mlx4core12reduction_opIffNS3_9MinReduceEEEvRKNS3_5arrayERS6_RKNS_6vectorIiNS_9allocatorIiEEEET0_EUliE1_FviEEE, 
                       __ZTSNSt3__110__function6__funcIZN3mlx4core12reduction_opIffNS3_9MinReduceEEEvRKNS3_5arrayERS6_RKNS_6vectorIiNS_9allocatorIiEEEET0_EUliE_FviEEE, 
                       __ZTSNSt3__110__function6__funcIZN3mlx4core12reduction_opIffNS3_9SumReduceEEEvRKNS3_5arrayERS6_RKNS_6vectorIiNS_9allocatorIiEEEET0_EUliE0_FviEEE, 
                       __ZTSNSt3__110__function6__funcIZN3mlx4core12reduction_opIffNS3_9SumReduceEEEvRKNS3_5arrayERS6_RKNS_6vectorIiNS_9allocatorIiEEEET0_EUliE1_FviEEE, 
                       __ZTSNSt3__110__function6__funcIZN3mlx4core12reduction_opIffNS3_9SumReduceEEEvRKNS3_5arrayERS6_RKNS_6vectorIiNS_9allocatorIiEEEET0_EUliE_FviEEE, 
                       __ZTSNSt3__110__function6__funcIZN3mlx4core12reduction_opIhhNS3_9MaxReduceEEEvRKNS3_5arrayERS6_RKNS_6vectorIiNS_9allocatorIiEEEET0_EUliE0_FviEEE, 
                       __ZTSNSt3__110__function6__funcIZN3mlx4core12reduction_opIhhNS3_9MaxReduceEEEvRKNS3_5arrayERS6_RKNS_6vectorIiNS_9allocatorIiEEEET0_EUliE1_FviEEE, 
                       __ZTSNSt3__110__function6__funcIZN3mlx4core12reduction_opIhhNS3_9MaxReduceEEEvRKNS3_5arrayERS6_RKNS_6vectorIiNS_9allocatorIiEEEET0_EUliE_FviEEE, 
                       __ZTSNSt3__110__function6__funcIZN3mlx4core12reduction_opIhhNS3_9MinReduceEEEvRKNS3_5arrayERS6_RKNS_6vectorIiNS_9allocatorIiEEEET0_EUliE0_FviEEE, 
                       __ZTSNSt3__110__function6__funcIZN3mlx4core12reduction_opIhhNS3_9MinReduceEEEvRKNS3_5arrayERS6_RKNS_6vectorIiNS_9allocatorIiEEEET0_EUliE1_FviEEE, 
                       __ZTSNSt3__110__function6__funcIZN3mlx4core12reduction_opIhhNS3_9MinReduceEEEvRKNS3_5arrayERS6_RKNS_6vectorIiNS_9allocatorIiEEEET0_EUliE_FviEEE, 
                       __ZTSNSt3__110__function6__funcIZN3mlx4core12reduction_opIibNS3_8OrReduceEEEvRKNS3_5arrayERS6_RKNS_6vectorIiNS_9allocatorIiEEEET0_EUliE0_FviEEE, 
                       __ZTSNSt3__110__function6__funcIZN3mlx4core12reduction_opIibNS3_8OrReduceEEEvRKNS3_5arrayERS6_RKNS_6vectorIiNS_9allocatorIiEEEET0_EUliE1_FviEEE, 
                       __ZTSNSt3__110__function6__funcIZN3mlx4core12reduction_opIibNS3_8OrReduceEEEvRKNS3_5arrayERS6_RKNS_6vectorIiNS_9allocatorIiEEEET0_EUliE_FviEEE, 
                       __ZTSNSt3__110__function6__funcIZN3mlx4core12reduction_opIibNS3_9AndReduceEEEvRKNS3_5arrayERS6_RKNS_6vectorIiNS_9allocatorIiEEEET0_EUliE0_FviEEE, 
                       __ZTSNSt3__110__function6__funcIZN3mlx4core12reduction_opIibNS3_9AndReduceEEEvRKNS3_5arrayERS6_RKNS_6vectorIiNS_9allocatorIiEEEET0_EUliE1_FviEEE, 
                       __ZTSNSt3__110__function6__funcIZN3mlx4core12reduction_opIibNS3_9AndReduceEEEvRKNS3_5arrayERS6_RKNS_6vectorIiNS_9allocatorIiEEEET0_EUliE_FviEEE, 
                       __ZTSNSt3__110__function6__funcIZN3mlx4core12reduction_opIiiNS3_10ProdReduceEEEvRKNS3_5arrayERS6_RKNS_6vectorIiNS_9allocatorIiEEEET0_EUliE0_FviEEE, 
                       __ZTSNSt3__110__function6__funcIZN3mlx4core12reduction_opIiiNS3_10ProdReduceEEEvRKNS3_5arrayERS6_RKNS_6vectorIiNS_9allocatorIiEEEET0_EUliE1_FviEEE, 
                       __ZTSNSt3__110__function6__funcIZN3mlx4core12reduction_opIiiNS3_10ProdReduceEEEvRKNS3_5arrayERS6_RKNS_6vectorIiNS_9allocatorIiEEEET0_EUliE_FviEEE, 
                       __ZTSNSt3__110__function6__funcIZN3mlx4core12reduction_opIiiNS3_9MaxReduceEEEvRKNS3_5arrayERS6_RKNS_6vectorIiNS_9allocatorIiEEEET0_EUliE0_FviEEE, 
                       __ZTSNSt3__110__function6__funcIZN3mlx4core12reduction_opIiiNS3_9MaxReduceEEEvRKNS3_5arrayERS6_RKNS_6vectorIiNS_9allocatorIiEEEET0_EUliE1_FviEEE, 
                       __ZTSNSt3__110__function6__funcIZN3mlx4core12reduction_opIiiNS3_9MaxReduceEEEvRKNS3_5arrayERS6_RKNS_6vectorIiNS_9allocatorIiEEEET0_EUliE_FviEEE, 
                       __ZTSNSt3__110__function6__funcIZN3mlx4core12reduction_opIiiNS3_9MinReduceEEEvRKNS3_5arrayERS6_RKNS_6vectorIiNS_9allocatorIiEEEET0_EUliE0_FviEEE, 
                       __ZTSNSt3__110__function6__funcIZN3mlx4core12reduction_opIiiNS3_9MinReduceEEEvRKNS3_5arrayERS6_RKNS_6vectorIiNS_9allocatorIiEEEET0_EUliE1_FviEEE, 
                       __ZTSNSt3__110__function6__funcIZN3mlx4core12reduction_opIiiNS3_9MinReduceEEEvRKNS3_5arrayERS6_RKNS_6vectorIiNS_9allocatorIiEEEET0_EUliE_FviEEE, 
                       __ZTSNSt3__110__function6__funcIZN3mlx4core12reduction_opIiiNS3_9SumReduceEEEvRKNS3_5arrayERS6_RKNS_6vectorIiNS_9allocatorIiEEEET0_EUliE0_FviEEE, 
                       __ZTSNSt3__110__function6__funcIZN3mlx4core12reduction_opIiiNS3_9SumReduceEEEvRKNS3_5arrayERS6_RKNS_6vectorIiNS_9allocatorIiEEEET0_EUliE1_FviEEE, 
                       __ZTSNSt3__110__function6__funcIZN3mlx4core12reduction_opIiiNS3_9SumReduceEEEvRKNS3_5arrayERS6_RKNS_6vectorIiNS_9allocatorIiEEEET0_EUliE_FviEEE, 
                       __ZTSNSt3__110__function6__funcIZN3mlx4core12reduction_opIjjNS3_9MaxReduceEEEvRKNS3_5arrayERS6_RKNS_6vectorIiNS_9allocatorIiEEEET0_EUliE0_FviEEE, 
                       __ZTSNSt3__110__function6__funcIZN3mlx4core12reduction_opIjjNS3_9MaxReduceEEEvRKNS3_5arrayERS6_RKNS_6vectorIiNS_9allocatorIiEEEET0_EUliE1_FviEEE, 
                       __ZTSNSt3__110__function6__funcIZN3mlx4core12reduction_opIjjNS3_9MaxReduceEEEvRKNS3_5arrayERS6_RKNS_6vectorIiNS_9allocatorIiEEEET0_EUliE_FviEEE, 
                       __ZTSNSt3__110__function6__funcIZN3mlx4core12reduction_opIjjNS3_9MinReduceEEEvRKNS3_5arrayERS6_RKNS_6vectorIiNS_9allocatorIiEEEET0_EUliE0_FviEEE, 
                       __ZTSNSt3__110__function6__funcIZN3mlx4core12reduction_opIjjNS3_9MinReduceEEEvRKNS3_5arrayERS6_RKNS_6vectorIiNS_9allocatorIiEEEET0_EUliE1_FviEEE, 
                       __ZTSNSt3__110__function6__funcIZN3mlx4core12reduction_opIjjNS3_9MinReduceEEEvRKNS3_5arrayERS6_RKNS_6vectorIiNS_9allocatorIiEEEET0_EUliE_FviEEE, 
                       __ZTSNSt3__110__function6__funcIZN3mlx4core12reduction_opIsbNS3_8OrReduceEEEvRKNS3_5arrayERS6_RKNS_6vectorIiNS_9allocatorIiEEEET0_EUliE0_FviEEE, 
                       __ZTSNSt3__110__function6__funcIZN3mlx4core12reduction_opIsbNS3_8OrReduceEEEvRKNS3_5arrayERS6_RKNS_6vectorIiNS_9allocatorIiEEEET0_EUliE1_FviEEE, 
                       __ZTSNSt3__110__function6__funcIZN3mlx4core12reduction_opIsbNS3_8OrReduceEEEvRKNS3_5arrayERS6_RKNS_6vectorIiNS_9allocatorIiEEEET0_EUliE_FviEEE, 
                       __ZTSNSt3__110__function6__funcIZN3mlx4core12reduction_opIsbNS3_9AndReduceEEEvRKNS3_5arrayERS6_RKNS_6vectorIiNS_9allocatorIiEEEET0_EUliE0_FviEEE, 
                       __ZTSNSt3__110__function6__funcIZN3mlx4core12reduction_opIsbNS3_9AndReduceEEEvRKNS3_5arrayERS6_RKNS_6vectorIiNS_9allocatorIiEEEET0_EUliE1_FviEEE, 
                       __ZTSNSt3__110__function6__funcIZN3mlx4core12reduction_opIsbNS3_9AndReduceEEEvRKNS3_5arrayERS6_RKNS_6vectorIiNS_9allocatorIiEEEET0_EUliE_FviEEE, 
                       __ZTSNSt3__110__function6__funcIZN3mlx4core12reduction_opIsiNS3_10ProdReduceEEEvRKNS3_5arrayERS6_RKNS_6vectorIiNS_9allocatorIiEEEET0_EUliE0_FviEEE, 
                       __ZTSNSt3__110__function6__funcIZN3mlx4core12reduction_opIsiNS3_10ProdReduceEEEvRKNS3_5arrayERS6_RKNS_6vectorIiNS_9allocatorIiEEEET0_EUliE1_FviEEE, 
                       __ZTSNSt3__110__function6__funcIZN3mlx4core12reduction_opIsiNS3_10ProdReduceEEEvRKNS3_5arrayERS6_RKNS_6vectorIiNS_9allocatorIiEEEET0_EUliE_FviEEE, 
                       __ZTSNSt3__110__function6__funcIZN3mlx4core12reduction_opIsiNS3_9SumReduceEEEvRKNS3_5arrayERS6_RKNS_6vectorIiNS_9allocatorIiEEEET0_EUliE0_FviEEE, 
                       __ZTSNSt3__110__function6__funcIZN3mlx4core12reduction_opIsiNS3_9SumReduceEEEvRKNS3_5arrayERS6_RKNS_6vectorIiNS_9allocatorIiEEEET0_EUliE1_FviEEE, 
                       __ZTSNSt3__110__function6__funcIZN3mlx4core12reduction_opIsiNS3_9SumReduceEEEvRKNS3_5arrayERS6_RKNS_6vectorIiNS_9allocatorIiEEEET0_EUliE_FviEEE, 
                       __ZTSNSt3__110__function6__funcIZN3mlx4core12reduction_opIttNS3_9MaxReduceEEEvRKNS3_5arrayERS6_RKNS_6vectorIiNS_9allocatorIiEEEET0_EUliE0_FviEEE, 
                       __ZTSNSt3__110__function6__funcIZN3mlx4core12reduction_opIttNS3_9MaxReduceEEEvRKNS3_5arrayERS6_RKNS_6vectorIiNS_9allocatorIiEEEET0_EUliE1_FviEEE, 
                       __ZTSNSt3__110__function6__funcIZN3mlx4core12reduction_opIttNS3_9MaxReduceEEEvRKNS3_5arrayERS6_RKNS_6vectorIiNS_9allocatorIiEEEET0_EUliE_FviEEE, 
                       __ZTSNSt3__110__function6__funcIZN3mlx4core12reduction_opIttNS3_9MinReduceEEEvRKNS3_5arrayERS6_RKNS_6vectorIiNS_9allocatorIiEEEET0_EUliE0_FviEEE, 
                       __ZTSNSt3__110__function6__funcIZN3mlx4core12reduction_opIttNS3_9MinReduceEEEvRKNS3_5arrayERS6_RKNS_6vectorIiNS_9allocatorIiEEEET0_EUliE1_FviEEE, 
                       __ZTSNSt3__110__function6__funcIZN3mlx4core12reduction_opIttNS3_9MinReduceEEEvRKNS3_5arrayERS6_RKNS_6vectorIiNS_9allocatorIiEEEET0_EUliE_FviEEE, 
                       __ZTSNSt3__110__function6__funcIZN3mlx4core12reduction_opIxbNS3_8OrReduceEEEvRKNS3_5arrayERS6_RKNS_6vectorIiNS_9allocatorIiEEEET0_EUliE0_FviEEE, 
                       __ZTSNSt3__110__function6__funcIZN3mlx4core12reduction_opIxbNS3_8OrReduceEEEvRKNS3_5arrayERS6_RKNS_6vectorIiNS_9allocatorIiEEEET0_EUliE1_FviEEE, 
                       __ZTSNSt3__110__function6__funcIZN3mlx4core12reduction_opIxbNS3_8OrReduceEEEvRKNS3_5arrayERS6_RKNS_6vectorIiNS_9allocatorIiEEEET0_EUliE_FviEEE, 
                       __ZTSNSt3__110__function6__funcIZN3mlx4core12reduction_opIxbNS3_9AndReduceEEEvRKNS3_5arrayERS6_RKNS_6vectorIiNS_9allocatorIiEEEET0_EUliE0_FviEEE, 
                       __ZTSNSt3__110__function6__funcIZN3mlx4core12reduction_opIxbNS3_9AndReduceEEEvRKNS3_5arrayERS6_RKNS_6vectorIiNS_9allocatorIiEEEET0_EUliE1_FviEEE, 
                       __ZTSNSt3__110__function6__funcIZN3mlx4core12reduction_opIxbNS3_9AndReduceEEEvRKNS3_5arrayERS6_RKNS_6vectorIiNS_9allocatorIiEEEET0_EUliE_FviEEE, 
                       __ZTSNSt3__110__function6__funcIZN3mlx4core12reduction_opIxxNS3_10ProdReduceEEEvRKNS3_5arrayERS6_RKNS_6vectorIiNS_9allocatorIiEEEET0_EUliE0_FviEEE, 
                       __ZTSNSt3__110__function6__funcIZN3mlx4core12reduction_opIxxNS3_10ProdReduceEEEvRKNS3_5arrayERS6_RKNS_6vectorIiNS_9allocatorIiEEEET0_EUliE1_FviEEE, 
                       __ZTSNSt3__110__function6__funcIZN3mlx4core12reduction_opIxxNS3_10ProdReduceEEEvRKNS3_5arrayERS6_RKNS_6vectorIiNS_9allocatorIiEEEET0_EUliE_FviEEE, 
                       __ZTSNSt3__110__function6__funcIZN3mlx4core12reduction_opIxxNS3_9MaxReduceEEEvRKNS3_5arrayERS6_RKNS_6vectorIiNS_9allocatorIiEEEET0_EUliE0_FviEEE, 
                       __ZTSNSt3__110__function6__funcIZN3mlx4core12reduction_opIxxNS3_9MaxReduceEEEvRKNS3_5arrayERS6_RKNS_6vectorIiNS_9allocatorIiEEEET0_EUliE1_FviEEE, 
                       __ZTSNSt3__110__function6__funcIZN3mlx4core12reduction_opIxxNS3_9MaxReduceEEEvRKNS3_5arrayERS6_RKNS_6vectorIiNS_9allocatorIiEEEET0_EUliE_FviEEE, 
                       __ZTSNSt3__110__function6__funcIZN3mlx4core12reduction_opIxxNS3_9MinReduceEEEvRKNS3_5arrayERS6_RKNS_6vectorIiNS_9allocatorIiEEEET0_EUliE0_FviEEE, 
                       __ZTSNSt3__110__function6__funcIZN3mlx4core12reduction_opIxxNS3_9MinReduceEEEvRKNS3_5arrayERS6_RKNS_6vectorIiNS_9allocatorIiEEEET0_EUliE1_FviEEE, 
                       __ZTSNSt3__110__function6__funcIZN3mlx4core12reduction_opIxxNS3_9MinReduceEEEvRKNS3_5arrayERS6_RKNS_6vectorIiNS_9allocatorIiEEEET0_EUliE_FviEEE, 
                       __ZTSNSt3__110__function6__funcIZN3mlx4core12reduction_opIxxNS3_9SumReduceEEEvRKNS3_5arrayERS6_RKNS_6vectorIiNS_9allocatorIiEEEET0_EUliE0_FviEEE, 
                       __ZTSNSt3__110__function6__funcIZN3mlx4core12reduction_opIxxNS3_9SumReduceEEEvRKNS3_5arrayERS6_RKNS_6vectorIiNS_9allocatorIiEEEET0_EUliE1_FviEEE, 
                       __ZTSNSt3__110__function6__funcIZN3mlx4core12reduction_opIxxNS3_9SumReduceEEEvRKNS3_5arrayERS6_RKNS_6vectorIiNS_9allocatorIiEEEET0_EUliE_FviEEE, 
                       __ZTSNSt3__110__function6__funcIZN3mlx4core12reduction_opIyyNS3_9MaxReduceEEEvRKNS3_5arrayERS6_RKNS_6vectorIiNS_9allocatorIiEEEET0_EUliE0_FviEEE, 
                       __ZTSNSt3__110__function6__funcIZN3mlx4core12reduction_opIyyNS3_9MaxReduceEEEvRKNS3_5arrayERS6_RKNS_6vectorIiNS_9allocatorIiEEEET0_EUliE1_FviEEE, 
                       __ZTSNSt3__110__function6__funcIZN3mlx4core12reduction_opIyyNS3_9MaxReduceEEEvRKNS3_5arrayERS6_RKNS_6vectorIiNS_9allocatorIiEEEET0_EUliE_FviEEE, 
                       __ZTSNSt3__110__function6__funcIZN3mlx4core12reduction_opIyyNS3_9MinReduceEEEvRKNS3_5arrayERS6_RKNS_6vectorIiNS_9allocatorIiEEEET0_EUliE0_FviEEE, 
                       __ZTSNSt3__110__function6__funcIZN3mlx4core12reduction_opIyyNS3_9MinReduceEEEvRKNS3_5arrayERS6_RKNS_6vectorIiNS_9allocatorIiEEEET0_EUliE1_FviEEE, 
                       __ZTSNSt3__110__function6__funcIZN3mlx4core12reduction_opIyyNS3_9MinReduceEEEvRKNS3_5arrayERS6_RKNS_6vectorIiNS_9allocatorIiEEEET0_EUliE_FviEEE, 
                       __ZTSNSt3__110__function6__funcIZN9pocketfft6detail9threading10thread_mapIZNS3_10general_ndINS3_11pocketfft_cIfEENS3_5cmplxIfEEfNS3_7ExecC2CEEEvRKNS3_6cndarrIT0_EERNS3_5ndarrISD_EERKNS_6vectorImNS_9allocatorImEEEET1_mRKT2_bEUlvE_EEvmT_EUlvE_FvvEEE, 
                       __ZTSNSt3__110__function6__funcIZN9pocketfft6detail9threading10thread_mapIZNS3_11general_c2rIfEEvRKNS3_6cndarrINS3_5cmplxIT_EEEERNS3_5ndarrIS9_EEmbS9_mEUlvE_EEvmS9_EUlvE_FvvEEE, 
                       __ZTSNSt3__110__function6__funcIZN9pocketfft6detail9threading10thread_mapIZNS3_11general_r2cIfEEvRKNS3_6cndarrIT_EERNS3_5ndarrINS3_5cmplxIS8_EEEEmbS8_mEUlvE_EEvmS8_EUlvE_FvvEEE, 
                       __ZTSNSt3__110shared_ptrINS_13__empty_stateIcEEE27__shared_ptr_default_deleteIS2_S2_EE, 
                       __ZTSNSt3__111__alternateIcEE, __ZTSNSt3__111__end_stateIcEE, 
                       __ZTSNSt3__111__lookaheadIcNS_12regex_traitsIcEEEE, __ZTSNSt3__111__match_anyIcEE, 
                       __ZTSNSt3__112__match_charIcEE, __ZTSNSt3__113__empty_stateIcEE, 
                       __ZTSNSt3__115__has_one_stateIcEE, __ZTSNSt3__115__word_boundaryIcNS_12regex_traitsIcEEEE, 
                       __ZTSNSt3__116__back_ref_icaseIcNS_12regex_traitsIcEEEE, __ZTSNSt3__116__owns_one_stateIcEE, 
                       __ZTSNSt3__117__owns_two_statesIcEE, __ZTSNSt3__117__repeat_one_loopIcEE, 
                       __ZTSNSt3__118__back_ref_collateIcNS_12regex_traitsIcEEEE, 
                       __ZTSNSt3__118__match_char_icaseIcNS_12regex_traitsIcEEEE, 
                       __ZTSNSt3__118__weak_result_typeIPFiPKvPviS3_S3_S3_EEE, __ZTSNSt3__118__weak_result_typeIPFiPKviPvS3_iS3_S3_EEE, 
                       __ZTSNSt3__118__weak_result_typeIPFiPKviPviiS3_EEE, __ZTSNSt3__118__weak_result_typeIZN3mlx4core12inverse_implIdEEvRKNS2_5arrayERS4_bbNS2_6StreamEEUlvE0_EE, 
                       __ZTSNSt3__118__weak_result_typeIZN3mlx4core12inverse_implIdEEvRKNS2_5arrayERS4_bbNS2_6StreamEEUlvE_EE, 
                       __ZTSNSt3__118__weak_result_typeIZN3mlx4core12inverse_implIfEEvRKNS2_5arrayERS4_bbNS2_6StreamEEUlvE0_EE, 
                       __ZTSNSt3__118__weak_result_typeIZN3mlx4core12inverse_implIfEEvRKNS2_5arrayERS4_bbNS2_6StreamEEUlvE_EE, 
                       __ZTSNSt3__118__weak_result_typeIZN3mlx4core12unary_signedINS2_6detail3AbsEEEvRKNS2_5arrayERS6_T_NS2_6StreamEEUlvE_EE, 
                       __ZTSNSt3__118__weak_result_typeIZN3mlx4core13cholesky_implIdEEvRKNS2_5arrayERS4_bNS2_6StreamEEUlvE_EE, 
                       __ZTSNSt3__118__weak_result_typeIZN3mlx4core13cholesky_implIfEEvRKNS2_5arrayERS4_bNS2_6StreamEEUlvE_EE, 
                       __ZTSNSt3__118__weak_result_typeIZN3mlx4core13unary_complexINS2_6detail9ConjugateEEEvRKNS2_5arrayERS6_T_NS2_6StreamEEUlvE_EE, 
                       __ZTSNSt3__118__weak_result_typeIZN3mlx4core13unary_real_fpINS2_6detail3ErfEEEvRKNS2_5arrayERS6_T_NS2_6StreamEEUlvE_EE, 
                       __ZTSNSt3__118__weak_result_typeIZN3mlx4core13unary_real_fpINS2_6detail6ErfInvEEEvRKNS2_5arrayERS6_T_NS2_6StreamEEUlvE_EE, 
                       __ZTSNSt3__118__weak_result_typeIZN3mlx4core15matmul_dispatchINS2_12_MLX_Float16EEEvRKNS2_5arrayES7_RS5_bbmmffNS2_6StreamEEUlvE_EE, 
                       __ZTSNSt3__118__weak_result_typeIZN3mlx4core15matmul_dispatchINS2_13_MLX_BFloat16EEEvRKNS2_5arrayES7_RS5_bbmmffNS2_6StreamEEUlvE_EE, 
                       __ZTSNSt3__118__weak_result_typeIZN3mlx4core15matmul_dispatchIdEEvRKNS2_5arrayES6_RS4_bbmmffNS2_6StreamEEUlvE_EE, 
                       __ZTSNSt3__118__weak_result_typeIZN3mlx4core15matmul_dispatchIfEEvRKNS2_5arrayES6_RS4_bbmmffNS2_6StreamEEUlvE_EE, 
                       __ZTSNSt3__118__weak_result_typeIZN3mlx4core22unary_complex_to_floatINS2_6detail4ImagEEEvRKNS2_5arrayERS6_T_NS2_6StreamEEUlvE_EE, 
                       __ZTSNSt3__118__weak_result_typeIZN3mlx4core22unary_complex_to_floatINS2_6detail4RealEEEvRKNS2_5arrayERS6_T_NS2_6StreamEEUlvE_EE, 
                       __ZTSNSt3__118__weak_result_typeIZN3mlx4core5unaryINS2_6detail10LogicalNotEEEvRKNS2_5arrayERS6_T_NS2_6StreamEEUlvE_EE, 
                       __ZTSNSt3__118__weak_result_typeIZN3mlx4core5unaryINS2_6detail4SignEEEvRKNS2_5arrayERS6_T_NS2_6StreamEEUlvE_EE, 
                       __ZTSNSt3__118__weak_result_typeIZN3mlx4core5unaryINS2_6detail6SquareEEEvRKNS2_5arrayERS6_T_NS2_6StreamEEUlvE_EE, 
                       __ZTSNSt3__118__weak_result_typeIZN3mlx4core5unaryINS2_6detail8NegativeEEEvRKNS2_5arrayERS6_T_NS2_6StreamEEUlvE_EE, 
                       __ZTSNSt3__118__weak_result_typeIZN3mlx4core8hadamardINS2_12_MLX_Float16EEEvRNS2_5arrayEiifNS2_6StreamEEUlvE_EE, 
                       __ZTSNSt3__118__weak_result_typeIZN3mlx4core8hadamardINS2_13_MLX_BFloat16EEEvRNS2_5arrayEiifNS2_6StreamEEUlvE_EE, 
                       __ZTSNSt3__118__weak_result_typeIZN3mlx4core8hadamardIfEEvRNS2_5arrayEiifNS2_6StreamEEUlvE_EE, 
                       __ZTSNSt3__118__weak_result_typeIZN3mlx4core8luf_implIdEEvRKNS2_5arrayERS4_S7_S7_NS2_6StreamEEUlvE_EE, 
                       __ZTSNSt3__118__weak_result_typeIZN3mlx4core8luf_implIfEEvRKNS2_5arrayERS4_S7_S7_NS2_6StreamEEUlvE_EE, 
                       __ZTSNSt3__118__weak_result_typeIZN3mlx4core8qrf_implIdEEvRKNS2_5arrayERS4_S7_NS2_6StreamEEUlvE_EE, 
                       __ZTSNSt3__118__weak_result_typeIZN3mlx4core8qrf_implIfEEvRKNS2_5arrayERS4_S7_NS2_6StreamEEUlvE_EE, 
                       __ZTSNSt3__118__weak_result_typeIZN3mlx4core8svd_implIdEEvRKNS2_5arrayERNS_6vectorIS4_NS_9allocatorIS4_EEEEbNS2_6StreamEEUlvE_EE, 
                       __ZTSNSt3__118__weak_result_typeIZN3mlx4core8svd_implIfEEvRKNS2_5arrayERNS_6vectorIS4_NS_9allocatorIS4_EEEEbNS2_6StreamEEUlvE_EE, 
                       __ZTSNSt3__118__weak_result_typeIZN3mlx4core8unary_fpINS2_6detail3CosEEEvRKNS2_5arrayERS6_T_NS2_6StreamEEUlvE_EE, 
                       __ZTSNSt3__118__weak_result_typeIZN3mlx4core8unary_fpINS2_6detail3ExpEEEvRKNS2_5arrayERS6_T_NS2_6StreamEEUlvE_EE, 
                       __ZTSNSt3__118__weak_result_typeIZN3mlx4core8unary_fpINS2_6detail3LogEEEvRKNS2_5arrayERS6_T_NS2_6StreamEEUlvE_EE, 
                       __ZTSNSt3__118__weak_result_typeIZN3mlx4core8unary_fpINS2_6detail3SinEEEvRKNS2_5arrayERS6_T_NS2_6StreamEEUlvE_EE, 
                       __ZTSNSt3__118__weak_result_typeIZN3mlx4core8unary_fpINS2_6detail3TanEEEvRKNS2_5arrayERS6_T_NS2_6StreamEEUlvE_EE, 
                       __ZTSNSt3__118__weak_result_typeIZN3mlx4core8unary_fpINS2_6detail4CeilEEEvRKNS2_5arrayERS6_T_NS2_6StreamEEUlvE_EE, 
                       __ZTSNSt3__118__weak_result_typeIZN3mlx4core8unary_fpINS2_6detail4CoshEEEvRKNS2_5arrayERS6_T_NS2_6StreamEEUlvE_EE, 
                       __ZTSNSt3__118__weak_result_typeIZN3mlx4core8unary_fpINS2_6detail4Log2EEEvRKNS2_5arrayERS6_T_NS2_6StreamEEUlvE_EE, 
                       __ZTSNSt3__118__weak_result_typeIZN3mlx4core8unary_fpINS2_6detail4SinhEEEvRKNS2_5arrayERS6_T_NS2_6StreamEEUlvE_EE, 
                       __ZTSNSt3__118__weak_result_typeIZN3mlx4core8unary_fpINS2_6detail4SqrtEEEvRKNS2_5arrayERS6_T_NS2_6StreamEEUlvE_EE, 
                       __ZTSNSt3__118__weak_result_typeIZN3mlx4core8unary_fpINS2_6detail4TanhEEEvRKNS2_5arrayERS6_T_NS2_6StreamEEUlvE_EE, 
                       __ZTSNSt3__118__weak_result_typeIZN3mlx4core8unary_fpINS2_6detail5Expm1EEEvRKNS2_5arrayERS6_T_NS2_6StreamEEUlvE_EE, 
                       __ZTSNSt3__118__weak_result_typeIZN3mlx4core8unary_fpINS2_6detail5FloorEEEvRKNS2_5arrayERS6_T_NS2_6StreamEEUlvE_EE, 
                       __ZTSNSt3__118__weak_result_typeIZN3mlx4core8unary_fpINS2_6detail5Log10EEEvRKNS2_5arrayERS6_T_NS2_6StreamEEUlvE_EE, 
                       __ZTSNSt3__118__weak_result_typeIZN3mlx4core8unary_fpINS2_6detail5Log1pEEEvRKNS2_5arrayERS6_T_NS2_6StreamEEUlvE_EE, 
                       __ZTSNSt3__118__weak_result_typeIZN3mlx4core8unary_fpINS2_6detail5RoundEEEvRKNS2_5arrayERS6_T_NS2_6StreamEEUlvE_EE, 
                       __ZTSNSt3__118__weak_result_typeIZN3mlx4core8unary_fpINS2_6detail5RsqrtEEEvRKNS2_5arrayERS6_T_NS2_6StreamEEUlvE_EE, 
                       __ZTSNSt3__118__weak_result_typeIZN3mlx4core8unary_fpINS2_6detail6ArcCosEEEvRKNS2_5arrayERS6_T_NS2_6StreamEEUlvE_EE, 
                       __ZTSNSt3__118__weak_result_typeIZN3mlx4core8unary_fpINS2_6detail6ArcSinEEEvRKNS2_5arrayERS6_T_NS2_6StreamEEUlvE_EE, 
                       __ZTSNSt3__118__weak_result_typeIZN3mlx4core8unary_fpINS2_6detail6ArcTanEEEvRKNS2_5arrayERS6_T_NS2_6StreamEEUlvE_EE, 
                       __ZTSNSt3__118__weak_result_typeIZN3mlx4core8unary_fpINS2_6detail7ArcCoshEEEvRKNS2_5arrayERS6_T_NS2_6StreamEEUlvE_EE, 
                       __ZTSNSt3__118__weak_result_typeIZN3mlx4core8unary_fpINS2_6detail7ArcSinhEEEvRKNS2_5arrayERS6_T_NS2_6StreamEEUlvE_EE, 
                       __ZTSNSt3__118__weak_result_typeIZN3mlx4core8unary_fpINS2_6detail7ArcTanhEEEvRKNS2_5arrayERS6_T_NS2_6StreamEEUlvE_EE, 
                       __ZTSNSt3__118__weak_result_typeIZN3mlx4core8unary_fpINS2_6detail7SigmoidEEEvRKNS2_5arrayERS6_T_NS2_6StreamEEUlvE_EE, 
                       __ZTSNSt3__118__weak_result_typeIZN3mlx4core9unary_intINS2_6detail13BitwiseInvertEEEvRKNS2_5arrayERS6_T_NS2_6StreamEEUlvE_EE, 
                       __ZTSNSt3__120__bracket_expressionIcNS_12regex_traitsIcEEEE, 
                       __ZTSNSt3__120__l_anchor_multilineIcEE, __ZTSNSt3__120__match_char_collateIcNS_12regex_traitsIcEEEE, 
                       __ZTSNSt3__120__packaged_task_baseIFbvEEE, __ZTSNSt3__120__packaged_task_baseIFvvEEE, 
                       __ZTSNSt3__120__packaged_task_funcINS_6__bindINS1_IMN3mlx4core11distributed4ring9RingGroupEFvPKcPcmmiiiEJPS6_S8_S9_RKmmRiSF_iEEEJEEENS_9allocatorISH_EEFvvEEE, 
                       __ZTSNSt3__120__r_anchor_multilineIcEE, __ZTSNSt3__120__shared_ptr_emplaceIN3mlx4core10ContiguousENS_9allocatorIS3_EEEE, 
                       __ZTSNSt3__120__shared_ptr_emplaceIN3mlx4core10ExpandDimsENS_9allocatorIS3_EEEE, 
                       __ZTSNSt3__120__shared_ptr_emplaceIN3mlx4core10GatherAxisENS_9allocatorIS3_EEEE, 
                       __ZTSNSt3__120__shared_ptr_emplaceIN3mlx4core10LogicalAndENS_9allocatorIS3_EEEE, 
                       __ZTSNSt3__120__shared_ptr_emplaceIN3mlx4core10LogicalNotENS_9allocatorIS3_EEEE, 
                       __ZTSNSt3__120__shared_ptr_emplaceIN3mlx4core10RandomBitsENS_9allocatorIS3_EEEE, 
                       __ZTSNSt3__120__shared_ptr_emplaceIN3mlx4core11ConcatenateENS_9allocatorIS3_EEEE, 
                       __ZTSNSt3__120__shared_ptr_emplaceIN3mlx4core11ConvolutionENS_9allocatorIS3_EEEE, 
                       __ZTSNSt3__120__shared_ptr_emplaceIN3mlx4core11ScatterAxisENS_9allocatorIS3_EEEE, 
                       __ZTSNSt3__120__shared_ptr_emplaceIN3mlx4core11SliceUpdateENS_9allocatorIS3_EEEE, 
                       __ZTSNSt3__120__shared_ptr_emplaceIN3mlx4core11distributed3mpi8MPIGroupENS_9allocatorIS5_EEEE, 
                       __ZTSNSt3__120__shared_ptr_emplaceIN3mlx4core11distributed4RecvENS_9allocatorIS4_EEEE, 
                       __ZTSNSt3__120__shared_ptr_emplaceIN3mlx4core11distributed4SendENS_9allocatorIS4_EEEE, 
                       __ZTSNSt3__120__shared_ptr_emplaceIN3mlx4core11distributed4ring9RingGroupENS_9allocatorIS5_EEEE, 
                       __ZTSNSt3__120__shared_ptr_emplaceIN3mlx4core11distributed6detail10EmptyGroupENS_9allocatorIS5_EEEE, 
                       __ZTSNSt3__120__shared_ptr_emplaceIN3mlx4core11distributed9AllGatherENS_9allocatorIS4_EEEE, 
                       __ZTSNSt3__120__shared_ptr_emplaceIN3mlx4core11distributed9AllReduceENS_9allocatorIS4_EEEE, 
                       __ZTSNSt3__120__shared_ptr_emplaceIN3mlx4core12ArgPartitionENS_9allocatorIS3_EEEE, 
                       __ZTSNSt3__120__shared_ptr_emplaceIN3mlx4core12DynamicSliceENS_9allocatorIS3_EEEE, 
                       __ZTSNSt3__120__shared_ptr_emplaceIN3mlx4core12GreaterEqualENS_9allocatorIS3_EEEE, 
                       __ZTSNSt3__120__shared_ptr_emplaceIN3mlx4core12StopGradientENS_9allocatorIS3_EEEE, 
                       __ZTSNSt3__120__shared_ptr_emplaceIN3mlx4core12SynchronizerENS_9allocatorIS3_EEEE, 
                       __ZTSNSt3__120__shared_ptr_emplaceIN3mlx4core13BitwiseBinaryENS_9allocatorIS3_EEEE, 
                       __ZTSNSt3__120__shared_ptr_emplaceIN3mlx4core13BitwiseInvertENS_9allocatorIS3_EEEE, 
                       __ZTSNSt3__120__shared_ptr_emplaceIN3mlx4core13BlockMaskedMMENS_9allocatorIS3_EEEE, 
                       __ZTSNSt3__120__shared_ptr_emplaceIN3mlx4core13BroadcastAxesENS_9allocatorIS3_EEEE, 
                       __ZTSNSt3__120__shared_ptr_emplaceIN3mlx4core13FunctionTableENS_9allocatorIS3_EEEE, 
                       __ZTSNSt3__120__shared_ptr_emplaceIN3mlx4core14LoadMultiSliceENS_9allocatorIS3_EEEE, 
                       __ZTSNSt3__120__shared_ptr_emplaceIN3mlx4core15QuantizedMatmulENS_9allocatorIS3_EEEE, 
                       __ZTSNSt3__120__shared_ptr_emplaceIN3mlx4core16CustomTransformsENS_9allocatorIS3_EEEE, 
                       __ZTSNSt3__120__shared_ptr_emplaceIN3mlx4core16NumberOfElementsENS_9allocatorIS3_EEEE, 
                       __ZTSNSt3__120__shared_ptr_emplaceIN3mlx4core18DynamicSliceUpdateENS_9allocatorIS3_EEEE, 
                       __ZTSNSt3__120__shared_ptr_emplaceIN3mlx4core2io10FileWriterENS_9allocatorIS4_EEEE, 
                       __ZTSNSt3__120__shared_ptr_emplaceIN3mlx4core2io16SlicedFileReaderENS_9allocatorIS4_EEEE, 
                       __ZTSNSt3__120__shared_ptr_emplaceIN3mlx4core2io18ParallelFileReaderENS_9allocatorIS4_EEEE, 
                       __ZTSNSt3__120__shared_ptr_emplaceIN3mlx4core3AbsENS_9allocatorIS3_EEEE, 
                       __ZTSNSt3__120__shared_ptr_emplaceIN3mlx4core3AddENS_9allocatorIS3_EEEE, 
                       __ZTSNSt3__120__shared_ptr_emplaceIN3mlx4core3CosENS_9allocatorIS3_EEEE, 
                       __ZTSNSt3__120__shared_ptr_emplaceIN3mlx4core3ErfENS_9allocatorIS3_EEEE, 
                       __ZTSNSt3__120__shared_ptr_emplaceIN3mlx4core3ExpENS_9allocatorIS3_EEEE, 
                       __ZTSNSt3__120__shared_ptr_emplaceIN3mlx4core3FFTENS_9allocatorIS3_EEEE, 
                       __ZTSNSt3__120__shared_ptr_emplaceIN3mlx4core3LUFENS_9allocatorIS3_EEEE, 
                       __ZTSNSt3__120__shared_ptr_emplaceIN3mlx4core3LogENS_9allocatorIS3_EEEE, 
                       __ZTSNSt3__120__shared_ptr_emplaceIN3mlx4core3PadENS_9allocatorIS3_EEEE, 
                       __ZTSNSt3__120__shared_ptr_emplaceIN3mlx4core3QRFENS_9allocatorIS3_EEEE, 
                       __ZTSNSt3__120__shared_ptr_emplaceIN3mlx4core3SVDENS_9allocatorIS3_EEEE, 
                       __ZTSNSt3__120__shared_ptr_emplaceIN3mlx4core3SinENS_9allocatorIS3_EEEE, 
                       __ZTSNSt3__120__shared_ptr_emplaceIN3mlx4core3TanENS_9allocatorIS3_EEEE, 
                       __ZTSNSt3__120__shared_ptr_emplaceIN3mlx4core4CeilENS_9allocatorIS3_EEEE, 
                       __ZTSNSt3__120__shared_ptr_emplaceIN3mlx4core4CopyENS_9allocatorIS3_EEEE, 
                       __ZTSNSt3__120__shared_ptr_emplaceIN3mlx4core4CoshENS_9allocatorIS3_EEEE, 
                       __ZTSNSt3__120__shared_ptr_emplaceIN3mlx4core4EighENS_9allocatorIS3_EEEE, 
                       __ZTSNSt3__120__shared_ptr_emplaceIN3mlx4core4FullENS_9allocatorIS3_EEEE, 
                       __ZTSNSt3__120__shared_ptr_emplaceIN3mlx4core4ImagENS_9allocatorIS3_EEEE, 
                       __ZTSNSt3__120__shared_ptr_emplaceIN3mlx4core4LessENS_9allocatorIS3_EEEE, 
                       __ZTSNSt3__120__shared_ptr_emplaceIN3mlx4core4LoadENS_9allocatorIS3_EEEE, 
                       __ZTSNSt3__120__shared_ptr_emplaceIN3mlx4core4RealENS_9allocatorIS3_EEEE, 
                       __ZTSNSt3__120__shared_ptr_emplaceIN3mlx4core4ScanENS_9allocatorIS3_EEEE, 
                       __ZTSNSt3__120__shared_ptr_emplaceIN3mlx4core4SignENS_9allocatorIS3_EEEE, 
                       __ZTSNSt3__120__shared_ptr_emplaceIN3mlx4core4SinhENS_9allocatorIS3_EEEE, 
                       __ZTSNSt3__120__shared_ptr_emplaceIN3mlx4core4SortENS_9allocatorIS3_EEEE, 
                       __ZTSNSt3__120__shared_ptr_emplaceIN3mlx4core4SqrtENS_9allocatorIS3_EEEE, 
                       __ZTSNSt3__120__shared_ptr_emplaceIN3mlx4core4TanhENS_9allocatorIS3_EEEE, 
                       __ZTSNSt3__120__shared_ptr_emplaceIN3mlx4core4ViewENS_9allocatorIS3_EEEE, 
                       __ZTSNSt3__120__shared_ptr_emplaceIN3mlx4core4fast10RMSNormVJPENS_9allocatorIS4_EEEE, 
                       __ZTSNSt3__120__shared_ptr_emplaceIN3mlx4core4fast12CustomKernelENS_9allocatorIS4_EEEE, 
                       __ZTSNSt3__120__shared_ptr_emplaceIN3mlx4core4fast12LayerNormVJPENS_9allocatorIS4_EEEE, 
                       __ZTSNSt3__120__shared_ptr_emplaceIN3mlx4core4fast14AffineQuantizeENS_9allocatorIS4_EEEE, 
                       __ZTSNSt3__120__shared_ptr_emplaceIN3mlx4core4fast25ScaledDotProductAttentionENS_9allocatorIS4_EEEE, 
                       __ZTSNSt3__120__shared_ptr_emplaceIN3mlx4core4fast4RoPEENS_9allocatorIS4_EEEE, 
                       __ZTSNSt3__120__shared_ptr_emplaceIN3mlx4core4fast7RMSNormENS_9allocatorIS4_EEEE, 
                       __ZTSNSt3__120__shared_ptr_emplaceIN3mlx4core4fast9LayerNormENS_9allocatorIS4_EEEE, 
                       __ZTSNSt3__120__shared_ptr_emplaceIN3mlx4core5AddMMENS_9allocatorIS3_EEEE, 
                       __ZTSNSt3__120__shared_ptr_emplaceIN3mlx4core5EqualENS_9allocatorIS3_EEEE, 
                       __ZTSNSt3__120__shared_ptr_emplaceIN3mlx4core5Expm1ENS_9allocatorIS3_EEEE, 
                       __ZTSNSt3__120__shared_ptr_emplaceIN3mlx4core5FloorENS_9allocatorIS3_EEEE, 
                       __ZTSNSt3__120__shared_ptr_emplaceIN3mlx4core5Log1pENS_9allocatorIS3_EEEE, 
                       __ZTSNSt3__120__shared_ptr_emplaceIN3mlx4core5PowerENS_9allocatorIS3_EEEE, 
                       __ZTSNSt3__120__shared_ptr_emplaceIN3mlx4core5RoundENS_9allocatorIS3_EEEE, 
                       __ZTSNSt3__120__shared_ptr_emplaceIN3mlx4core5SliceENS_9allocatorIS3_EEEE, 
                       __ZTSNSt3__120__shared_ptr_emplaceIN3mlx4core5SplitENS_9allocatorIS3_EEEE, 
                       __ZTSNSt3__120__shared_ptr_emplaceIN3mlx4core5array4DataENS_9allocatorIS4_EEEE, 
                       __ZTSNSt3__120__shared_ptr_emplaceIN3mlx4core5array9ArrayDescENS_9allocatorIS4_EEEE, 
                       __ZTSNSt3__120__shared_ptr_emplaceIN3mlx4core5metal5FenceENS_9allocatorIS4_EEEE, 
                       __ZTSNSt3__120__shared_ptr_emplaceIN3mlx4core6ArangeENS_9allocatorIS3_EEEE, 
                       __ZTSNSt3__120__shared_ptr_emplaceIN3mlx4core6ArcCosENS_9allocatorIS3_EEEE, 
                       __ZTSNSt3__120__shared_ptr_emplaceIN3mlx4core6ArcSinENS_9allocatorIS3_EEEE, 
                       __ZTSNSt3__120__shared_ptr_emplaceIN3mlx4core6ArcTanENS_9allocatorIS3_EEEE, 
                       __ZTSNSt3__120__shared_ptr_emplaceIN3mlx4core6AsTypeENS_9allocatorIS3_EEEE, 
                       __ZTSNSt3__120__shared_ptr_emplaceIN3mlx4core6DivModENS_9allocatorIS3_EEEE, 
                       __ZTSNSt3__120__shared_ptr_emplaceIN3mlx4core6DivideENS_9allocatorIS3_EEEE, 
                       __ZTSNSt3__120__shared_ptr_emplaceIN3mlx4core6ErfInvENS_9allocatorIS3_EEEE, 
                       __ZTSNSt3__120__shared_ptr_emplaceIN3mlx4core6GatherENS_9allocatorIS3_EEEE, 
                       __ZTSNSt3__120__shared_ptr_emplaceIN3mlx4core6MatmulENS_9allocatorIS3_EEEE, 
                       __ZTSNSt3__120__shared_ptr_emplaceIN3mlx4core6ReduceENS_9allocatorIS3_EEEE, 
                       __ZTSNSt3__120__shared_ptr_emplaceIN3mlx4core6SelectENS_9allocatorIS3_EEEE, 
                       __ZTSNSt3__120__shared_ptr_emplaceIN3mlx4core6SquareENS_9allocatorIS3_EEEE, 
                       __ZTSNSt3__120__shared_ptr_emplaceIN3mlx4core7ArcCoshENS_9allocatorIS3_EEEE, 
                       __ZTSNSt3__120__shared_ptr_emplaceIN3mlx4core7ArcSinhENS_9allocatorIS3_EEEE, 
                       __ZTSNSt3__120__shared_ptr_emplaceIN3mlx4core7ArcTan2ENS_9allocatorIS3_EEEE, 
                       __ZTSNSt3__120__shared_ptr_emplaceIN3mlx4core7ArcTanhENS_9allocatorIS3_EEEE, 
                       __ZTSNSt3__120__shared_ptr_emplaceIN3mlx4core7ArgSortENS_9allocatorIS3_EEEE, 
                       __ZTSNSt3__120__shared_ptr_emplaceIN3mlx4core7DependsENS_9allocatorIS3_EEEE, 
                       __ZTSNSt3__120__shared_ptr_emplaceIN3mlx4core7FlattenENS_9allocatorIS3_EEEE, 
                       __ZTSNSt3__120__shared_ptr_emplaceIN3mlx4core7GreaterENS_9allocatorIS3_EEEE, 
                       __ZTSNSt3__120__shared_ptr_emplaceIN3mlx4core7InverseENS_9allocatorIS3_EEEE, 
                       __ZTSNSt3__120__shared_ptr_emplaceIN3mlx4core7MaximumENS_9allocatorIS3_EEEE, 
                       __ZTSNSt3__120__shared_ptr_emplaceIN3mlx4core7MinimumENS_9allocatorIS3_EEEE, 
                       __ZTSNSt3__120__shared_ptr_emplaceIN3mlx4core7ReshapeENS_9allocatorIS3_EEEE, 
                       __ZTSNSt3__120__shared_ptr_emplaceIN3mlx4core7ScatterENS_9allocatorIS3_EEEE, 
                       __ZTSNSt3__120__shared_ptr_emplaceIN3mlx4core7SigmoidENS_9allocatorIS3_EEEE, 
                       __ZTSNSt3__120__shared_ptr_emplaceIN3mlx4core7SoftmaxENS_9allocatorIS3_EEEE, 
                       __ZTSNSt3__120__shared_ptr_emplaceIN3mlx4core7SqueezeENS_9allocatorIS3_EEEE, 
                       __ZTSNSt3__120__shared_ptr_emplaceIN3mlx4core8CholeskyENS_9allocatorIS3_EEEE, 
                       __ZTSNSt3__120__shared_ptr_emplaceIN3mlx4core8CompiledENS_9allocatorIS3_EEEE, 
                       __ZTSNSt3__120__shared_ptr_emplaceIN3mlx4core8GatherMMENS_9allocatorIS3_EEEE, 
                       __ZTSNSt3__120__shared_ptr_emplaceIN3mlx4core8HadamardENS_9allocatorIS3_EEEE, 
                       __ZTSNSt3__120__shared_ptr_emplaceIN3mlx4core8MultiplyENS_9allocatorIS3_EEEE, 
                       __ZTSNSt3__120__shared_ptr_emplaceIN3mlx4core8NegativeENS_9allocatorIS3_EEEE, 
                       __ZTSNSt3__120__shared_ptr_emplaceIN3mlx4core8NotEqualENS_9allocatorIS3_EEEE, 
                       __ZTSNSt3__120__shared_ptr_emplaceIN3mlx4core8SubtractENS_9allocatorIS3_EEEE, 
                       __ZTSNSt3__120__shared_ptr_emplaceIN3mlx4core9ArgReduceENS_9allocatorIS3_EEEE, 
                       __ZTSNSt3__120__shared_ptr_emplaceIN3mlx4core9AsStridedENS_9allocatorIS3_EEEE, 
                       __ZTSNSt3__120__shared_ptr_emplaceIN3mlx4core9BroadcastENS_9allocatorIS3_EEEE, 
                       __ZTSNSt3__120__shared_ptr_emplaceIN3mlx4core9ConjugateENS_9allocatorIS3_EEEE, 
                       __ZTSNSt3__120__shared_ptr_emplaceIN3mlx4core9GatherQMMENS_9allocatorIS3_EEEE, 
                       __ZTSNSt3__120__shared_ptr_emplaceIN3mlx4core9LessEqualENS_9allocatorIS3_EEEE, 
                       __ZTSNSt3__120__shared_ptr_emplaceIN3mlx4core9LogAddExpENS_9allocatorIS3_EEEE, 
                       __ZTSNSt3__120__shared_ptr_emplaceIN3mlx4core9LogSumExpENS_9allocatorIS3_EEEE, 
                       __ZTSNSt3__120__shared_ptr_emplaceIN3mlx4core9LogicalOrENS_9allocatorIS3_EEEE, 
                       __ZTSNSt3__120__shared_ptr_emplaceIN3mlx4core9PartitionENS_9allocatorIS3_EEEE, 
                       __ZTSNSt3__120__shared_ptr_emplaceIN3mlx4core9RemainderENS_9allocatorIS3_EEEE, 
                       __ZTSNSt3__120__shared_ptr_emplaceIN3mlx4core9TransposeENS_9allocatorIS3_EEEE, 
                       __ZTSNSt3__120__shared_ptr_emplaceIN3mlx4core9UnflattenENS_9allocatorIS3_EEEE, 
                       __ZTSNSt3__120__shared_ptr_emplaceIN8nlohmann16json_abi_v3_11_36detail21output_string_adapterIcNS_12basic_stringIcNS_11char_traitsIcEENS_9allocatorIcEEEEEENS8_ISB_EEEE, 
                       __ZTSNSt3__120__shared_ptr_emplaceIN9pocketfft6detail11pocketfft_cIfEENS_9allocatorIS4_EEEE, 
                       __ZTSNSt3__120__shared_ptr_emplaceIN9pocketfft6detail11pocketfft_rIfEENS_9allocatorIS4_EEEE, 
                       __ZTSNSt3__120__shared_ptr_emplaceINS_13packaged_taskIFbvEEENS_9allocatorIS3_EEEE, 
                       __ZTSNSt3__120__shared_ptr_emplaceINS_13packaged_taskIFvvEEENS_9allocatorIS3_EEEE, 
                       __ZTSNSt3__120__shared_ptr_emplaceINS_7promiseIvEENS_9allocatorIS2_EEEE, 
                       __ZTSNSt3__120__shared_ptr_pointerIPNS_13__empty_stateIcEENS_10shared_ptrIS2_E27__shared_ptr_default_deleteIS2_S2_EENS_9allocatorIS2_EEEE, 
                       __ZTSNSt3__120__shared_ptr_pointerIPvPFvS1_ENS_9allocatorIvEEEE, 
                       __ZTSNSt3__121__empty_non_own_stateIcEE, __ZTSNSt3__122__weak_result_type_impIZN3mlx4core12inverse_implIdEEvRKNS2_5arrayERS4_bbNS2_6StreamEEUlvE0_Lb0EEE, 
                       __ZTSNSt3__122__weak_result_type_impIZN3mlx4core12inverse_implIdEEvRKNS2_5arrayERS4_bbNS2_6StreamEEUlvE_Lb0EEE, 
                       __ZTSNSt3__122__weak_result_type_impIZN3mlx4core12inverse_implIfEEvRKNS2_5arrayERS4_bbNS2_6StreamEEUlvE0_Lb0EEE, 
                       __ZTSNSt3__122__weak_result_type_impIZN3mlx4core12inverse_implIfEEvRKNS2_5arrayERS4_bbNS2_6StreamEEUlvE_Lb0EEE, 
                       __ZTSNSt3__122__weak_result_type_impIZN3mlx4core12unary_signedINS2_6detail3AbsEEEvRKNS2_5arrayERS6_T_NS2_6StreamEEUlvE_Lb0EEE, 
                       __ZTSNSt3__122__weak_result_type_impIZN3mlx4core13cholesky_implIdEEvRKNS2_5arrayERS4_bNS2_6StreamEEUlvE_Lb0EEE, 
                       __ZTSNSt3__122__weak_result_type_impIZN3mlx4core13cholesky_implIfEEvRKNS2_5arrayERS4_bNS2_6StreamEEUlvE_Lb0EEE, 
                       __ZTSNSt3__122__weak_result_type_impIZN3mlx4core13unary_complexINS2_6detail9ConjugateEEEvRKNS2_5arrayERS6_T_NS2_6StreamEEUlvE_Lb0EEE, 
                       __ZTSNSt3__122__weak_result_type_impIZN3mlx4core13unary_real_fpINS2_6detail3ErfEEEvRKNS2_5arrayERS6_T_NS2_6StreamEEUlvE_Lb0EEE, 
                       __ZTSNSt3__122__weak_result_type_impIZN3mlx4core13unary_real_fpINS2_6detail6ErfInvEEEvRKNS2_5arrayERS6_T_NS2_6StreamEEUlvE_Lb0EEE, 
                       __ZTSNSt3__122__weak_result_type_impIZN3mlx4core15matmul_dispatchINS2_12_MLX_Float16EEEvRKNS2_5arrayES7_RS5_bbmmffNS2_6StreamEEUlvE_Lb0EEE, 
                       __ZTSNSt3__122__weak_result_type_impIZN3mlx4core15matmul_dispatchINS2_13_MLX_BFloat16EEEvRKNS2_5arrayES7_RS5_bbmmffNS2_6StreamEEUlvE_Lb0EEE, 
                       __ZTSNSt3__122__weak_result_type_impIZN3mlx4core15matmul_dispatchIdEEvRKNS2_5arrayES6_RS4_bbmmffNS2_6StreamEEUlvE_Lb0EEE, 
                       __ZTSNSt3__122__weak_result_type_impIZN3mlx4core15matmul_dispatchIfEEvRKNS2_5arrayES6_RS4_bbmmffNS2_6StreamEEUlvE_Lb0EEE, 
                       __ZTSNSt3__122__weak_result_type_impIZN3mlx4core22unary_complex_to_floatINS2_6detail4ImagEEEvRKNS2_5arrayERS6_T_NS2_6StreamEEUlvE_Lb0EEE, 
                       __ZTSNSt3__122__weak_result_type_impIZN3mlx4core22unary_complex_to_floatINS2_6detail4RealEEEvRKNS2_5arrayERS6_T_NS2_6StreamEEUlvE_Lb0EEE, 
                       __ZTSNSt3__122__weak_result_type_impIZN3mlx4core5unaryINS2_6detail10LogicalNotEEEvRKNS2_5arrayERS6_T_NS2_6StreamEEUlvE_Lb0EEE, 
                       __ZTSNSt3__122__weak_result_type_impIZN3mlx4core5unaryINS2_6detail4SignEEEvRKNS2_5arrayERS6_T_NS2_6StreamEEUlvE_Lb0EEE, 
                       __ZTSNSt3__122__weak_result_type_impIZN3mlx4core5unaryINS2_6detail6SquareEEEvRKNS2_5arrayERS6_T_NS2_6StreamEEUlvE_Lb0EEE, 
                       __ZTSNSt3__122__weak_result_type_impIZN3mlx4core5unaryINS2_6detail8NegativeEEEvRKNS2_5arrayERS6_T_NS2_6StreamEEUlvE_Lb0EEE, 
                       __ZTSNSt3__122__weak_result_type_impIZN3mlx4core8hadamardINS2_12_MLX_Float16EEEvRNS2_5arrayEiifNS2_6StreamEEUlvE_Lb0EEE, 
                       __ZTSNSt3__122__weak_result_type_impIZN3mlx4core8hadamardINS2_13_MLX_BFloat16EEEvRNS2_5arrayEiifNS2_6StreamEEUlvE_Lb0EEE, 
                       __ZTSNSt3__122__weak_result_type_impIZN3mlx4core8hadamardIfEEvRNS2_5arrayEiifNS2_6StreamEEUlvE_Lb0EEE, 
                       __ZTSNSt3__122__weak_result_type_impIZN3mlx4core8luf_implIdEEvRKNS2_5arrayERS4_S7_S7_NS2_6StreamEEUlvE_Lb0EEE, 
                       __ZTSNSt3__122__weak_result_type_impIZN3mlx4core8luf_implIfEEvRKNS2_5arrayERS4_S7_S7_NS2_6StreamEEUlvE_Lb0EEE, 
                       __ZTSNSt3__122__weak_result_type_impIZN3mlx4core8qrf_implIdEEvRKNS2_5arrayERS4_S7_NS2_6StreamEEUlvE_Lb0EEE, 
                       __ZTSNSt3__122__weak_result_type_impIZN3mlx4core8qrf_implIfEEvRKNS2_5arrayERS4_S7_NS2_6StreamEEUlvE_Lb0EEE, 
                       __ZTSNSt3__122__weak_result_type_impIZN3mlx4core8svd_implIdEEvRKNS2_5arrayERNS_6vectorIS4_NS_9allocatorIS4_EEEEbNS2_6StreamEEUlvE_Lb0EEE, 
                       __ZTSNSt3__122__weak_result_type_impIZN3mlx4core8svd_implIfEEvRKNS2_5arrayERNS_6vectorIS4_NS_9allocatorIS4_EEEEbNS2_6StreamEEUlvE_Lb0EEE, 
                       __ZTSNSt3__122__weak_result_type_impIZN3mlx4core8unary_fpINS2_6detail3CosEEEvRKNS2_5arrayERS6_T_NS2_6StreamEEUlvE_Lb0EEE, 
                       __ZTSNSt3__122__weak_result_type_impIZN3mlx4core8unary_fpINS2_6detail3ExpEEEvRKNS2_5arrayERS6_T_NS2_6StreamEEUlvE_Lb0EEE, 
                       __ZTSNSt3__122__weak_result_type_impIZN3mlx4core8unary_fpINS2_6detail3LogEEEvRKNS2_5arrayERS6_T_NS2_6StreamEEUlvE_Lb0EEE, 
                       __ZTSNSt3__122__weak_result_type_impIZN3mlx4core8unary_fpINS2_6detail3SinEEEvRKNS2_5arrayERS6_T_NS2_6StreamEEUlvE_Lb0EEE, 
                       __ZTSNSt3__122__weak_result_type_impIZN3mlx4core8unary_fpINS2_6detail3TanEEEvRKNS2_5arrayERS6_T_NS2_6StreamEEUlvE_Lb0EEE, 
                       __ZTSNSt3__122__weak_result_type_impIZN3mlx4core8unary_fpINS2_6detail4CeilEEEvRKNS2_5arrayERS6_T_NS2_6StreamEEUlvE_Lb0EEE, 
                       __ZTSNSt3__122__weak_result_type_impIZN3mlx4core8unary_fpINS2_6detail4CoshEEEvRKNS2_5arrayERS6_T_NS2_6StreamEEUlvE_Lb0EEE, 
                       __ZTSNSt3__122__weak_result_type_impIZN3mlx4core8unary_fpINS2_6detail4Log2EEEvRKNS2_5arrayERS6_T_NS2_6StreamEEUlvE_Lb0EEE, 
                       __ZTSNSt3__122__weak_result_type_impIZN3mlx4core8unary_fpINS2_6detail4SinhEEEvRKNS2_5arrayERS6_T_NS2_6StreamEEUlvE_Lb0EEE, 
                       __ZTSNSt3__122__weak_result_type_impIZN3mlx4core8unary_fpINS2_6detail4SqrtEEEvRKNS2_5arrayERS6_T_NS2_6StreamEEUlvE_Lb0EEE, 
                       __ZTSNSt3__122__weak_result_type_impIZN3mlx4core8unary_fpINS2_6detail4TanhEEEvRKNS2_5arrayERS6_T_NS2_6StreamEEUlvE_Lb0EEE, 
                       __ZTSNSt3__122__weak_result_type_impIZN3mlx4core8unary_fpINS2_6detail5Expm1EEEvRKNS2_5arrayERS6_T_NS2_6StreamEEUlvE_Lb0EEE, 
                       __ZTSNSt3__122__weak_result_type_impIZN3mlx4core8unary_fpINS2_6detail5FloorEEEvRKNS2_5arrayERS6_T_NS2_6StreamEEUlvE_Lb0EEE, 
                       __ZTSNSt3__122__weak_result_type_impIZN3mlx4core8unary_fpINS2_6detail5Log10EEEvRKNS2_5arrayERS6_T_NS2_6StreamEEUlvE_Lb0EEE, 
                       __ZTSNSt3__122__weak_result_type_impIZN3mlx4core8unary_fpINS2_6detail5Log1pEEEvRKNS2_5arrayERS6_T_NS2_6StreamEEUlvE_Lb0EEE, 
                       __ZTSNSt3__122__weak_result_type_impIZN3mlx4core8unary_fpINS2_6detail5RoundEEEvRKNS2_5arrayERS6_T_NS2_6StreamEEUlvE_Lb0EEE, 
                       __ZTSNSt3__122__weak_result_type_impIZN3mlx4core8unary_fpINS2_6detail5RsqrtEEEvRKNS2_5arrayERS6_T_NS2_6StreamEEUlvE_Lb0EEE, 
                       __ZTSNSt3__122__weak_result_type_impIZN3mlx4core8unary_fpINS2_6detail6ArcCosEEEvRKNS2_5arrayERS6_T_NS2_6StreamEEUlvE_Lb0EEE, 
                       __ZTSNSt3__122__weak_result_type_impIZN3mlx4core8unary_fpINS2_6detail6ArcSinEEEvRKNS2_5arrayERS6_T_NS2_6StreamEEUlvE_Lb0EEE, 
                       __ZTSNSt3__122__weak_result_type_impIZN3mlx4core8unary_fpINS2_6detail6ArcTanEEEvRKNS2_5arrayERS6_T_NS2_6StreamEEUlvE_Lb0EEE, 
                       __ZTSNSt3__122__weak_result_type_impIZN3mlx4core8unary_fpINS2_6detail7ArcCoshEEEvRKNS2_5arrayERS6_T_NS2_6StreamEEUlvE_Lb0EEE, 
                       __ZTSNSt3__122__weak_result_type_impIZN3mlx4core8unary_fpINS2_6detail7ArcSinhEEEvRKNS2_5arrayERS6_T_NS2_6StreamEEUlvE_Lb0EEE, 
                       __ZTSNSt3__122__weak_result_type_impIZN3mlx4core8unary_fpINS2_6detail7ArcTanhEEEvRKNS2_5arrayERS6_T_NS2_6StreamEEUlvE_Lb0EEE, 
                       __ZTSNSt3__122__weak_result_type_impIZN3mlx4core8unary_fpINS2_6detail7SigmoidEEEvRKNS2_5arrayERS6_T_NS2_6StreamEEUlvE_Lb0EEE, 
                       __ZTSNSt3__122__weak_result_type_impIZN3mlx4core9unary_intINS2_6detail13BitwiseInvertEEEvRKNS2_5arrayERS6_T_NS2_6StreamEEUlvE_Lb0EEE, 
                       __ZTSNSt3__123__match_any_but_newlineIcEE, __ZTSNSt3__126__end_marked_subexpressionIcEE, 
                       __ZTSNSt3__128__begin_marked_subexpressionIcEE, __ZTSNSt3__133__unary_function_keep_layout_baseINS_6vectorIN3mlx4core5arrayENS_9allocatorIS4_EEEES7_EE, 
                       __ZTSNSt3__134__maybe_derive_from_unary_functionIZN3mlx4core12inverse_implIdEEvRKNS2_5arrayERS4_bbNS2_6StreamEEUlvE0_Lb0EEE, 
                       __ZTSNSt3__134__maybe_derive_from_unary_functionIZN3mlx4core12inverse_implIdEEvRKNS2_5arrayERS4_bbNS2_6StreamEEUlvE_Lb0EEE, 
                       __ZTSNSt3__134__maybe_derive_from_unary_functionIZN3mlx4core12inverse_implIfEEvRKNS2_5arrayERS4_bbNS2_6StreamEEUlvE0_Lb0EEE, 
                       __ZTSNSt3__134__maybe_derive_from_unary_functionIZN3mlx4core12inverse_implIfEEvRKNS2_5arrayERS4_bbNS2_6StreamEEUlvE_Lb0EEE, 
                       __ZTSNSt3__134__maybe_derive_from_unary_functionIZN3mlx4core12unary_signedINS2_6detail3AbsEEEvRKNS2_5arrayERS6_T_NS2_6StreamEEUlvE_Lb0EEE, 
                       __ZTSNSt3__134__maybe_derive_from_unary_functionIZN3mlx4core13cholesky_implIdEEvRKNS2_5arrayERS4_bNS2_6StreamEEUlvE_Lb0EEE, 
                       __ZTSNSt3__134__maybe_derive_from_unary_functionIZN3mlx4core13cholesky_implIfEEvRKNS2_5arrayERS4_bNS2_6StreamEEUlvE_Lb0EEE, 
                       __ZTSNSt3__134__maybe_derive_from_unary_functionIZN3mlx4core13unary_complexINS2_6detail9ConjugateEEEvRKNS2_5arrayERS6_T_NS2_6StreamEEUlvE_Lb0EEE, 
                       __ZTSNSt3__134__maybe_derive_from_unary_functionIZN3mlx4core13unary_real_fpINS2_6detail3ErfEEEvRKNS2_5arrayERS6_T_NS2_6StreamEEUlvE_Lb0EEE, 
                       __ZTSNSt3__134__maybe_derive_from_unary_functionIZN3mlx4core13unary_real_fpINS2_6detail6ErfInvEEEvRKNS2_5arrayERS6_T_NS2_6StreamEEUlvE_Lb0EEE, 
                       __ZTSNSt3__134__maybe_derive_from_unary_functionIZN3mlx4core15matmul_dispatchINS2_12_MLX_Float16EEEvRKNS2_5arrayES7_RS5_bbmmffNS2_6StreamEEUlvE_Lb0EEE, 
                       __ZTSNSt3__134__maybe_derive_from_unary_functionIZN3mlx4core15matmul_dispatchINS2_13_MLX_BFloat16EEEvRKNS2_5arrayES7_RS5_bbmmffNS2_6StreamEEUlvE_Lb0EEE, 
                       __ZTSNSt3__134__maybe_derive_from_unary_functionIZN3mlx4core15matmul_dispatchIdEEvRKNS2_5arrayES6_RS4_bbmmffNS2_6StreamEEUlvE_Lb0EEE, 
                       __ZTSNSt3__134__maybe_derive_from_unary_functionIZN3mlx4core15matmul_dispatchIfEEvRKNS2_5arrayES6_RS4_bbmmffNS2_6StreamEEUlvE_Lb0EEE, 
                       __ZTSNSt3__134__maybe_derive_from_unary_functionIZN3mlx4core22unary_complex_to_floatINS2_6detail4ImagEEEvRKNS2_5arrayERS6_T_NS2_6StreamEEUlvE_Lb0EEE, 
                       __ZTSNSt3__134__maybe_derive_from_unary_functionIZN3mlx4core22unary_complex_to_floatINS2_6detail4RealEEEvRKNS2_5arrayERS6_T_NS2_6StreamEEUlvE_Lb0EEE, 
                       __ZTSNSt3__134__maybe_derive_from_unary_functionIZN3mlx4core5unaryINS2_6detail10LogicalNotEEEvRKNS2_5arrayERS6_T_NS2_6StreamEEUlvE_Lb0EEE, 
                       __ZTSNSt3__134__maybe_derive_from_unary_functionIZN3mlx4core5unaryINS2_6detail4SignEEEvRKNS2_5arrayERS6_T_NS2_6StreamEEUlvE_Lb0EEE, 
                       __ZTSNSt3__134__maybe_derive_from_unary_functionIZN3mlx4core5unaryINS2_6detail6SquareEEEvRKNS2_5arrayERS6_T_NS2_6StreamEEUlvE_Lb0EEE, 
                       __ZTSNSt3__134__maybe_derive_from_unary_functionIZN3mlx4core5unaryINS2_6detail8NegativeEEEvRKNS2_5arrayERS6_T_NS2_6StreamEEUlvE_Lb0EEE, 
                       __ZTSNSt3__134__maybe_derive_from_unary_functionIZN3mlx4core8hadamardINS2_12_MLX_Float16EEEvRNS2_5arrayEiifNS2_6StreamEEUlvE_Lb0EEE, 
                       __ZTSNSt3__134__maybe_derive_from_unary_functionIZN3mlx4core8hadamardINS2_13_MLX_BFloat16EEEvRNS2_5arrayEiifNS2_6StreamEEUlvE_Lb0EEE, 
                       __ZTSNSt3__134__maybe_derive_from_unary_functionIZN3mlx4core8hadamardIfEEvRNS2_5arrayEiifNS2_6StreamEEUlvE_Lb0EEE, 
                       __ZTSNSt3__134__maybe_derive_from_unary_functionIZN3mlx4core8luf_implIdEEvRKNS2_5arrayERS4_S7_S7_NS2_6StreamEEUlvE_Lb0EEE, 
                       __ZTSNSt3__134__maybe_derive_from_unary_functionIZN3mlx4core8luf_implIfEEvRKNS2_5arrayERS4_S7_S7_NS2_6StreamEEUlvE_Lb0EEE, 
                       __ZTSNSt3__134__maybe_derive_from_unary_functionIZN3mlx4core8qrf_implIdEEvRKNS2_5arrayERS4_S7_NS2_6StreamEEUlvE_Lb0EEE, 
                       __ZTSNSt3__134__maybe_derive_from_unary_functionIZN3mlx4core8qrf_implIfEEvRKNS2_5arrayERS4_S7_NS2_6StreamEEUlvE_Lb0EEE, 
                       __ZTSNSt3__134__maybe_derive_from_unary_functionIZN3mlx4core8svd_implIdEEvRKNS2_5arrayERNS_6vectorIS4_NS_9allocatorIS4_EEEEbNS2_6StreamEEUlvE_Lb0EEE, 
                       __ZTSNSt3__134__maybe_derive_from_unary_functionIZN3mlx4core8svd_implIfEEvRKNS2_5arrayERNS_6vectorIS4_NS_9allocatorIS4_EEEEbNS2_6StreamEEUlvE_Lb0EEE, 
                       __ZTSNSt3__134__maybe_derive_from_unary_functionIZN3mlx4core8unary_fpINS2_6detail3CosEEEvRKNS2_5arrayERS6_T_NS2_6StreamEEUlvE_Lb0EEE, 
                       __ZTSNSt3__134__maybe_derive_from_unary_functionIZN3mlx4core8unary_fpINS2_6detail3ExpEEEvRKNS2_5arrayERS6_T_NS2_6StreamEEUlvE_Lb0EEE, 
                       __ZTSNSt3__134__maybe_derive_from_unary_functionIZN3mlx4core8unary_fpINS2_6detail3LogEEEvRKNS2_5arrayERS6_T_NS2_6StreamEEUlvE_Lb0EEE, 
                       __ZTSNSt3__134__maybe_derive_from_unary_functionIZN3mlx4core8unary_fpINS2_6detail3SinEEEvRKNS2_5arrayERS6_T_NS2_6StreamEEUlvE_Lb0EEE, 
                       __ZTSNSt3__134__maybe_derive_from_unary_functionIZN3mlx4core8unary_fpINS2_6detail3TanEEEvRKNS2_5arrayERS6_T_NS2_6StreamEEUlvE_Lb0EEE, 
                       __ZTSNSt3__134__maybe_derive_from_unary_functionIZN3mlx4core8unary_fpINS2_6detail4CeilEEEvRKNS2_5arrayERS6_T_NS2_6StreamEEUlvE_Lb0EEE, 
                       __ZTSNSt3__134__maybe_derive_from_unary_functionIZN3mlx4core8unary_fpINS2_6detail4CoshEEEvRKNS2_5arrayERS6_T_NS2_6StreamEEUlvE_Lb0EEE, 
                       __ZTSNSt3__134__maybe_derive_from_unary_functionIZN3mlx4core8unary_fpINS2_6detail4Log2EEEvRKNS2_5arrayERS6_T_NS2_6StreamEEUlvE_Lb0EEE, 
                       __ZTSNSt3__134__maybe_derive_from_unary_functionIZN3mlx4core8unary_fpINS2_6detail4SinhEEEvRKNS2_5arrayERS6_T_NS2_6StreamEEUlvE_Lb0EEE, 
                       __ZTSNSt3__134__maybe_derive_from_unary_functionIZN3mlx4core8unary_fpINS2_6detail4SqrtEEEvRKNS2_5arrayERS6_T_NS2_6StreamEEUlvE_Lb0EEE, 
                       __ZTSNSt3__134__maybe_derive_from_unary_functionIZN3mlx4core8unary_fpINS2_6detail4TanhEEEvRKNS2_5arrayERS6_T_NS2_6StreamEEUlvE_Lb0EEE, 
                       __ZTSNSt3__134__maybe_derive_from_unary_functionIZN3mlx4core8unary_fpINS2_6detail5Expm1EEEvRKNS2_5arrayERS6_T_NS2_6StreamEEUlvE_Lb0EEE, 
                       __ZTSNSt3__134__maybe_derive_from_unary_functionIZN3mlx4core8unary_fpINS2_6detail5FloorEEEvRKNS2_5arrayERS6_T_NS2_6StreamEEUlvE_Lb0EEE, 
                       __ZTSNSt3__134__maybe_derive_from_unary_functionIZN3mlx4core8unary_fpINS2_6detail5Log10EEEvRKNS2_5arrayERS6_T_NS2_6StreamEEUlvE_Lb0EEE, 
                       __ZTSNSt3__134__maybe_derive_from_unary_functionIZN3mlx4core8unary_fpINS2_6detail5Log1pEEEvRKNS2_5arrayERS6_T_NS2_6StreamEEUlvE_Lb0EEE, 
                       __ZTSNSt3__134__maybe_derive_from_unary_functionIZN3mlx4core8unary_fpINS2_6detail5RoundEEEvRKNS2_5arrayERS6_T_NS2_6StreamEEUlvE_Lb0EEE, 
                       __ZTSNSt3__134__maybe_derive_from_unary_functionIZN3mlx4core8unary_fpINS2_6detail5RsqrtEEEvRKNS2_5arrayERS6_T_NS2_6StreamEEUlvE_Lb0EEE, 
                       __ZTSNSt3__134__maybe_derive_from_unary_functionIZN3mlx4core8unary_fpINS2_6detail6ArcCosEEEvRKNS2_5arrayERS6_T_NS2_6StreamEEUlvE_Lb0EEE, 
                       __ZTSNSt3__134__maybe_derive_from_unary_functionIZN3mlx4core8unary_fpINS2_6detail6ArcSinEEEvRKNS2_5arrayERS6_T_NS2_6StreamEEUlvE_Lb0EEE, 
                       __ZTSNSt3__134__maybe_derive_from_unary_functionIZN3mlx4core8unary_fpINS2_6detail6ArcTanEEEvRKNS2_5arrayERS6_T_NS2_6StreamEEUlvE_Lb0EEE, 
                       __ZTSNSt3__134__maybe_derive_from_unary_functionIZN3mlx4core8unary_fpINS2_6detail7ArcCoshEEEvRKNS2_5arrayERS6_T_NS2_6StreamEEUlvE_Lb0EEE, 
                       __ZTSNSt3__134__maybe_derive_from_unary_functionIZN3mlx4core8unary_fpINS2_6detail7ArcSinhEEEvRKNS2_5arrayERS6_T_NS2_6StreamEEUlvE_Lb0EEE, 
                       __ZTSNSt3__134__maybe_derive_from_unary_functionIZN3mlx4core8unary_fpINS2_6detail7ArcTanhEEEvRKNS2_5arrayERS6_T_NS2_6StreamEEUlvE_Lb0EEE, 
                       __ZTSNSt3__134__maybe_derive_from_unary_functionIZN3mlx4core8unary_fpINS2_6detail7SigmoidEEEvRKNS2_5arrayERS6_T_NS2_6StreamEEUlvE_Lb0EEE, 
                       __ZTSNSt3__134__maybe_derive_from_unary_functionIZN3mlx4core9unary_intINS2_6detail13BitwiseInvertEEEvRKNS2_5arrayERS6_T_NS2_6StreamEEUlvE_Lb0EEE, 
                       __ZTSNSt3__135__maybe_derive_from_binary_functionIZN3mlx4core12inverse_implIdEEvRKNS2_5arrayERS4_bbNS2_6StreamEEUlvE0_Lb0EEE, 
                       __ZTSNSt3__135__maybe_derive_from_binary_functionIZN3mlx4core12inverse_implIdEEvRKNS2_5arrayERS4_bbNS2_6StreamEEUlvE_Lb0EEE, 
                       __ZTSNSt3__135__maybe_derive_from_binary_functionIZN3mlx4core12inverse_implIfEEvRKNS2_5arrayERS4_bbNS2_6StreamEEUlvE0_Lb0EEE, 
                       __ZTSNSt3__135__maybe_derive_from_binary_functionIZN3mlx4core12inverse_implIfEEvRKNS2_5arrayERS4_bbNS2_6StreamEEUlvE_Lb0EEE, 
                       __ZTSNSt3__135__maybe_derive_from_binary_functionIZN3mlx4core12unary_signedINS2_6detail3AbsEEEvRKNS2_5arrayERS6_T_NS2_6StreamEEUlvE_Lb0EEE, 
                       __ZTSNSt3__135__maybe_derive_from_binary_functionIZN3mlx4core13cholesky_implIdEEvRKNS2_5arrayERS4_bNS2_6StreamEEUlvE_Lb0EEE, 
                       __ZTSNSt3__135__maybe_derive_from_binary_functionIZN3mlx4core13cholesky_implIfEEvRKNS2_5arrayERS4_bNS2_6StreamEEUlvE_Lb0EEE, 
                       __ZTSNSt3__135__maybe_derive_from_binary_functionIZN3mlx4core13unary_complexINS2_6detail9ConjugateEEEvRKNS2_5arrayERS6_T_NS2_6StreamEEUlvE_Lb0EEE, 
                       __ZTSNSt3__135__maybe_derive_from_binary_functionIZN3mlx4core13unary_real_fpINS2_6detail3ErfEEEvRKNS2_5arrayERS6_T_NS2_6StreamEEUlvE_Lb0EEE, 
                       __ZTSNSt3__135__maybe_derive_from_binary_functionIZN3mlx4core13unary_real_fpINS2_6detail6ErfInvEEEvRKNS2_5arrayERS6_T_NS2_6StreamEEUlvE_Lb0EEE, 
                       __ZTSNSt3__135__maybe_derive_from_binary_functionIZN3mlx4core15matmul_dispatchINS2_12_MLX_Float16EEEvRKNS2_5arrayES7_RS5_bbmmffNS2_6StreamEEUlvE_Lb0EEE, 
                       __ZTSNSt3__135__maybe_derive_from_binary_functionIZN3mlx4core15matmul_dispatchINS2_13_MLX_BFloat16EEEvRKNS2_5arrayES7_RS5_bbmmffNS2_6StreamEEUlvE_Lb0EEE, 
                       __ZTSNSt3__135__maybe_derive_from_binary_functionIZN3mlx4core15matmul_dispatchIdEEvRKNS2_5arrayES6_RS4_bbmmffNS2_6StreamEEUlvE_Lb0EEE, 
                       __ZTSNSt3__135__maybe_derive_from_binary_functionIZN3mlx4core15matmul_dispatchIfEEvRKNS2_5arrayES6_RS4_bbmmffNS2_6StreamEEUlvE_Lb0EEE, 
                       __ZTSNSt3__135__maybe_derive_from_binary_functionIZN3mlx4core22unary_complex_to_floatINS2_6detail4ImagEEEvRKNS2_5arrayERS6_T_NS2_6StreamEEUlvE_Lb0EEE, 
                       __ZTSNSt3__135__maybe_derive_from_binary_functionIZN3mlx4core22unary_complex_to_floatINS2_6detail4RealEEEvRKNS2_5arrayERS6_T_NS2_6StreamEEUlvE_Lb0EEE, 
                       __ZTSNSt3__135__maybe_derive_from_binary_functionIZN3mlx4core5unaryINS2_6detail10LogicalNotEEEvRKNS2_5arrayERS6_T_NS2_6StreamEEUlvE_Lb0EEE, 
                       __ZTSNSt3__135__maybe_derive_from_binary_functionIZN3mlx4core5unaryINS2_6detail4SignEEEvRKNS2_5arrayERS6_T_NS2_6StreamEEUlvE_Lb0EEE, 
                       __ZTSNSt3__135__maybe_derive_from_binary_functionIZN3mlx4core5unaryINS2_6detail6SquareEEEvRKNS2_5arrayERS6_T_NS2_6StreamEEUlvE_Lb0EEE, 
                       __ZTSNSt3__135__maybe_derive_from_binary_functionIZN3mlx4core5unaryINS2_6detail8NegativeEEEvRKNS2_5arrayERS6_T_NS2_6StreamEEUlvE_Lb0EEE, 
                       __ZTSNSt3__135__maybe_derive_from_binary_functionIZN3mlx4core8hadamardINS2_12_MLX_Float16EEEvRNS2_5arrayEiifNS2_6StreamEEUlvE_Lb0EEE, 
                       __ZTSNSt3__135__maybe_derive_from_binary_functionIZN3mlx4core8hadamardINS2_13_MLX_BFloat16EEEvRNS2_5arrayEiifNS2_6StreamEEUlvE_Lb0EEE, 
                       __ZTSNSt3__135__maybe_derive_from_binary_functionIZN3mlx4core8hadamardIfEEvRNS2_5arrayEiifNS2_6StreamEEUlvE_Lb0EEE, 
                       __ZTSNSt3__135__maybe_derive_from_binary_functionIZN3mlx4core8luf_implIdEEvRKNS2_5arrayERS4_S7_S7_NS2_6StreamEEUlvE_Lb0EEE, 
                       __ZTSNSt3__135__maybe_derive_from_binary_functionIZN3mlx4core8luf_implIfEEvRKNS2_5arrayERS4_S7_S7_NS2_6StreamEEUlvE_Lb0EEE, 
                       __ZTSNSt3__135__maybe_derive_from_binary_functionIZN3mlx4core8qrf_implIdEEvRKNS2_5arrayERS4_S7_NS2_6StreamEEUlvE_Lb0EEE, 
                       __ZTSNSt3__135__maybe_derive_from_binary_functionIZN3mlx4core8qrf_implIfEEvRKNS2_5arrayERS4_S7_NS2_6StreamEEUlvE_Lb0EEE, 
                       __ZTSNSt3__135__maybe_derive_from_binary_functionIZN3mlx4core8svd_implIdEEvRKNS2_5arrayERNS_6vectorIS4_NS_9allocatorIS4_EEEEbNS2_6StreamEEUlvE_Lb0EEE, 
                       __ZTSNSt3__135__maybe_derive_from_binary_functionIZN3mlx4core8svd_implIfEEvRKNS2_5arrayERNS_6vectorIS4_NS_9allocatorIS4_EEEEbNS2_6StreamEEUlvE_Lb0EEE, 
                       __ZTSNSt3__135__maybe_derive_from_binary_functionIZN3mlx4core8unary_fpINS2_6detail3CosEEEvRKNS2_5arrayERS6_T_NS2_6StreamEEUlvE_Lb0EEE, 
                       __ZTSNSt3__135__maybe_derive_from_binary_functionIZN3mlx4core8unary_fpINS2_6detail3ExpEEEvRKNS2_5arrayERS6_T_NS2_6StreamEEUlvE_Lb0EEE, 
                       __ZTSNSt3__135__maybe_derive_from_binary_functionIZN3mlx4core8unary_fpINS2_6detail3LogEEEvRKNS2_5arrayERS6_T_NS2_6StreamEEUlvE_Lb0EEE, 
                       __ZTSNSt3__135__maybe_derive_from_binary_functionIZN3mlx4core8unary_fpINS2_6detail3SinEEEvRKNS2_5arrayERS6_T_NS2_6StreamEEUlvE_Lb0EEE, 
                       __ZTSNSt3__135__maybe_derive_from_binary_functionIZN3mlx4core8unary_fpINS2_6detail3TanEEEvRKNS2_5arrayERS6_T_NS2_6StreamEEUlvE_Lb0EEE, 
                       __ZTSNSt3__135__maybe_derive_from_binary_functionIZN3mlx4core8unary_fpINS2_6detail4CeilEEEvRKNS2_5arrayERS6_T_NS2_6StreamEEUlvE_Lb0EEE, 
                       __ZTSNSt3__135__maybe_derive_from_binary_functionIZN3mlx4core8unary_fpINS2_6detail4CoshEEEvRKNS2_5arrayERS6_T_NS2_6StreamEEUlvE_Lb0EEE, 
                       __ZTSNSt3__135__maybe_derive_from_binary_functionIZN3mlx4core8unary_fpINS2_6detail4Log2EEEvRKNS2_5arrayERS6_T_NS2_6StreamEEUlvE_Lb0EEE, 
                       __ZTSNSt3__135__maybe_derive_from_binary_functionIZN3mlx4core8unary_fpINS2_6detail4SinhEEEvRKNS2_5arrayERS6_T_NS2_6StreamEEUlvE_Lb0EEE, 
                       __ZTSNSt3__135__maybe_derive_from_binary_functionIZN3mlx4core8unary_fpINS2_6detail4SqrtEEEvRKNS2_5arrayERS6_T_NS2_6StreamEEUlvE_Lb0EEE, 
                       __ZTSNSt3__135__maybe_derive_from_binary_functionIZN3mlx4core8unary_fpINS2_6detail4TanhEEEvRKNS2_5arrayERS6_T_NS2_6StreamEEUlvE_Lb0EEE, 
                       __ZTSNSt3__135__maybe_derive_from_binary_functionIZN3mlx4core8unary_fpINS2_6detail5Expm1EEEvRKNS2_5arrayERS6_T_NS2_6StreamEEUlvE_Lb0EEE, 
                       __ZTSNSt3__135__maybe_derive_from_binary_functionIZN3mlx4core8unary_fpINS2_6detail5FloorEEEvRKNS2_5arrayERS6_T_NS2_6StreamEEUlvE_Lb0EEE, 
                       __ZTSNSt3__135__maybe_derive_from_binary_functionIZN3mlx4core8unary_fpINS2_6detail5Log10EEEvRKNS2_5arrayERS6_T_NS2_6StreamEEUlvE_Lb0EEE, 
                       __ZTSNSt3__135__maybe_derive_from_binary_functionIZN3mlx4core8unary_fpINS2_6detail5Log1pEEEvRKNS2_5arrayERS6_T_NS2_6StreamEEUlvE_Lb0EEE, 
                       __ZTSNSt3__135__maybe_derive_from_binary_functionIZN3mlx4core8unary_fpINS2_6detail5RoundEEEvRKNS2_5arrayERS6_T_NS2_6StreamEEUlvE_Lb0EEE, 
                       __ZTSNSt3__135__maybe_derive_from_binary_functionIZN3mlx4core8unary_fpINS2_6detail5RsqrtEEEvRKNS2_5arrayERS6_T_NS2_6StreamEEUlvE_Lb0EEE, 
                       __ZTSNSt3__135__maybe_derive_from_binary_functionIZN3mlx4core8unary_fpINS2_6detail6ArcCosEEEvRKNS2_5arrayERS6_T_NS2_6StreamEEUlvE_Lb0EEE, 
                       __ZTSNSt3__135__maybe_derive_from_binary_functionIZN3mlx4core8unary_fpINS2_6detail6ArcSinEEEvRKNS2_5arrayERS6_T_NS2_6StreamEEUlvE_Lb0EEE, 
                       __ZTSNSt3__135__maybe_derive_from_binary_functionIZN3mlx4core8unary_fpINS2_6detail6ArcTanEEEvRKNS2_5arrayERS6_T_NS2_6StreamEEUlvE_Lb0EEE, 
                       __ZTSNSt3__135__maybe_derive_from_binary_functionIZN3mlx4core8unary_fpINS2_6detail7ArcCoshEEEvRKNS2_5arrayERS6_T_NS2_6StreamEEUlvE_Lb0EEE, 
                       __ZTSNSt3__135__maybe_derive_from_binary_functionIZN3mlx4core8unary_fpINS2_6detail7ArcSinhEEEvRKNS2_5arrayERS6_T_NS2_6StreamEEUlvE_Lb0EEE, 
                       __ZTSNSt3__135__maybe_derive_from_binary_functionIZN3mlx4core8unary_fpINS2_6detail7ArcTanhEEEvRKNS2_5arrayERS6_T_NS2_6StreamEEUlvE_Lb0EEE, 
                       __ZTSNSt3__135__maybe_derive_from_binary_functionIZN3mlx4core8unary_fpINS2_6detail7SigmoidEEEvRKNS2_5arrayERS6_T_NS2_6StreamEEUlvE_Lb0EEE, 
                       __ZTSNSt3__135__maybe_derive_from_binary_functionIZN3mlx4core9unary_intINS2_6detail13BitwiseInvertEEEvRKNS2_5arrayERS6_T_NS2_6StreamEEUlvE_Lb0EEE, 
                       __ZTSNSt3__16__bindIRPFiPKvPviS3_S3_S3_EJS2_S3_mS3_S3_RS3_EEE, 
                       __ZTSNSt3__16__bindIRPFiPKviPvS3_iS3_S3_EJS2_mS3_S3_mS3_RS3_EEE, 
                       __ZTSNSt3__16__bindIRPFiPKviPviiS3_EJS2_mS3_RiiRS3_EEE, __ZTSNSt3__16__bindIZN3mlx4core12inverse_implIdEEvRKNS2_5arrayERS4_bbNS2_6StreamEEUlvE0_JEEE, 
                       __ZTSNSt3__16__bindIZN3mlx4core12inverse_implIdEEvRKNS2_5arrayERS4_bbNS2_6StreamEEUlvE_JEEE, 
                       __ZTSNSt3__16__bindIZN3mlx4core12inverse_implIfEEvRKNS2_5arrayERS4_bbNS2_6StreamEEUlvE0_JEEE, 
                       __ZTSNSt3__16__bindIZN3mlx4core12inverse_implIfEEvRKNS2_5arrayERS4_bbNS2_6StreamEEUlvE_JEEE, 
                       __ZTSNSt3__16__bindIZN3mlx4core12unary_signedINS2_6detail3AbsEEEvRKNS2_5arrayERS6_T_NS2_6StreamEEUlvE_JEEE, 
                       __ZTSNSt3__16__bindIZN3mlx4core13cholesky_implIdEEvRKNS2_5arrayERS4_bNS2_6StreamEEUlvE_JEEE, 
                       __ZTSNSt3__16__bindIZN3mlx4core13cholesky_implIfEEvRKNS2_5arrayERS4_bNS2_6StreamEEUlvE_JEEE, 
                       __ZTSNSt3__16__bindIZN3mlx4core13unary_complexINS2_6detail9ConjugateEEEvRKNS2_5arrayERS6_T_NS2_6StreamEEUlvE_JEEE, 
                       __ZTSNSt3__16__bindIZN3mlx4core13unary_real_fpINS2_6detail3ErfEEEvRKNS2_5arrayERS6_T_NS2_6StreamEEUlvE_JEEE, 
                       __ZTSNSt3__16__bindIZN3mlx4core13unary_real_fpINS2_6detail6ErfInvEEEvRKNS2_5arrayERS6_T_NS2_6StreamEEUlvE_JEEE, 
                       __ZTSNSt3__16__bindIZN3mlx4core15matmul_dispatchINS2_12_MLX_Float16EEEvRKNS2_5arrayES7_RS5_bbmmffNS2_6StreamEEUlvE_JEEE, 
                       __ZTSNSt3__16__bindIZN3mlx4core15matmul_dispatchINS2_13_MLX_BFloat16EEEvRKNS2_5arrayES7_RS5_bbmmffNS2_6StreamEEUlvE_JEEE, 
                       __ZTSNSt3__16__bindIZN3mlx4core15matmul_dispatchIdEEvRKNS2_5arrayES6_RS4_bbmmffNS2_6StreamEEUlvE_JEEE, 
                       __ZTSNSt3__16__bindIZN3mlx4core15matmul_dispatchIfEEvRKNS2_5arrayES6_RS4_bbmmffNS2_6StreamEEUlvE_JEEE, 
                       __ZTSNSt3__16__bindIZN3mlx4core22unary_complex_to_floatINS2_6detail4ImagEEEvRKNS2_5arrayERS6_T_NS2_6StreamEEUlvE_JEEE, 
                       __ZTSNSt3__16__bindIZN3mlx4core22unary_complex_to_floatINS2_6detail4RealEEEvRKNS2_5arrayERS6_T_NS2_6StreamEEUlvE_JEEE, 
                       __ZTSNSt3__16__bindIZN3mlx4core5unaryINS2_6detail10LogicalNotEEEvRKNS2_5arrayERS6_T_NS2_6StreamEEUlvE_JEEE, 
                       __ZTSNSt3__16__bindIZN3mlx4core5unaryINS2_6detail4SignEEEvRKNS2_5arrayERS6_T_NS2_6StreamEEUlvE_JEEE, 
                       __ZTSNSt3__16__bindIZN3mlx4core5unaryINS2_6detail6SquareEEEvRKNS2_5arrayERS6_T_NS2_6StreamEEUlvE_JEEE, 
                       __ZTSNSt3__16__bindIZN3mlx4core5unaryINS2_6detail8NegativeEEEvRKNS2_5arrayERS6_T_NS2_6StreamEEUlvE_JEEE, 
                       __ZTSNSt3__16__bindIZN3mlx4core8hadamardINS2_12_MLX_Float16EEEvRNS2_5arrayEiifNS2_6StreamEEUlvE_JEEE, 
                       __ZTSNSt3__16__bindIZN3mlx4core8hadamardINS2_13_MLX_BFloat16EEEvRNS2_5arrayEiifNS2_6StreamEEUlvE_JEEE, 
                       __ZTSNSt3__16__bindIZN3mlx4core8hadamardIfEEvRNS2_5arrayEiifNS2_6StreamEEUlvE_JEEE, 
                       __ZTSNSt3__16__bindIZN3mlx4core8luf_implIdEEvRKNS2_5arrayERS4_S7_S7_NS2_6StreamEEUlvE_JEEE, 
                       __ZTSNSt3__16__bindIZN3mlx4core8luf_implIfEEvRKNS2_5arrayERS4_S7_S7_NS2_6StreamEEUlvE_JEEE, 
                       __ZTSNSt3__16__bindIZN3mlx4core8qrf_implIdEEvRKNS2_5arrayERS4_S7_NS2_6StreamEEUlvE_JEEE, 
                       __ZTSNSt3__16__bindIZN3mlx4core8qrf_implIfEEvRKNS2_5arrayERS4_S7_NS2_6StreamEEUlvE_JEEE, 
                       __ZTSNSt3__16__bindIZN3mlx4core8svd_implIdEEvRKNS2_5arrayERNS_6vectorIS4_NS_9allocatorIS4_EEEEbNS2_6StreamEEUlvE_JEEE, 
                       __ZTSNSt3__16__bindIZN3mlx4core8svd_implIfEEvRKNS2_5arrayERNS_6vectorIS4_NS_9allocatorIS4_EEEEbNS2_6StreamEEUlvE_JEEE, 
                       __ZTSNSt3__16__bindIZN3mlx4core8unary_fpINS2_6detail3CosEEEvRKNS2_5arrayERS6_T_NS2_6StreamEEUlvE_JEEE, 
                       __ZTSNSt3__16__bindIZN3mlx4core8unary_fpINS2_6detail3ExpEEEvRKNS2_5arrayERS6_T_NS2_6StreamEEUlvE_JEEE, 
                       __ZTSNSt3__16__bindIZN3mlx4core8unary_fpINS2_6detail3LogEEEvRKNS2_5arrayERS6_T_NS2_6StreamEEUlvE_JEEE, 
                       __ZTSNSt3__16__bindIZN3mlx4core8unary_fpINS2_6detail3SinEEEvRKNS2_5arrayERS6_T_NS2_6StreamEEUlvE_JEEE, 
                       __ZTSNSt3__16__bindIZN3mlx4core8unary_fpINS2_6detail3TanEEEvRKNS2_5arrayERS6_T_NS2_6StreamEEUlvE_JEEE, 
                       __ZTSNSt3__16__bindIZN3mlx4core8unary_fpINS2_6detail4CeilEEEvRKNS2_5arrayERS6_T_NS2_6StreamEEUlvE_JEEE, 
                       __ZTSNSt3__16__bindIZN3mlx4core8unary_fpINS2_6detail4CoshEEEvRKNS2_5arrayERS6_T_NS2_6StreamEEUlvE_JEEE, 
                       __ZTSNSt3__16__bindIZN3mlx4core8unary_fpINS2_6detail4Log2EEEvRKNS2_5arrayERS6_T_NS2_6StreamEEUlvE_JEEE, 
                       __ZTSNSt3__16__bindIZN3mlx4core8unary_fpINS2_6detail4SinhEEEvRKNS2_5arrayERS6_T_NS2_6StreamEEUlvE_JEEE, 
                       __ZTSNSt3__16__bindIZN3mlx4core8unary_fpINS2_6detail4SqrtEEEvRKNS2_5arrayERS6_T_NS2_6StreamEEUlvE_JEEE, 
                       __ZTSNSt3__16__bindIZN3mlx4core8unary_fpINS2_6detail4TanhEEEvRKNS2_5arrayERS6_T_NS2_6StreamEEUlvE_JEEE, 
                       __ZTSNSt3__16__bindIZN3mlx4core8unary_fpINS2_6detail5Expm1EEEvRKNS2_5arrayERS6_T_NS2_6StreamEEUlvE_JEEE, 
                       __ZTSNSt3__16__bindIZN3mlx4core8unary_fpINS2_6detail5FloorEEEvRKNS2_5arrayERS6_T_NS2_6StreamEEUlvE_JEEE, 
                       __ZTSNSt3__16__bindIZN3mlx4core8unary_fpINS2_6detail5Log10EEEvRKNS2_5arrayERS6_T_NS2_6StreamEEUlvE_JEEE, 
                       __ZTSNSt3__16__bindIZN3mlx4core8unary_fpINS2_6detail5Log1pEEEvRKNS2_5arrayERS6_T_NS2_6StreamEEUlvE_JEEE, 
                       __ZTSNSt3__16__bindIZN3mlx4core8unary_fpINS2_6detail5RoundEEEvRKNS2_5arrayERS6_T_NS2_6StreamEEUlvE_JEEE, 
                       __ZTSNSt3__16__bindIZN3mlx4core8unary_fpINS2_6detail5RsqrtEEEvRKNS2_5arrayERS6_T_NS2_6StreamEEUlvE_JEEE, 
                       __ZTSNSt3__16__bindIZN3mlx4core8unary_fpINS2_6detail6ArcCosEEEvRKNS2_5arrayERS6_T_NS2_6StreamEEUlvE_JEEE, 
                       __ZTSNSt3__16__bindIZN3mlx4core8unary_fpINS2_6detail6ArcSinEEEvRKNS2_5arrayERS6_T_NS2_6StreamEEUlvE_JEEE, 
                       __ZTSNSt3__16__bindIZN3mlx4core8unary_fpINS2_6detail6ArcTanEEEvRKNS2_5arrayERS6_T_NS2_6StreamEEUlvE_JEEE, 
                       __ZTSNSt3__16__bindIZN3mlx4core8unary_fpINS2_6detail7ArcCoshEEEvRKNS2_5arrayERS6_T_NS2_6StreamEEUlvE_JEEE, 
                       __ZTSNSt3__16__bindIZN3mlx4core8unary_fpINS2_6detail7ArcSinhEEEvRKNS2_5arrayERS6_T_NS2_6StreamEEUlvE_JEEE, 
                       __ZTSNSt3__16__bindIZN3mlx4core8unary_fpINS2_6detail7ArcTanhEEEvRKNS2_5arrayERS6_T_NS2_6StreamEEUlvE_JEEE, 
                       __ZTSNSt3__16__bindIZN3mlx4core8unary_fpINS2_6detail7SigmoidEEEvRKNS2_5arrayERS6_T_NS2_6StreamEEUlvE_JEEE, 
                       __ZTSNSt3__16__bindIZN3mlx4core9unary_intINS2_6detail13BitwiseInvertEEEvRKNS2_5arrayERS6_T_NS2_6StreamEEUlvE_JEEE, 
                       __ZTSNSt3__16__loopIcEE, __ZTSNSt3__16__nodeIcEE, __ZTSNSt3__18functionIFNS_6vectorIN3mlx4core5arrayENS_9allocatorIS4_EEEES7_EEE, 
                       __ZTSPFNSt3__110shared_ptrIN3mlx4core10ExpandDimsEEERNS2_2io18ParallelFileReaderENS2_6StreamEE, 
                       __ZTSPFNSt3__110shared_ptrIN3mlx4core10GatherAxisEEERNS2_2io18ParallelFileReaderENS2_6StreamEE, 
                       __ZTSPFNSt3__110shared_ptrIN3mlx4core10LogicalAndEEERNS2_2io18ParallelFileReaderENS2_6StreamEE, 
                       __ZTSPFNSt3__110shared_ptrIN3mlx4core10LogicalNotEEERNS2_2io18ParallelFileReaderENS2_6StreamEE, 
                       __ZTSPFNSt3__110shared_ptrIN3mlx4core10RandomBitsEEERNS2_2io18ParallelFileReaderENS2_6StreamEE, 
                       __ZTSPFNSt3__110shared_ptrIN3mlx4core11ConcatenateEEERNS2_2io18ParallelFileReaderENS2_6StreamEE, 
                       __ZTSPFNSt3__110shared_ptrIN3mlx4core11ConvolutionEEERNS2_2io18ParallelFileReaderENS2_6StreamEE, 
                       __ZTSPFNSt3__110shared_ptrIN3mlx4core11ScatterAxisEEERNS2_2io18ParallelFileReaderENS2_6StreamEE, 
                       __ZTSPFNSt3__110shared_ptrIN3mlx4core11SliceUpdateEEERNS2_2io18ParallelFileReaderENS2_6StreamEE, 
                       __ZTSPFNSt3__110shared_ptrIN3mlx4core12ArgPartitionEEERNS2_2io18ParallelFileReaderENS2_6StreamEE, 
                       __ZTSPFNSt3__110shared_ptrIN3mlx4core12DynamicSliceEEERNS2_2io18ParallelFileReaderENS2_6StreamEE, 
                       __ZTSPFNSt3__110shared_ptrIN3mlx4core12GreaterEqualEEERNS2_2io18ParallelFileReaderENS2_6StreamEE, 
                       __ZTSPFNSt3__110shared_ptrIN3mlx4core12StopGradientEEERNS2_2io18ParallelFileReaderENS2_6StreamEE, 
                       __ZTSPFNSt3__110shared_ptrIN3mlx4core13BitwiseBinaryEEERNS2_2io18ParallelFileReaderENS2_6StreamEE, 
                       __ZTSPFNSt3__110shared_ptrIN3mlx4core13BlockMaskedMMEEERNS2_2io18ParallelFileReaderENS2_6StreamEE, 
                       __ZTSPFNSt3__110shared_ptrIN3mlx4core13BroadcastAxesEEERNS2_2io18ParallelFileReaderENS2_6StreamEE, 
                       __ZTSPFNSt3__110shared_ptrIN3mlx4core15QuantizedMatmulEEERNS2_2io18ParallelFileReaderENS2_6StreamEE, 
                       __ZTSPFNSt3__110shared_ptrIN3mlx4core16NumberOfElementsEEERNS2_2io18ParallelFileReaderENS2_6StreamEE, 
                       __ZTSPFNSt3__110shared_ptrIN3mlx4core18DynamicSliceUpdateEEERNS2_2io18ParallelFileReaderENS2_6StreamEE, 
                       __ZTSPFNSt3__110shared_ptrIN3mlx4core3AbsEEERNS2_2io18ParallelFileReaderENS2_6StreamEE, 
                       __ZTSPFNSt3__110shared_ptrIN3mlx4core3AddEEERNS2_2io18ParallelFileReaderENS2_6StreamEE, 
                       __ZTSPFNSt3__110shared_ptrIN3mlx4core3CosEEERNS2_2io18ParallelFileReaderENS2_6StreamEE, 
                       __ZTSPFNSt3__110shared_ptrIN3mlx4core3ErfEEERNS2_2io18ParallelFileReaderENS2_6StreamEE, 
                       __ZTSPFNSt3__110shared_ptrIN3mlx4core3ExpEEERNS2_2io18ParallelFileReaderENS2_6StreamEE, 
                       __ZTSPFNSt3__110shared_ptrIN3mlx4core3FFTEEERNS2_2io18ParallelFileReaderENS2_6StreamEE, 
                       __ZTSPFNSt3__110shared_ptrIN3mlx4core3LogEEERNS2_2io18ParallelFileReaderENS2_6StreamEE, 
                       __ZTSPFNSt3__110shared_ptrIN3mlx4core3PadEEERNS2_2io18ParallelFileReaderENS2_6StreamEE, 
                       __ZTSPFNSt3__110shared_ptrIN3mlx4core3QRFEEERNS2_2io18ParallelFileReaderENS2_6StreamEE, 
                       __ZTSPFNSt3__110shared_ptrIN3mlx4core3SVDEEERNS2_2io18ParallelFileReaderENS2_6StreamEE, 
                       __ZTSPFNSt3__110shared_ptrIN3mlx4core3SinEEERNS2_2io18ParallelFileReaderENS2_6StreamEE, 
                       __ZTSPFNSt3__110shared_ptrIN3mlx4core3TanEEERNS2_2io18ParallelFileReaderENS2_6StreamEE, 
                       __ZTSPFNSt3__110shared_ptrIN3mlx4core4CeilEEERNS2_2io18ParallelFileReaderENS2_6StreamEE, 
                       __ZTSPFNSt3__110shared_ptrIN3mlx4core4CopyEEERNS2_2io18ParallelFileReaderENS2_6StreamEE, 
                       __ZTSPFNSt3__110shared_ptrIN3mlx4core4CoshEEERNS2_2io18ParallelFileReaderENS2_6StreamEE, 
                       __ZTSPFNSt3__110shared_ptrIN3mlx4core4EighEEERNS2_2io18ParallelFileReaderENS2_6StreamEE, 
                       __ZTSPFNSt3__110shared_ptrIN3mlx4core4FullEEERNS2_2io18ParallelFileReaderENS2_6StreamEE, 
                       __ZTSPFNSt3__110shared_ptrIN3mlx4core4ImagEEERNS2_2io18ParallelFileReaderENS2_6StreamEE, 
                       __ZTSPFNSt3__110shared_ptrIN3mlx4core4LessEEERNS2_2io18ParallelFileReaderENS2_6StreamEE, 
                       __ZTSPFNSt3__110shared_ptrIN3mlx4core4RealEEERNS2_2io18ParallelFileReaderENS2_6StreamEE, 
                       __ZTSPFNSt3__110shared_ptrIN3mlx4core4ScanEEERNS2_2io18ParallelFileReaderENS2_6StreamEE, 
                       __ZTSPFNSt3__110shared_ptrIN3mlx4core4SignEEERNS2_2io18ParallelFileReaderENS2_6StreamEE, 
                       __ZTSPFNSt3__110shared_ptrIN3mlx4core4SinhEEERNS2_2io18ParallelFileReaderENS2_6StreamEE, 
                       __ZTSPFNSt3__110shared_ptrIN3mlx4core4SortEEERNS2_2io18ParallelFileReaderENS2_6StreamEE, 
                       __ZTSPFNSt3__110shared_ptrIN3mlx4core4SqrtEEERNS2_2io18ParallelFileReaderENS2_6StreamEE, 
                       __ZTSPFNSt3__110shared_ptrIN3mlx4core4TanhEEERNS2_2io18ParallelFileReaderENS2_6StreamEE, 
                       __ZTSPFNSt3__110shared_ptrIN3mlx4core4ViewEEERNS2_2io18ParallelFileReaderENS2_6StreamEE, 
                       __ZTSPFNSt3__110shared_ptrIN3mlx4core4fast10RMSNormVJPEEERNS2_2io18ParallelFileReaderENS2_6StreamEE, 
                       __ZTSPFNSt3__110shared_ptrIN3mlx4core4fast12LayerNormVJPEEERNS2_2io18ParallelFileReaderENS2_6StreamEE, 
                       __ZTSPFNSt3__110shared_ptrIN3mlx4core4fast14AffineQuantizeEEERNS2_2io18ParallelFileReaderENS2_6StreamEE, 
                       __ZTSPFNSt3__110shared_ptrIN3mlx4core4fast25ScaledDotProductAttentionEEERNS2_2io18ParallelFileReaderENS2_6StreamEE, 
                       __ZTSPFNSt3__110shared_ptrIN3mlx4core4fast4RoPEEEERNS2_2io18ParallelFileReaderENS2_6StreamEE, 
                       __ZTSPFNSt3__110shared_ptrIN3mlx4core4fast7RMSNormEEERNS2_2io18ParallelFileReaderENS2_6StreamEE, 
                       __ZTSPFNSt3__110shared_ptrIN3mlx4core4fast9LayerNormEEERNS2_2io18ParallelFileReaderENS2_6StreamEE, 
                       __ZTSPFNSt3__110shared_ptrIN3mlx4core5AddMMEEERNS2_2io18ParallelFileReaderENS2_6StreamEE, 
                       __ZTSPFNSt3__110shared_ptrIN3mlx4core5EqualEEERNS2_2io18ParallelFileReaderENS2_6StreamEE, 
                       __ZTSPFNSt3__110shared_ptrIN3mlx4core5Expm1EEERNS2_2io18ParallelFileReaderENS2_6StreamEE, 
                       __ZTSPFNSt3__110shared_ptrIN3mlx4core5FloorEEERNS2_2io18ParallelFileReaderENS2_6StreamEE, 
                       __ZTSPFNSt3__110shared_ptrIN3mlx4core5Log1pEEERNS2_2io18ParallelFileReaderENS2_6StreamEE, 
                       __ZTSPFNSt3__110shared_ptrIN3mlx4core5PowerEEERNS2_2io18ParallelFileReaderENS2_6StreamEE, 
                       __ZTSPFNSt3__110shared_ptrIN3mlx4core5RoundEEERNS2_2io18ParallelFileReaderENS2_6StreamEE, 
                       __ZTSPFNSt3__110shared_ptrIN3mlx4core5SliceEEERNS2_2io18ParallelFileReaderENS2_6StreamEE, 
                       __ZTSPFNSt3__110shared_ptrIN3mlx4core5SplitEEERNS2_2io18ParallelFileReaderENS2_6StreamEE, 
                       __ZTSPFNSt3__110shared_ptrIN3mlx4core6ArangeEEERNS2_2io18ParallelFileReaderENS2_6StreamEE, 
                       __ZTSPFNSt3__110shared_ptrIN3mlx4core6ArcCosEEERNS2_2io18ParallelFileReaderENS2_6StreamEE, 
                       __ZTSPFNSt3__110shared_ptrIN3mlx4core6ArcSinEEERNS2_2io18ParallelFileReaderENS2_6StreamEE, 
                       __ZTSPFNSt3__110shared_ptrIN3mlx4core6ArcTanEEERNS2_2io18ParallelFileReaderENS2_6StreamEE, 
                       __ZTSPFNSt3__110shared_ptrIN3mlx4core6AsTypeEEERNS2_2io18ParallelFileReaderENS2_6StreamEE, 
                       __ZTSPFNSt3__110shared_ptrIN3mlx4core6DivModEEERNS2_2io18ParallelFileReaderENS2_6StreamEE, 
                       __ZTSPFNSt3__110shared_ptrIN3mlx4core6DivideEEERNS2_2io18ParallelFileReaderENS2_6StreamEE, 
                       __ZTSPFNSt3__110shared_ptrIN3mlx4core6ErfInvEEERNS2_2io18ParallelFileReaderENS2_6StreamEE, 
                       __ZTSPFNSt3__110shared_ptrIN3mlx4core6GatherEEERNS2_2io18ParallelFileReaderENS2_6StreamEE, 
                       __ZTSPFNSt3__110shared_ptrIN3mlx4core6MatmulEEERNS2_2io18ParallelFileReaderENS2_6StreamEE, 
                       __ZTSPFNSt3__110shared_ptrIN3mlx4core6ReduceEEERNS2_2io18ParallelFileReaderENS2_6StreamEE, 
                       __ZTSPFNSt3__110shared_ptrIN3mlx4core6SelectEEERNS2_2io18ParallelFileReaderENS2_6StreamEE, 
                       __ZTSPFNSt3__110shared_ptrIN3mlx4core6SquareEEERNS2_2io18ParallelFileReaderENS2_6StreamEE, 
                       __ZTSPFNSt3__110shared_ptrIN3mlx4core7ArcCoshEEERNS2_2io18ParallelFileReaderENS2_6StreamEE, 
                       __ZTSPFNSt3__110shared_ptrIN3mlx4core7ArcSinhEEERNS2_2io18ParallelFileReaderENS2_6StreamEE, 
                       __ZTSPFNSt3__110shared_ptrIN3mlx4core7ArcTan2EEERNS2_2io18ParallelFileReaderENS2_6StreamEE, 
                       __ZTSPFNSt3__110shared_ptrIN3mlx4core7ArcTanhEEERNS2_2io18ParallelFileReaderENS2_6StreamEE, 
                       __ZTSPFNSt3__110shared_ptrIN3mlx4core7ArgSortEEERNS2_2io18ParallelFileReaderENS2_6StreamEE, 
                       __ZTSPFNSt3__110shared_ptrIN3mlx4core7DependsEEERNS2_2io18ParallelFileReaderENS2_6StreamEE, 
                       __ZTSPFNSt3__110shared_ptrIN3mlx4core7FlattenEEERNS2_2io18ParallelFileReaderENS2_6StreamEE, 
                       __ZTSPFNSt3__110shared_ptrIN3mlx4core7GreaterEEERNS2_2io18ParallelFileReaderENS2_6StreamEE, 
                       __ZTSPFNSt3__110shared_ptrIN3mlx4core7InverseEEERNS2_2io18ParallelFileReaderENS2_6StreamEE, 
                       __ZTSPFNSt3__110shared_ptrIN3mlx4core7MaximumEEERNS2_2io18ParallelFileReaderENS2_6StreamEE, 
                       __ZTSPFNSt3__110shared_ptrIN3mlx4core7MinimumEEERNS2_2io18ParallelFileReaderENS2_6StreamEE, 
                       __ZTSPFNSt3__110shared_ptrIN3mlx4core7ReshapeEEERNS2_2io18ParallelFileReaderENS2_6StreamEE, 
                       __ZTSPFNSt3__110shared_ptrIN3mlx4core7ScatterEEERNS2_2io18ParallelFileReaderENS2_6StreamEE, 
                       __ZTSPFNSt3__110shared_ptrIN3mlx4core7SigmoidEEERNS2_2io18ParallelFileReaderENS2_6StreamEE, 
                       __ZTSPFNSt3__110shared_ptrIN3mlx4core7SoftmaxEEERNS2_2io18ParallelFileReaderENS2_6StreamEE, 
                       __ZTSPFNSt3__110shared_ptrIN3mlx4core7SqueezeEEERNS2_2io18ParallelFileReaderENS2_6StreamEE, 
                       __ZTSPFNSt3__110shared_ptrIN3mlx4core8CholeskyEEERNS2_2io18ParallelFileReaderENS2_6StreamEE, 
                       __ZTSPFNSt3__110shared_ptrIN3mlx4core8GatherMMEEERNS2_2io18ParallelFileReaderENS2_6StreamEE, 
                       __ZTSPFNSt3__110shared_ptrIN3mlx4core8HadamardEEERNS2_2io18ParallelFileReaderENS2_6StreamEE, 
                       __ZTSPFNSt3__110shared_ptrIN3mlx4core8MultiplyEEERNS2_2io18ParallelFileReaderENS2_6StreamEE, 
                       __ZTSPFNSt3__110shared_ptrIN3mlx4core8NegativeEEERNS2_2io18ParallelFileReaderENS2_6StreamEE, 
                       __ZTSPFNSt3__110shared_ptrIN3mlx4core8NotEqualEEERNS2_2io18ParallelFileReaderENS2_6StreamEE, 
                       __ZTSPFNSt3__110shared_ptrIN3mlx4core8SubtractEEERNS2_2io18ParallelFileReaderENS2_6StreamEE, 
                       __ZTSPFNSt3__110shared_ptrIN3mlx4core9ArgReduceEEERNS2_2io18ParallelFileReaderENS2_6StreamEE, 
                       __ZTSPFNSt3__110shared_ptrIN3mlx4core9AsStridedEEERNS2_2io18ParallelFileReaderENS2_6StreamEE, 
                       __ZTSPFNSt3__110shared_ptrIN3mlx4core9BroadcastEEERNS2_2io18ParallelFileReaderENS2_6StreamEE, 
                       __ZTSPFNSt3__110shared_ptrIN3mlx4core9ConjugateEEERNS2_2io18ParallelFileReaderENS2_6StreamEE, 
                       __ZTSPFNSt3__110shared_ptrIN3mlx4core9GatherQMMEEERNS2_2io18ParallelFileReaderENS2_6StreamEE, 
                       __ZTSPFNSt3__110shared_ptrIN3mlx4core9LessEqualEEERNS2_2io18ParallelFileReaderENS2_6StreamEE, 
                       __ZTSPFNSt3__110shared_ptrIN3mlx4core9LogAddExpEEERNS2_2io18ParallelFileReaderENS2_6StreamEE, 
                       __ZTSPFNSt3__110shared_ptrIN3mlx4core9LogSumExpEEERNS2_2io18ParallelFileReaderENS2_6StreamEE, 
                       __ZTSPFNSt3__110shared_ptrIN3mlx4core9LogicalOrEEERNS2_2io18ParallelFileReaderENS2_6StreamEE, 
                       __ZTSPFNSt3__110shared_ptrIN3mlx4core9PartitionEEERNS2_2io18ParallelFileReaderENS2_6StreamEE, 
                       __ZTSPFNSt3__110shared_ptrIN3mlx4core9RemainderEEERNS2_2io18ParallelFileReaderENS2_6StreamEE, 
                       __ZTSPFNSt3__110shared_ptrIN3mlx4core9TransposeEEERNS2_2io18ParallelFileReaderENS2_6StreamEE, 
                       __ZTSPFNSt3__110shared_ptrIN3mlx4core9UnflattenEEERNS2_2io18ParallelFileReaderENS2_6StreamEE, 
                       __ZTSPFNSt3__16vectorIN3mlx4core5arrayENS_9allocatorIS3_EEEERKS6_E, 
                       __ZTSPFvN3mlx4core9allocator6BufferEE, __ZTSPFvPvE, __ZTSPFvRN3mlx4core2io10FileWriterERKNS0_9PrimitiveEE, 
                       __ZTSZN10ThreadPool7enqueueINSt3__16__bindIMN3mlx4core11distributed4ring9RingGroupEFvPKcPcmmiiiEJPS7_S9_SA_RKmmRiSG_iEEEJEEENS1_6futureINS1_20__invoke_result_implIvJT_DpT0_EE4typeEEEOSK_DpOSL_EUlvE_, 
                       __ZTSZN3mlx4core12reduction_opINS0_11complex64_tES2_NS0_10ProdReduceEEEvRKNS0_5arrayERS4_RKNSt3__16vectorIiNS8_9allocatorIiEEEET0_EUliE0_, 
                       __ZTSZN3mlx4core12reduction_opINS0_11complex64_tES2_NS0_10ProdReduceEEEvRKNS0_5arrayERS4_RKNSt3__16vectorIiNS8_9allocatorIiEEEET0_EUliE1_, 
                       __ZTSZN3mlx4core12reduction_opINS0_11complex64_tES2_NS0_10ProdReduceEEEvRKNS0_5arrayERS4_RKNSt3__16vectorIiNS8_9allocatorIiEEEET0_EUliE_, 
                       __ZTSZN3mlx4core12reduction_opINS0_11complex64_tES2_NS0_9MaxReduceEEEvRKNS0_5arrayERS4_RKNSt3__16vectorIiNS8_9allocatorIiEEEET0_EUliE0_, 
                       __ZTSZN3mlx4core12reduction_opINS0_11complex64_tES2_NS0_9MaxReduceEEEvRKNS0_5arrayERS4_RKNSt3__16vectorIiNS8_9allocatorIiEEEET0_EUliE1_, 
                       __ZTSZN3mlx4core12reduction_opINS0_11complex64_tES2_NS0_9MaxReduceEEEvRKNS0_5arrayERS4_RKNSt3__16vectorIiNS8_9allocatorIiEEEET0_EUliE_, 
                       __ZTSZN3mlx4core12reduction_opINS0_11complex64_tES2_NS0_9MinReduceEEEvRKNS0_5arrayERS4_RKNSt3__16vectorIiNS8_9allocatorIiEEEET0_EUliE0_, 
                       __ZTSZN3mlx4core12reduction_opINS0_11complex64_tES2_NS0_9MinReduceEEEvRKNS0_5arrayERS4_RKNSt3__16vectorIiNS8_9allocatorIiEEEET0_EUliE1_, 
                       __ZTSZN3mlx4core12reduction_opINS0_11complex64_tES2_NS0_9MinReduceEEEvRKNS0_5arrayERS4_RKNSt3__16vectorIiNS8_9allocatorIiEEEET0_EUliE_, 
                       __ZTSZN3mlx4core12reduction_opINS0_11complex64_tES2_NS0_9SumReduceEEEvRKNS0_5arrayERS4_RKNSt3__16vectorIiNS8_9allocatorIiEEEET0_EUliE0_, 
                       __ZTSZN3mlx4core12reduction_opINS0_11complex64_tES2_NS0_9SumReduceEEEvRKNS0_5arrayERS4_RKNSt3__16vectorIiNS8_9allocatorIiEEEET0_EUliE1_, 
                       __ZTSZN3mlx4core12reduction_opINS0_11complex64_tES2_NS0_9SumReduceEEEvRKNS0_5arrayERS4_RKNSt3__16vectorIiNS8_9allocatorIiEEEET0_EUliE_, 
                       __ZTSZN3mlx4core12reduction_opINS0_12_MLX_Float16ES2_NS0_10ProdReduceEEEvRKNS0_5arrayERS4_RKNSt3__16vectorIiNS8_9allocatorIiEEEET0_EUliE0_, 
                       __ZTSZN3mlx4core12reduction_opINS0_12_MLX_Float16ES2_NS0_10ProdReduceEEEvRKNS0_5arrayERS4_RKNSt3__16vectorIiNS8_9allocatorIiEEEET0_EUliE1_, 
                       __ZTSZN3mlx4core12reduction_opINS0_12_MLX_Float16ES2_NS0_10ProdReduceEEEvRKNS0_5arrayERS4_RKNSt3__16vectorIiNS8_9allocatorIiEEEET0_EUliE_, 
                       __ZTSZN3mlx4core12reduction_opINS0_12_MLX_Float16ES2_NS0_9MaxReduceEEEvRKNS0_5arrayERS4_RKNSt3__16vectorIiNS8_9allocatorIiEEEET0_EUliE0_, 
                       __ZTSZN3mlx4core12reduction_opINS0_12_MLX_Float16ES2_NS0_9MaxReduceEEEvRKNS0_5arrayERS4_RKNSt3__16vectorIiNS8_9allocatorIiEEEET0_EUliE1_, 
                       __ZTSZN3mlx4core12reduction_opINS0_12_MLX_Float16ES2_NS0_9MaxReduceEEEvRKNS0_5arrayERS4_RKNSt3__16vectorIiNS8_9allocatorIiEEEET0_EUliE_, 
                       __ZTSZN3mlx4core12reduction_opINS0_12_MLX_Float16ES2_NS0_9MinReduceEEEvRKNS0_5arrayERS4_RKNSt3__16vectorIiNS8_9allocatorIiEEEET0_EUliE0_, 
                       __ZTSZN3mlx4core12reduction_opINS0_12_MLX_Float16ES2_NS0_9MinReduceEEEvRKNS0_5arrayERS4_RKNSt3__16vectorIiNS8_9allocatorIiEEEET0_EUliE1_, 
                       __ZTSZN3mlx4core12reduction_opINS0_12_MLX_Float16ES2_NS0_9MinReduceEEEvRKNS0_5arrayERS4_RKNSt3__16vectorIiNS8_9allocatorIiEEEET0_EUliE_, 
                       __ZTSZN3mlx4core12reduction_opINS0_12_MLX_Float16ES2_NS0_9SumReduceEEEvRKNS0_5arrayERS4_RKNSt3__16vectorIiNS8_9allocatorIiEEEET0_EUliE0_, 
                       __ZTSZN3mlx4core12reduction_opINS0_12_MLX_Float16ES2_NS0_9SumReduceEEEvRKNS0_5arrayERS4_RKNSt3__16vectorIiNS8_9allocatorIiEEEET0_EUliE1_, 
                       __ZTSZN3mlx4core12reduction_opINS0_12_MLX_Float16ES2_NS0_9SumReduceEEEvRKNS0_5arrayERS4_RKNSt3__16vectorIiNS8_9allocatorIiEEEET0_EUliE_, 
                       __ZTSZN3mlx4core12reduction_opINS0_13_MLX_BFloat16ES2_NS0_10ProdReduceEEEvRKNS0_5arrayERS4_RKNSt3__16vectorIiNS8_9allocatorIiEEEET0_EUliE0_, 
                       __ZTSZN3mlx4core12reduction_opINS0_13_MLX_BFloat16ES2_NS0_10ProdReduceEEEvRKNS0_5arrayERS4_RKNSt3__16vectorIiNS8_9allocatorIiEEEET0_EUliE1_, 
                       __ZTSZN3mlx4core12reduction_opINS0_13_MLX_BFloat16ES2_NS0_10ProdReduceEEEvRKNS0_5arrayERS4_RKNSt3__16vectorIiNS8_9allocatorIiEEEET0_EUliE_, 
                       __ZTSZN3mlx4core12reduction_opINS0_13_MLX_BFloat16ES2_NS0_9MaxReduceEEEvRKNS0_5arrayERS4_RKNSt3__16vectorIiNS8_9allocatorIiEEEET0_EUliE0_, 
                       __ZTSZN3mlx4core12reduction_opINS0_13_MLX_BFloat16ES2_NS0_9MaxReduceEEEvRKNS0_5arrayERS4_RKNSt3__16vectorIiNS8_9allocatorIiEEEET0_EUliE1_, 
                       __ZTSZN3mlx4core12reduction_opINS0_13_MLX_BFloat16ES2_NS0_9MaxReduceEEEvRKNS0_5arrayERS4_RKNSt3__16vectorIiNS8_9allocatorIiEEEET0_EUliE_, 
                       __ZTSZN3mlx4core12reduction_opINS0_13_MLX_BFloat16ES2_NS0_9MinReduceEEEvRKNS0_5arrayERS4_RKNSt3__16vectorIiNS8_9allocatorIiEEEET0_EUliE0_, 
                       __ZTSZN3mlx4core12reduction_opINS0_13_MLX_BFloat16ES2_NS0_9MinReduceEEEvRKNS0_5arrayERS4_RKNSt3__16vectorIiNS8_9allocatorIiEEEET0_EUliE1_, 
                       __ZTSZN3mlx4core12reduction_opINS0_13_MLX_BFloat16ES2_NS0_9MinReduceEEEvRKNS0_5arrayERS4_RKNSt3__16vectorIiNS8_9allocatorIiEEEET0_EUliE_, 
                       __ZTSZN3mlx4core12reduction_opINS0_13_MLX_BFloat16ES2_NS0_9SumReduceEEEvRKNS0_5arrayERS4_RKNSt3__16vectorIiNS8_9allocatorIiEEEET0_EUliE0_, 
                       __ZTSZN3mlx4core12reduction_opINS0_13_MLX_BFloat16ES2_NS0_9SumReduceEEEvRKNS0_5arrayERS4_RKNSt3__16vectorIiNS8_9allocatorIiEEEET0_EUliE1_, 
                       __ZTSZN3mlx4core12reduction_opINS0_13_MLX_BFloat16ES2_NS0_9SumReduceEEEvRKNS0_5arrayERS4_RKNSt3__16vectorIiNS8_9allocatorIiEEEET0_EUliE_, 
                       __ZTSZN3mlx4core12reduction_opIabNS0_8OrReduceEEEvRKNS0_5arrayERS3_RKNSt3__16vectorIiNS7_9allocatorIiEEEET0_EUliE0_, 
                       __ZTSZN3mlx4core12reduction_opIabNS0_8OrReduceEEEvRKNS0_5arrayERS3_RKNSt3__16vectorIiNS7_9allocatorIiEEEET0_EUliE1_, 
                       __ZTSZN3mlx4core12reduction_opIabNS0_8OrReduceEEEvRKNS0_5arrayERS3_RKNSt3__16vectorIiNS7_9allocatorIiEEEET0_EUliE_, 
                       __ZTSZN3mlx4core12reduction_opIabNS0_9AndReduceEEEvRKNS0_5arrayERS3_RKNSt3__16vectorIiNS7_9allocatorIiEEEET0_EUliE0_, 
                       __ZTSZN3mlx4core12reduction_opIabNS0_9AndReduceEEEvRKNS0_5arrayERS3_RKNSt3__16vectorIiNS7_9allocatorIiEEEET0_EUliE1_, 
                       __ZTSZN3mlx4core12reduction_opIabNS0_9AndReduceEEEvRKNS0_5arrayERS3_RKNSt3__16vectorIiNS7_9allocatorIiEEEET0_EUliE_, 
                       __ZTSZN3mlx4core12reduction_opIaiNS0_10ProdReduceEEEvRKNS0_5arrayERS3_RKNSt3__16vectorIiNS7_9allocatorIiEEEET0_EUliE0_, 
                       __ZTSZN3mlx4core12reduction_opIaiNS0_10ProdReduceEEEvRKNS0_5arrayERS3_RKNSt3__16vectorIiNS7_9allocatorIiEEEET0_EUliE1_, 
                       __ZTSZN3mlx4core12reduction_opIaiNS0_10ProdReduceEEEvRKNS0_5arrayERS3_RKNSt3__16vectorIiNS7_9allocatorIiEEEET0_EUliE_, 
                       __ZTSZN3mlx4core12reduction_opIaiNS0_9SumReduceEEEvRKNS0_5arrayERS3_RKNSt3__16vectorIiNS7_9allocatorIiEEEET0_EUliE0_, 
                       __ZTSZN3mlx4core12reduction_opIaiNS0_9SumReduceEEEvRKNS0_5arrayERS3_RKNSt3__16vectorIiNS7_9allocatorIiEEEET0_EUliE1_, 
                       __ZTSZN3mlx4core12reduction_opIaiNS0_9SumReduceEEEvRKNS0_5arrayERS3_RKNSt3__16vectorIiNS7_9allocatorIiEEEET0_EUliE_, 
                       __ZTSZN3mlx4core12reduction_opIbbNS0_9MaxReduceEEEvRKNS0_5arrayERS3_RKNSt3__16vectorIiNS7_9allocatorIiEEEET0_EUliE0_, 
                       __ZTSZN3mlx4core12reduction_opIbbNS0_9MaxReduceEEEvRKNS0_5arrayERS3_RKNSt3__16vectorIiNS7_9allocatorIiEEEET0_EUliE1_, 
                       __ZTSZN3mlx4core12reduction_opIbbNS0_9MaxReduceEEEvRKNS0_5arrayERS3_RKNSt3__16vectorIiNS7_9allocatorIiEEEET0_EUliE_, 
                       __ZTSZN3mlx4core12reduction_opIbbNS0_9MinReduceEEEvRKNS0_5arrayERS3_RKNSt3__16vectorIiNS7_9allocatorIiEEEET0_EUliE0_, 
                       __ZTSZN3mlx4core12reduction_opIbbNS0_9MinReduceEEEvRKNS0_5arrayERS3_RKNSt3__16vectorIiNS7_9allocatorIiEEEET0_EUliE1_, 
                       __ZTSZN3mlx4core12reduction_opIbbNS0_9MinReduceEEEvRKNS0_5arrayERS3_RKNSt3__16vectorIiNS7_9allocatorIiEEEET0_EUliE_, 
                       __ZTSZN3mlx4core12reduction_opIddNS0_10ProdReduceEEEvRKNS0_5arrayERS3_RKNSt3__16vectorIiNS7_9allocatorIiEEEET0_EUliE0_, 
                       __ZTSZN3mlx4core12reduction_opIddNS0_10ProdReduceEEEvRKNS0_5arrayERS3_RKNSt3__16vectorIiNS7_9allocatorIiEEEET0_EUliE1_, 
                       __ZTSZN3mlx4core12reduction_opIddNS0_10ProdReduceEEEvRKNS0_5arrayERS3_RKNSt3__16vectorIiNS7_9allocatorIiEEEET0_EUliE_, 
                       __ZTSZN3mlx4core12reduction_opIddNS0_9MaxReduceEEEvRKNS0_5arrayERS3_RKNSt3__16vectorIiNS7_9allocatorIiEEEET0_EUliE0_, 
                       __ZTSZN3mlx4core12reduction_opIddNS0_9MaxReduceEEEvRKNS0_5arrayERS3_RKNSt3__16vectorIiNS7_9allocatorIiEEEET0_EUliE1_, 
                       __ZTSZN3mlx4core12reduction_opIddNS0_9MaxReduceEEEvRKNS0_5arrayERS3_RKNSt3__16vectorIiNS7_9allocatorIiEEEET0_EUliE_, 
                       __ZTSZN3mlx4core12reduction_opIddNS0_9MinReduceEEEvRKNS0_5arrayERS3_RKNSt3__16vectorIiNS7_9allocatorIiEEEET0_EUliE0_, 
                       __ZTSZN3mlx4core12reduction_opIddNS0_9MinReduceEEEvRKNS0_5arrayERS3_RKNSt3__16vectorIiNS7_9allocatorIiEEEET0_EUliE1_, 
                       __ZTSZN3mlx4core12reduction_opIddNS0_9MinReduceEEEvRKNS0_5arrayERS3_RKNSt3__16vectorIiNS7_9allocatorIiEEEET0_EUliE_, 
                       __ZTSZN3mlx4core12reduction_opIddNS0_9SumReduceEEEvRKNS0_5arrayERS3_RKNSt3__16vectorIiNS7_9allocatorIiEEEET0_EUliE0_, 
                       __ZTSZN3mlx4core12reduction_opIddNS0_9SumReduceEEEvRKNS0_5arrayERS3_RKNSt3__16vectorIiNS7_9allocatorIiEEEET0_EUliE1_, 
                       __ZTSZN3mlx4core12reduction_opIddNS0_9SumReduceEEEvRKNS0_5arrayERS3_RKNSt3__16vectorIiNS7_9allocatorIiEEEET0_EUliE_, 
                       __ZTSZN3mlx4core12reduction_opIffNS0_10ProdReduceEEEvRKNS0_5arrayERS3_RKNSt3__16vectorIiNS7_9allocatorIiEEEET0_EUliE0_, 
                       __ZTSZN3mlx4core12reduction_opIffNS0_10ProdReduceEEEvRKNS0_5arrayERS3_RKNSt3__16vectorIiNS7_9allocatorIiEEEET0_EUliE1_, 
                       __ZTSZN3mlx4core12reduction_opIffNS0_10ProdReduceEEEvRKNS0_5arrayERS3_RKNSt3__16vectorIiNS7_9allocatorIiEEEET0_EUliE_, 
                       __ZTSZN3mlx4core12reduction_opIffNS0_9MaxReduceEEEvRKNS0_5arrayERS3_RKNSt3__16vectorIiNS7_9allocatorIiEEEET0_EUliE0_, 
                       __ZTSZN3mlx4core12reduction_opIffNS0_9MaxReduceEEEvRKNS0_5arrayERS3_RKNSt3__16vectorIiNS7_9allocatorIiEEEET0_EUliE1_, 
                       __ZTSZN3mlx4core12reduction_opIffNS0_9MaxReduceEEEvRKNS0_5arrayERS3_RKNSt3__16vectorIiNS7_9allocatorIiEEEET0_EUliE_, 
                       __ZTSZN3mlx4core12reduction_opIffNS0_9MinReduceEEEvRKNS0_5arrayERS3_RKNSt3__16vectorIiNS7_9allocatorIiEEEET0_EUliE0_, 
                       __ZTSZN3mlx4core12reduction_opIffNS0_9MinReduceEEEvRKNS0_5arrayERS3_RKNSt3__16vectorIiNS7_9allocatorIiEEEET0_EUliE1_, 
                       __ZTSZN3mlx4core12reduction_opIffNS0_9MinReduceEEEvRKNS0_5arrayERS3_RKNSt3__16vectorIiNS7_9allocatorIiEEEET0_EUliE_, 
                       __ZTSZN3mlx4core12reduction_opIffNS0_9SumReduceEEEvRKNS0_5arrayERS3_RKNSt3__16vectorIiNS7_9allocatorIiEEEET0_EUliE0_, 
                       __ZTSZN3mlx4core12reduction_opIffNS0_9SumReduceEEEvRKNS0_5arrayERS3_RKNSt3__16vectorIiNS7_9allocatorIiEEEET0_EUliE1_, 
                       __ZTSZN3mlx4core12reduction_opIffNS0_9SumReduceEEEvRKNS0_5arrayERS3_RKNSt3__16vectorIiNS7_9allocatorIiEEEET0_EUliE_, 
                       __ZTSZN3mlx4core12reduction_opIhhNS0_9MaxReduceEEEvRKNS0_5arrayERS3_RKNSt3__16vectorIiNS7_9allocatorIiEEEET0_EUliE0_, 
                       __ZTSZN3mlx4core12reduction_opIhhNS0_9MaxReduceEEEvRKNS0_5arrayERS3_RKNSt3__16vectorIiNS7_9allocatorIiEEEET0_EUliE1_, 
                       __ZTSZN3mlx4core12reduction_opIhhNS0_9MaxReduceEEEvRKNS0_5arrayERS3_RKNSt3__16vectorIiNS7_9allocatorIiEEEET0_EUliE_, 
                       __ZTSZN3mlx4core12reduction_opIhhNS0_9MinReduceEEEvRKNS0_5arrayERS3_RKNSt3__16vectorIiNS7_9allocatorIiEEEET0_EUliE0_, 
                       __ZTSZN3mlx4core12reduction_opIhhNS0_9MinReduceEEEvRKNS0_5arrayERS3_RKNSt3__16vectorIiNS7_9allocatorIiEEEET0_EUliE1_, 
                       __ZTSZN3mlx4core12reduction_opIhhNS0_9MinReduceEEEvRKNS0_5arrayERS3_RKNSt3__16vectorIiNS7_9allocatorIiEEEET0_EUliE_, 
                       __ZTSZN3mlx4core12reduction_opIibNS0_8OrReduceEEEvRKNS0_5arrayERS3_RKNSt3__16vectorIiNS7_9allocatorIiEEEET0_EUliE0_, 
                       __ZTSZN3mlx4core12reduction_opIibNS0_8OrReduceEEEvRKNS0_5arrayERS3_RKNSt3__16vectorIiNS7_9allocatorIiEEEET0_EUliE1_, 
                       __ZTSZN3mlx4core12reduction_opIibNS0_8OrReduceEEEvRKNS0_5arrayERS3_RKNSt3__16vectorIiNS7_9allocatorIiEEEET0_EUliE_, 
                       __ZTSZN3mlx4core12reduction_opIibNS0_9AndReduceEEEvRKNS0_5arrayERS3_RKNSt3__16vectorIiNS7_9allocatorIiEEEET0_EUliE0_, 
                       __ZTSZN3mlx4core12reduction_opIibNS0_9AndReduceEEEvRKNS0_5arrayERS3_RKNSt3__16vectorIiNS7_9allocatorIiEEEET0_EUliE1_, 
                       __ZTSZN3mlx4core12reduction_opIibNS0_9AndReduceEEEvRKNS0_5arrayERS3_RKNSt3__16vectorIiNS7_9allocatorIiEEEET0_EUliE_, 
                       __ZTSZN3mlx4core12reduction_opIiiNS0_10ProdReduceEEEvRKNS0_5arrayERS3_RKNSt3__16vectorIiNS7_9allocatorIiEEEET0_EUliE0_, 
                       __ZTSZN3mlx4core12reduction_opIiiNS0_10ProdReduceEEEvRKNS0_5arrayERS3_RKNSt3__16vectorIiNS7_9allocatorIiEEEET0_EUliE1_, 
                       __ZTSZN3mlx4core12reduction_opIiiNS0_10ProdReduceEEEvRKNS0_5arrayERS3_RKNSt3__16vectorIiNS7_9allocatorIiEEEET0_EUliE_, 
                       __ZTSZN3mlx4core12reduction_opIiiNS0_9MaxReduceEEEvRKNS0_5arrayERS3_RKNSt3__16vectorIiNS7_9allocatorIiEEEET0_EUliE0_, 
                       __ZTSZN3mlx4core12reduction_opIiiNS0_9MaxReduceEEEvRKNS0_5arrayERS3_RKNSt3__16vectorIiNS7_9allocatorIiEEEET0_EUliE1_, 
                       __ZTSZN3mlx4core12reduction_opIiiNS0_9MaxReduceEEEvRKNS0_5arrayERS3_RKNSt3__16vectorIiNS7_9allocatorIiEEEET0_EUliE_, 
                       __ZTSZN3mlx4core12reduction_opIiiNS0_9MinReduceEEEvRKNS0_5arrayERS3_RKNSt3__16vectorIiNS7_9allocatorIiEEEET0_EUliE0_, 
                       __ZTSZN3mlx4core12reduction_opIiiNS0_9MinReduceEEEvRKNS0_5arrayERS3_RKNSt3__16vectorIiNS7_9allocatorIiEEEET0_EUliE1_, 
                       __ZTSZN3mlx4core12reduction_opIiiNS0_9MinReduceEEEvRKNS0_5arrayERS3_RKNSt3__16vectorIiNS7_9allocatorIiEEEET0_EUliE_, 
                       __ZTSZN3mlx4core12reduction_opIiiNS0_9SumReduceEEEvRKNS0_5arrayERS3_RKNSt3__16vectorIiNS7_9allocatorIiEEEET0_EUliE0_, 
                       __ZTSZN3mlx4core12reduction_opIiiNS0_9SumReduceEEEvRKNS0_5arrayERS3_RKNSt3__16vectorIiNS7_9allocatorIiEEEET0_EUliE1_, 
                       __ZTSZN3mlx4core12reduction_opIiiNS0_9SumReduceEEEvRKNS0_5arrayERS3_RKNSt3__16vectorIiNS7_9allocatorIiEEEET0_EUliE_, 
                       __ZTSZN3mlx4core12reduction_opIjjNS0_9MaxReduceEEEvRKNS0_5arrayERS3_RKNSt3__16vectorIiNS7_9allocatorIiEEEET0_EUliE0_, 
                       __ZTSZN3mlx4core12reduction_opIjjNS0_9MaxReduceEEEvRKNS0_5arrayERS3_RKNSt3__16vectorIiNS7_9allocatorIiEEEET0_EUliE1_, 
                       __ZTSZN3mlx4core12reduction_opIjjNS0_9MaxReduceEEEvRKNS0_5arrayERS3_RKNSt3__16vectorIiNS7_9allocatorIiEEEET0_EUliE_, 
                       __ZTSZN3mlx4core12reduction_opIjjNS0_9MinReduceEEEvRKNS0_5arrayERS3_RKNSt3__16vectorIiNS7_9allocatorIiEEEET0_EUliE0_, 
                       __ZTSZN3mlx4core12reduction_opIjjNS0_9MinReduceEEEvRKNS0_5arrayERS3_RKNSt3__16vectorIiNS7_9allocatorIiEEEET0_EUliE1_, 
                       __ZTSZN3mlx4core12reduction_opIjjNS0_9MinReduceEEEvRKNS0_5arrayERS3_RKNSt3__16vectorIiNS7_9allocatorIiEEEET0_EUliE_, 
                       __ZTSZN3mlx4core12reduction_opIsbNS0_8OrReduceEEEvRKNS0_5arrayERS3_RKNSt3__16vectorIiNS7_9allocatorIiEEEET0_EUliE0_, 
                       __ZTSZN3mlx4core12reduction_opIsbNS0_8OrReduceEEEvRKNS0_5arrayERS3_RKNSt3__16vectorIiNS7_9allocatorIiEEEET0_EUliE1_, 
                       __ZTSZN3mlx4core12reduction_opIsbNS0_8OrReduceEEEvRKNS0_5arrayERS3_RKNSt3__16vectorIiNS7_9allocatorIiEEEET0_EUliE_, 
                       __ZTSZN3mlx4core12reduction_opIsbNS0_9AndReduceEEEvRKNS0_5arrayERS3_RKNSt3__16vectorIiNS7_9allocatorIiEEEET0_EUliE0_, 
                       __ZTSZN3mlx4core12reduction_opIsbNS0_9AndReduceEEEvRKNS0_5arrayERS3_RKNSt3__16vectorIiNS7_9allocatorIiEEEET0_EUliE1_, 
                       __ZTSZN3mlx4core12reduction_opIsbNS0_9AndReduceEEEvRKNS0_5arrayERS3_RKNSt3__16vectorIiNS7_9allocatorIiEEEET0_EUliE_, 
                       __ZTSZN3mlx4core12reduction_opIsiNS0_10ProdReduceEEEvRKNS0_5arrayERS3_RKNSt3__16vectorIiNS7_9allocatorIiEEEET0_EUliE0_, 
                       __ZTSZN3mlx4core12reduction_opIsiNS0_10ProdReduceEEEvRKNS0_5arrayERS3_RKNSt3__16vectorIiNS7_9allocatorIiEEEET0_EUliE1_, 
                       __ZTSZN3mlx4core12reduction_opIsiNS0_10ProdReduceEEEvRKNS0_5arrayERS3_RKNSt3__16vectorIiNS7_9allocatorIiEEEET0_EUliE_, 
                       __ZTSZN3mlx4core12reduction_opIsiNS0_9SumReduceEEEvRKNS0_5arrayERS3_RKNSt3__16vectorIiNS7_9allocatorIiEEEET0_EUliE0_, 
                       __ZTSZN3mlx4core12reduction_opIsiNS0_9SumReduceEEEvRKNS0_5arrayERS3_RKNSt3__16vectorIiNS7_9allocatorIiEEEET0_EUliE1_, 
                       __ZTSZN3mlx4core12reduction_opIsiNS0_9SumReduceEEEvRKNS0_5arrayERS3_RKNSt3__16vectorIiNS7_9allocatorIiEEEET0_EUliE_, 
                       __ZTSZN3mlx4core12reduction_opIttNS0_9MaxReduceEEEvRKNS0_5arrayERS3_RKNSt3__16vectorIiNS7_9allocatorIiEEEET0_EUliE0_, 
                       __ZTSZN3mlx4core12reduction_opIttNS0_9MaxReduceEEEvRKNS0_5arrayERS3_RKNSt3__16vectorIiNS7_9allocatorIiEEEET0_EUliE1_, 
                       __ZTSZN3mlx4core12reduction_opIttNS0_9MaxReduceEEEvRKNS0_5arrayERS3_RKNSt3__16vectorIiNS7_9allocatorIiEEEET0_EUliE_, 
                       __ZTSZN3mlx4core12reduction_opIttNS0_9MinReduceEEEvRKNS0_5arrayERS3_RKNSt3__16vectorIiNS7_9allocatorIiEEEET0_EUliE0_, 
                       __ZTSZN3mlx4core12reduction_opIttNS0_9MinReduceEEEvRKNS0_5arrayERS3_RKNSt3__16vectorIiNS7_9allocatorIiEEEET0_EUliE1_, 
                       __ZTSZN3mlx4core12reduction_opIttNS0_9MinReduceEEEvRKNS0_5arrayERS3_RKNSt3__16vectorIiNS7_9allocatorIiEEEET0_EUliE_, 
                       __ZTSZN3mlx4core12reduction_opIxbNS0_8OrReduceEEEvRKNS0_5arrayERS3_RKNSt3__16vectorIiNS7_9allocatorIiEEEET0_EUliE0_, 
                       __ZTSZN3mlx4core12reduction_opIxbNS0_8OrReduceEEEvRKNS0_5arrayERS3_RKNSt3__16vectorIiNS7_9allocatorIiEEEET0_EUliE1_, 
                       __ZTSZN3mlx4core12reduction_opIxbNS0_8OrReduceEEEvRKNS0_5arrayERS3_RKNSt3__16vectorIiNS7_9allocatorIiEEEET0_EUliE_, 
                       __ZTSZN3mlx4core12reduction_opIxbNS0_9AndReduceEEEvRKNS0_5arrayERS3_RKNSt3__16vectorIiNS7_9allocatorIiEEEET0_EUliE0_, 
                       __ZTSZN3mlx4core12reduction_opIxbNS0_9AndReduceEEEvRKNS0_5arrayERS3_RKNSt3__16vectorIiNS7_9allocatorIiEEEET0_EUliE1_, 
                       __ZTSZN3mlx4core12reduction_opIxbNS0_9AndReduceEEEvRKNS0_5arrayERS3_RKNSt3__16vectorIiNS7_9allocatorIiEEEET0_EUliE_, 
                       __ZTSZN3mlx4core12reduction_opIxxNS0_10ProdReduceEEEvRKNS0_5arrayERS3_RKNSt3__16vectorIiNS7_9allocatorIiEEEET0_EUliE0_, 
                       __ZTSZN3mlx4core12reduction_opIxxNS0_10ProdReduceEEEvRKNS0_5arrayERS3_RKNSt3__16vectorIiNS7_9allocatorIiEEEET0_EUliE1_, 
                       __ZTSZN3mlx4core12reduction_opIxxNS0_10ProdReduceEEEvRKNS0_5arrayERS3_RKNSt3__16vectorIiNS7_9allocatorIiEEEET0_EUliE_, 
                       __ZTSZN3mlx4core12reduction_opIxxNS0_9MaxReduceEEEvRKNS0_5arrayERS3_RKNSt3__16vectorIiNS7_9allocatorIiEEEET0_EUliE0_, 
                       __ZTSZN3mlx4core12reduction_opIxxNS0_9MaxReduceEEEvRKNS0_5arrayERS3_RKNSt3__16vectorIiNS7_9allocatorIiEEEET0_EUliE1_, 
                       __ZTSZN3mlx4core12reduction_opIxxNS0_9MaxReduceEEEvRKNS0_5arrayERS3_RKNSt3__16vectorIiNS7_9allocatorIiEEEET0_EUliE_, 
                       __ZTSZN3mlx4core12reduction_opIxxNS0_9MinReduceEEEvRKNS0_5arrayERS3_RKNSt3__16vectorIiNS7_9allocatorIiEEEET0_EUliE0_, 
                       __ZTSZN3mlx4core12reduction_opIxxNS0_9MinReduceEEEvRKNS0_5arrayERS3_RKNSt3__16vectorIiNS7_9allocatorIiEEEET0_EUliE1_, 
                       __ZTSZN3mlx4core12reduction_opIxxNS0_9MinReduceEEEvRKNS0_5arrayERS3_RKNSt3__16vectorIiNS7_9allocatorIiEEEET0_EUliE_, 
                       __ZTSZN3mlx4core12reduction_opIxxNS0_9SumReduceEEEvRKNS0_5arrayERS3_RKNSt3__16vectorIiNS7_9allocatorIiEEEET0_EUliE0_, 
                       __ZTSZN3mlx4core12reduction_opIxxNS0_9SumReduceEEEvRKNS0_5arrayERS3_RKNSt3__16vectorIiNS7_9allocatorIiEEEET0_EUliE1_, 
                       __ZTSZN3mlx4core12reduction_opIxxNS0_9SumReduceEEEvRKNS0_5arrayERS3_RKNSt3__16vectorIiNS7_9allocatorIiEEEET0_EUliE_, 
                       __ZTSZN3mlx4core12reduction_opIyyNS0_9MaxReduceEEEvRKNS0_5arrayERS3_RKNSt3__16vectorIiNS7_9allocatorIiEEEET0_EUliE0_, 
                       __ZTSZN3mlx4core12reduction_opIyyNS0_9MaxReduceEEEvRKNS0_5arrayERS3_RKNSt3__16vectorIiNS7_9allocatorIiEEEET0_EUliE1_, 
                       __ZTSZN3mlx4core12reduction_opIyyNS0_9MaxReduceEEEvRKNS0_5arrayERS3_RKNSt3__16vectorIiNS7_9allocatorIiEEEET0_EUliE_, 
                       __ZTSZN3mlx4core12reduction_opIyyNS0_9MinReduceEEEvRKNS0_5arrayERS3_RKNSt3__16vectorIiNS7_9allocatorIiEEEET0_EUliE0_, 
                       __ZTSZN3mlx4core12reduction_opIyyNS0_9MinReduceEEEvRKNS0_5arrayERS3_RKNSt3__16vectorIiNS7_9allocatorIiEEEET0_EUliE1_, 
                       __ZTSZN3mlx4core12reduction_opIyyNS0_9MinReduceEEEvRKNS0_5arrayERS3_RKNSt3__16vectorIiNS7_9allocatorIiEEEET0_EUliE_, 
                       __ZTSZN9pocketfft6detail9threading10thread_mapIZNS0_10general_ndINS0_11pocketfft_cIfEENS0_5cmplxIfEEfNS0_7ExecC2CEEEvRKNS0_6cndarrIT0_EERNS0_5ndarrISA_EERKNSt3__16vectorImNSH_9allocatorImEEEET1_mRKT2_bEUlvE_EEvmT_EUlvE_, 
                       __ZTSZN9pocketfft6detail9threading10thread_mapIZNS0_11general_c2rIfEEvRKNS0_6cndarrINS0_5cmplxIT_EEEERNS0_5ndarrIS6_EEmbS6_mEUlvE_EEvmS6_EUlvE_, 
                       __ZTSZN9pocketfft6detail9threading10thread_mapIZNS0_11general_r2cIfEEvRKNS0_6cndarrIT_EERNS0_5ndarrINS0_5cmplxIS5_EEEEmbS5_mEUlvE_EEvmS5_EUlvE_ ]
  - targets:         [ x86_64-macos, arm64e-macos ]
    symbols:         [ '_$s10Foundation14DateComponentsV8Morpheus12AttributableADMc', 
                       '_$s10Foundation14DateComponentsV8Morpheus12AttributableADWP', 
                       '_$s10Foundation14DateComponentsV8Morpheus12SubtractableADMc', 
                       '_$s10Foundation14DateComponentsV8Morpheus12SubtractableADWP', 
                       '_$s10Foundation14DateComponentsV8MorpheusE3has9attributeSbSS_tF', 
                       '_$s10Foundation14DateComponentsV8MorpheusE8subtractyypypKF', 
                       '_$s10Foundation14DateComponentsV8MorpheusE9attribute3forypSgSS_tF', 
                       '_$s10Foundation4DataV8Morpheus8PyObjectADMc', '_$s10Foundation4DataV8Morpheus8PyObjectADWP', 
                       '_$s10Foundation4DataV8MorpheusE9__class__AD7PyClass_pvg', 
                       '_$s10Foundation4DataV8MorpheusE9__class__AD7PyClass_pvpMV', 
                       '_$s10Foundation4DateV8Morpheus03AnyB0ADMc', '_$s10Foundation4DateV8Morpheus03AnyB0ADWP', 
                       '_$s10Foundation4DateV8MorpheusE4dateACvg', '_$s10Foundation4DateV8MorpheusE4dateACvpMV', 
                       '_$s10Foundation4UUIDV8Morpheus12AttributableADMc', '_$s10Foundation4UUIDV8Morpheus12AttributableADWP', 
                       '_$s10Foundation4UUIDV8Morpheus8PyObjectADMc', '_$s10Foundation4UUIDV8Morpheus8PyObjectADWP', 
                       '_$s10Foundation4UUIDV8MorpheusE3has9attributeSbSS_tF', '_$s10Foundation4UUIDV8MorpheusE9__class__AD7PyClass_pvg', 
                       '_$s10Foundation4UUIDV8MorpheusE9__class__AD7PyClass_pvpMV', 
                       '_$s10Foundation4UUIDV8MorpheusE9attribute3forypSgSS_tF', 
                       '_$s8Morpheus0A5ErrorO015failedToConvertD8MLXArrayyA2CmFWC', 
                       '_$s8Morpheus0A5ErrorO018notAuthorizedToUseA0yA2CmFWC', '_$s8Morpheus0A5ErrorO03notB4TypeyA2CmFWC', 
                       '_$s8Morpheus0A5ErrorO06nativeB13IsNotCallableyA2CmFWC', '_$s8Morpheus0A5ErrorO09unknownPyB4CodeyA2CmFWC', 
                       '_$s8Morpheus0A5ErrorO10mmapFailedyA2CmFWC', '_$s8Morpheus0A5ErrorO10unexpectedyA2CmFWC', 
                       '_$s8Morpheus0A5ErrorO11keyNotFoundyA2CmFWC', '_$s8Morpheus0A5ErrorO11noBaseClassyA2CmFWC', 
                       '_$s8Morpheus0A5ErrorO11notMLXArrayyA2CmFWC', '_$s8Morpheus0A5ErrorO11notStorableyA2CmFWC', 
                       '_$s8Morpheus0A5ErrorO12missingInputyA2CmFWC', '_$s8Morpheus0A5ErrorO12nameNotFoundyA2CmFWC', 
                       '_$s8Morpheus0A5ErrorO13forloopFailedyA2CmFWC', '_$s8Morpheus0A5ErrorO13invalidLoopOpyA2CmFWC', 
                       '_$s8Morpheus0A5ErrorO13pyTaskTimeoutyA2CmFWC', '_$s8Morpheus0A5ErrorO14moduleNotFoundyA2CmFWC', 
                       '_$s8Morpheus0A5ErrorO14moduleReleasedyA2CmFWC', '_$s8Morpheus0A5ErrorO14notImplementedyA2CmFWC', 
                       '_$s8Morpheus0A5ErrorO15argIsNotANumberyA2CmFWC', '_$s8Morpheus0A5ErrorO15argIsNotIntTypeyA2CmFWC', 
                       '_$s8Morpheus0A5ErrorO15argIsNotSetTypeyA2CmFWC', '_$s8Morpheus0A5ErrorO15coroutineIsDoneyA2CmFWC', 
                       '_$s8Morpheus0A5ErrorO15emptyModuleNameyA2CmFWC', '_$s8Morpheus0A5ErrorO15invalidIteratoryA2CmFWC', 
                       '_$s8Morpheus0A5ErrorO15missingGradientyA2CmFWC', '_$s8Morpheus0A5ErrorO15mmapRemapFailedyA2CmFWC', 
                       '_$s8Morpheus0A5ErrorO15notAttributableyA2CmFWC', '_$s8Morpheus0A5ErrorO15notNegationableyA2CmFWC', 
                       '_$s8Morpheus0A5ErrorO15standaloneRaiseyA2CmFWC', '_$s8Morpheus0A5ErrorO15unexpectedRaiseyA2CmFWC', 
                       '_$s8Morpheus0A5ErrorO15weightsNotFoundyA2CmFWC', '_$s8Morpheus0A5ErrorO16argIsNotDataTypeyA2CmFWC', 
                       '_$s8Morpheus0A5ErrorO16argIsNotDictTypeyA2CmFWC', '_$s8Morpheus0A5ErrorO16argIsNotListTypeyA2CmFWC', 
                       '_$s8Morpheus0A5ErrorO16argIsNotPyObjectyA2CmFWC', '_$s8Morpheus0A5ErrorO16duplicatedShapesyA2CmFWC', 
                       '_$s8Morpheus0A5ErrorO16functionNotFoundyA2CmFWC', '_$s8Morpheus0A5ErrorO16indexOutofBoundsyA2CmFWC', 
                       '_$s8Morpheus0A5ErrorO16invalidArgForAbsyA2CmFWC', '_$s8Morpheus0A5ErrorO16invalidArgForAllyA2CmFWC', 
                       '_$s8Morpheus0A5ErrorO16invalidArgForAnyyA2CmFWC', '_$s8Morpheus0A5ErrorO16invalidArgForIntyA2CmFWC', 
                       '_$s8Morpheus0A5ErrorO16invalidArgForLenyA2CmFWC', '_$s8Morpheus0A5ErrorO16invalidArgForMapyA2CmFWC', 
                       '_$s8Morpheus0A5ErrorO16invalidArgForMaxyA2CmFWC', '_$s8Morpheus0A5ErrorO16invalidArgForMinyA2CmFWC', 
                       '_$s8Morpheus0A5ErrorO16invalidArgForSetyA2CmFWC', '_$s8Morpheus0A5ErrorO16invalidArgForStryA2CmFWC', 
                       '_$s8Morpheus0A5ErrorO16invalidArgForSumyA2CmFWC', '_$s8Morpheus0A5ErrorO16invalidArgForZipyA2CmFWC', 
                       '_$s8Morpheus0A5ErrorO16invalidConditionyA2CmFWC', '_$s8Morpheus0A5ErrorO16invalidDecoratoryA2CmFWC', 
                       '_$s8Morpheus0A5ErrorO16invalidNameStoreyA2CmFWC', '_$s8Morpheus0A5ErrorO16missingAttributeyA2CmFWC', 
                       '_$s8Morpheus0A5ErrorO16mmapReopenFailedyA2CmFWC', '_$s8Morpheus0A5ErrorO16noNextClassInMROyA2CmFWC', 
                       '_$s8Morpheus0A5ErrorO17argIsNotAwaitableyA2CmFWC', '_$s8Morpheus0A5ErrorO17argIsNotMLXDeviceyA2CmFWC', 
                       '_$s8Morpheus0A5ErrorO17argIsNotSliceTypeyA2CmFWC', '_$s8Morpheus0A5ErrorO17argIsNotTupleTypeyA2CmFWC', 
                       '_$s8Morpheus0A5ErrorO17attributeNotFoundyA2CmFWC', '_$s8Morpheus0A5ErrorO17baseClassNotFoundyA2CmFWC', 
                       '_$s8Morpheus0A5ErrorO17emptyFunctionNameyA2CmFWC', '_$s8Morpheus0A5ErrorO17failedToBindInputyA2CmFWC', 
                       '_$s8Morpheus0A5ErrorO17functionNotLoadedyA2CmFWC', '_$s8Morpheus0A5ErrorO17invalidArgForBoolyA2CmFWC', 
                       '_$s8Morpheus0A5ErrorO17invalidArgForDictyA2CmFWC', '_$s8Morpheus0A5ErrorO17invalidArgForTypeyA2CmFWC', 
                       '_$s8Morpheus0A5ErrorO17invalidArgForUUIDyA2CmFWC', '_$s8Morpheus0A5ErrorO17mmapInvalidHeaderyA2CmFWC', 
                       '_$s8Morpheus0A5ErrorO17notSupportedBinOpyA2CmFWC', '_$s8Morpheus0A5ErrorO17notSupportedUnaryyA2CmFWC', 
                       '_$s8Morpheus0A5ErrorO18argIsNotStringTypeyA2CmFWC', '_$s8Morpheus0A5ErrorO18classNotFoundInMroyA2CmFWC', 
                       '_$s8Morpheus0A5ErrorO18coroutineIsRunningyA2CmFWC', '_$s8Morpheus0A5ErrorO18failedJSONDecodingyA2CmFWC', 
                       '_$s8Morpheus0A5ErrorO18failedJSONEncodingyA2CmFWC', '_$s8Morpheus0A5ErrorO18failedToInferDtypeyA2CmFWC', 
                       '_$s8Morpheus0A5ErrorO18functionCallFailedyA2CmFWC', '_$s8Morpheus0A5ErrorO18inhomogeneousShapeyA2CmFWC', 
                       '_$s8Morpheus0A5ErrorO18inputDTypeMismatchyA2CmFWC', '_$s8Morpheus0A5ErrorO18inputShapeMismatchyA2CmFWC', 
                       '_$s8Morpheus0A5ErrorO18invalidArgForFloatyA2CmFWC', '_$s8Morpheus0A5ErrorO18invalidArgForNPSumyA2CmFWC', 
                       '_$s8Morpheus0A5ErrorO18invalidArgForPrintyA2CmFWC', '_$s8Morpheus0A5ErrorO18invalidArgForRangeyA2CmFWC', 
                       '_$s8Morpheus0A5ErrorO18invalidArgForRoundyA2CmFWC', '_$s8Morpheus0A5ErrorO18invalidArgForSliceyA2CmFWC', 
                       '_$s8Morpheus0A5ErrorO18invalidArgForSuperyA2CmFWC', '_$s8Morpheus0A5ErrorO18invalidArgForTupleyA2CmFWC', 
                       '_$s8Morpheus0A5ErrorO18invalidDTypeStringyA2CmFWC', '_$s8Morpheus0A5ErrorO18invalidNumericTypeyA2CmFWC', 
                       '_$s8Morpheus0A5ErrorO18invalidReturnValueyA2CmFWC', '_$s8Morpheus0A5ErrorO18mmapFileSizeFailedyA2CmFWC', 
                       '_$s8Morpheus0A5ErrorO18mmapGetArrayFailedyA2CmFWC', '_$s8Morpheus0A5ErrorO18mmapSetArrayFailedyA2CmFWC', 
                       '_$s8Morpheus0A5ErrorO18notSupportedBoolOpyA2CmFWC', '_$s8Morpheus0A5ErrorO18numSamplesMismatchyA2CmFWC', 
                       '_$s8Morpheus0A5ErrorO18varShouldNotBeFreeyA2CmFWC', '_$s8Morpheus0A5ErrorO19comprehensionFailedyA2CmFWC', 
                       '_$s8Morpheus0A5ErrorO19enumClassDoNotMatchyA2CmFWC', '_$s8Morpheus0A5ErrorO19failedToLoadWeightsyA2CmFWC', 
                       '_$s8Morpheus0A5ErrorO19freeCellsDoNotMatchyA2CmFWC', '_$s8Morpheus0A5ErrorO19invalidArgForFilteryA2CmFWC', 
                       '_$s8Morpheus0A5ErrorO19invalidArgForNPClipyA2CmFWC', '_$s8Morpheus0A5ErrorO19invalidArgForNPFullyA2CmFWC', 
                       '_$s8Morpheus0A5ErrorO19invalidArgForNPOnesyA2CmFWC', '_$s8Morpheus0A5ErrorO19invalidArgForNPRandyA2CmFWC', 
                       '_$s8Morpheus0A5ErrorO19invalidArgForNPRollyA2CmFWC', '_$s8Morpheus0A5ErrorO19invalidArgForSetAddyA2CmFWC', 
                       '_$s8Morpheus0A5ErrorO19invalidArgForSortedyA2CmFWC', '_$s8Morpheus0A5ErrorO19invalidArgForUnpackyA2CmFWC', 
                       '_$s8Morpheus0A5ErrorO19invalidArgsForTrainyA2CmFWC', '_$s8Morpheus0A5ErrorO19invalidAssignmentOpyA2CmFWC', 
                       '_$s8Morpheus0A5ErrorO19invalidPrintFFormatyA2CmFWC', '_$s8Morpheus0A5ErrorO19missingMainFunctionyA2CmFWC', 
                       '_$s8Morpheus0A5ErrorO19missingRequiredArgsyA2CmFWC', '_$s8Morpheus0A5ErrorO19outputCountMismatchyA2CmFWC', 
                       '_$s8Morpheus0A5ErrorO19parentBlockNotFoundyA2CmFWC', '_$s8Morpheus0A5ErrorO20abstractMethodCalledyA2CmFWC', 
                       '_$s8Morpheus0A5ErrorO20argIsNotFunctionTypeyA2CmFWC', '_$s8Morpheus0A5ErrorO20argIsNotHashableTypeyA2CmFWC', 
                       '_$s8Morpheus0A5ErrorO20coroutineIsCancelledyA2CmFWC', '_$s8Morpheus0A5ErrorO20errorClassDoNotMatchyA2CmFWC', 
                       '_$s8Morpheus0A5ErrorO20invalidArgForDictGetyA2CmFWC', '_$s8Morpheus0A5ErrorO20invalidArgForGetattryA2CmFWC', 
                       '_$s8Morpheus0A5ErrorO20invalidArgForHasattryA2CmFWC', '_$s8Morpheus0A5ErrorO20invalidArgForNPArrayyA2CmFWC', 
                       '_$s8Morpheus0A5ErrorO20invalidArgForNPRandnyA2CmFWC', '_$s8Morpheus0A5ErrorO20invalidArgForNPSplityA2CmFWC', 
                       '_$s8Morpheus0A5ErrorO20invalidArgForNPStackyA2CmFWC', '_$s8Morpheus0A5ErrorO20invalidArgForNPZerosyA2CmFWC', 
                       '_$s8Morpheus0A5ErrorO20invalidArgForUUIDStryA2CmFWC', '_$s8Morpheus0A5ErrorO20invalidBaseClassTypeyA2CmFWC', 
                       '_$s8Morpheus0A5ErrorO20invalidBinOpOperatoryA2CmFWC', '_$s8Morpheus0A5ErrorO20invalidDecompositionyA2CmFWC', 
                       '_$s8Morpheus0A5ErrorO20invalidMLTensorDTypeyA2CmFWC', '_$s8Morpheus0A5ErrorO20invalidMLXArraySliceyA2CmFWC', 
                       '_$s8Morpheus0A5ErrorO20invalidUnaryOperatoryA2CmFWC', '_$s8Morpheus0A5ErrorO20missingCurrentWeightyA2CmFWC', 
                       '_$s8Morpheus0A5ErrorO20missingInitialWeightyA2CmFWC', '_$s8Morpheus0A5ErrorO20mmapFileResizeFailedyA2CmFWC', 
                       '_$s8Morpheus0A5ErrorO20reshapeSizeDoesMatchyA2CmFWC', '_$s8Morpheus0A5ErrorO21arrayIndexOutOfBoundsyA2CmFWC', 
                       '_$s8Morpheus0A5ErrorO21gpuFamilyNotSupportedyA2CmFWC', '_$s8Morpheus0A5ErrorO21invalidArgForNPArangeyA2CmFWC', 
                       '_$s8Morpheus0A5ErrorO21invalidArgForNPChoiceyA2CmFWC', '_$s8Morpheus0A5ErrorO21invalidArgForNPHStackyA2CmFWC', 
                       '_$s8Morpheus0A5ErrorO21invalidArgForNPRepeatyA2CmFWC', '_$s8Morpheus0A5ErrorO21invalidArgForNPVStackyA2CmFWC', 
                       '_$s8Morpheus0A5ErrorO21invalidArgForReversedyA2CmFWC', '_$s8Morpheus0A5ErrorO21invalidArgForSetUnionyA2CmFWC', 
                       '_$s8Morpheus0A5ErrorO21invalidBoolOpOperatoryA2CmFWC', '_$s8Morpheus0A5ErrorO21invalidSubscriptSliceyA2CmFWC', 
                       '_$s8Morpheus0A5ErrorO21invalidSubscriptValueyA2CmFWC', '_$s8Morpheus0A5ErrorO21missingCellForFreevaryA2CmFWC', 
                       '_$s8Morpheus0A5ErrorO21missingFunctionLayoutyA2CmFWC', '_$s8Morpheus0A5ErrorO21mmapInvalidMsyncFlagsyA2CmFWC', 
                       '_$s8Morpheus0A5ErrorO21moreKeywordArgsPassedyA2CmFWC', '_$s8Morpheus0A5ErrorO21notMembershipTestableyA2CmFWC', 
                       '_$s8Morpheus0A5ErrorO21notSupportedOperationyA2CmFWC', '_$s8Morpheus0A5ErrorO21notSupportedSubscriptyA2CmFWC', 
                       '_$s8Morpheus0A5ErrorO21numpyArrayIsNotScalaryA2CmFWC', '_$s8Morpheus0A5ErrorO21shapeFunctionNotFoundyA2CmFWC', 
                       '_$s8Morpheus0A5ErrorO21trainingTaskCancelledyA2CmFWC', '_$s8Morpheus0A5ErrorO22argIsNotMTLGPUPriorityyA2CmFWC', 
                       '_$s8Morpheus0A5ErrorO22argmaxDoNotSupportAxesyA2CmFWC', '_$s8Morpheus0A5ErrorO22argminDoNotSupportAxesyA2CmFWC', 
                       '_$s8Morpheus0A5ErrorO22classNamespaceNotFoundyA2CmFWC', '_$s8Morpheus0A5ErrorO22currentEventLoopNotSetyA2CmFWC', 
                       '_$s8Morpheus0A5ErrorO22decoratorIsNotCallableyA2CmFWC', '_$s8Morpheus0A5ErrorO22ignoredInterfaceCalledyA2CmFWC', 
                       '_$s8Morpheus0A5ErrorO22invalidArgForAugAssignyA2CmFWC', '_$s8Morpheus0A5ErrorO22invalidArgForEnumerateyA2CmFWC', 
                       '_$s8Morpheus0A5ErrorO22invalidArgForJSONDumpsyA2CmFWC', '_$s8Morpheus0A5ErrorO22invalidArgForJSONLoadsyA2CmFWC', 
                       '_$s8Morpheus0A5ErrorO22invalidArgForNPRandintyA2CmFWC', '_$s8Morpheus0A5ErrorO22invalidArgForNPReshapeyA2CmFWC', 
                       '_$s8Morpheus0A5ErrorO22invalidArgForSetRemoveyA2CmFWC', '_$s8Morpheus0A5ErrorO22invalidArgForUUID5NameyA2CmFWC', 
                       '_$s8Morpheus0A5ErrorO22invalidArgsForEvaluateyA2CmFWC', '_$s8Morpheus0A5ErrorO22invalidArgsForUpsampleyA2CmFWC', 
                       '_$s8Morpheus0A5ErrorO22invalidLoggingArgumentyA2CmFWC', '_$s8Morpheus0A5ErrorO22mmapFileCreationFailedyA2CmFWC', 
                       '_$s8Morpheus0A5ErrorO22moduleResolverNotFoundyA2CmFWC', '_$s8Morpheus0A5ErrorO22notSupportedComparisonyA2CmFWC', 
                       '_$s8Morpheus0A5ErrorO22unaryWhereNotSupportedyA2CmFWC', '_$s8Morpheus0A5ErrorO23builtInClassNotCallableyA2CmFWC', 
                       '_$s8Morpheus0A5ErrorO23failedToGetArrayPointeryA2CmFWC', 
                       '_$s8Morpheus0A5ErrorO23invalidArgForComparisonyA2CmFWC', 
                       '_$s8Morpheus0A5ErrorO23invalidArgForIsInstanceyA2CmFWC', 
                       '_$s8Morpheus0A5ErrorO23invalidArgForLinalgNormyA2CmFWC', 
                       '_$s8Morpheus0A5ErrorO23invalidArgForNPIndexingyA2CmFWC', 
                       '_$s8Morpheus0A5ErrorO23invalidArgForNPLinspaceyA2CmFWC', 
                       '_$s8Morpheus0A5ErrorO23invalidArgForPercentileyA2CmFWC', 
                       '_$s8Morpheus0A5ErrorO23invalidArgForSetDiscardyA2CmFWC', 
                       '_$s8Morpheus0A5ErrorO23invalidArgForStringJoinyA2CmFWC', 
                       '_$s8Morpheus0A5ErrorO23invalidPercentileNumberyA2CmFWC', 
                       '_$s8Morpheus0A5ErrorO23nativeEnumIsNotCallableyA2CmFWC', 
                       '_$s8Morpheus0A5ErrorO23underlyingTaskCancelledyA2CmFWC', 
                       '_$s8Morpheus0A5ErrorO24arrayContainsNonNSNumberyA2CmFWC', 
                       '_$s8Morpheus0A5ErrorO24frameStoreExpectKeyIsIntyA2CmFWC', 
                       '_$s8Morpheus0A5ErrorO24invalidArgForArrayAppendyA2CmFWC', 
                       '_$s8Morpheus0A5ErrorO24invalidArgForDatetimeAddyA2CmFWC', 
                       '_$s8Morpheus0A5ErrorO24invalidArgForDatetimeSubyA2CmFWC', 
                       '_$s8Morpheus0A5ErrorO24invalidArgForNPAtLeastNDyA2CmFWC', 
                       '_$s8Morpheus0A5ErrorO24invalidArgsForMLXTraineryA2CmFWC', 
                       '_$s8Morpheus0A5ErrorO24invalidConstantValueTypeyA2CmFWC', 
                       '_$s8Morpheus0A5ErrorO24moduleContextDeallocatedyA2CmFWC', 
                       '_$s8Morpheus0A5ErrorO24morePositionalArgsPassedyA2CmFWC', 
                       '_$s8Morpheus0A5ErrorO25callOnDeallocatedFunctionyA2CmFWC', 
                       '_$s8Morpheus0A5ErrorO25invalidArgForDatetimeCtoryA2CmFWC', 
                       '_$s8Morpheus0A5ErrorO25invalidArgForJulianDayAddyA2CmFWC', 
                       '_$s8Morpheus0A5ErrorO25invalidArgForJulianDaySubyA2CmFWC', 
                       '_$s8Morpheus0A5ErrorO25invalidArgForNPExpandDimsyA2CmFWC', 
                       '_$s8Morpheus0A5ErrorO25invalidArgForNPRandomSeedyA2CmFWC', 
                       '_$s8Morpheus0A5ErrorO25invalidArgForTimedeltaAddyA2CmFWC', 
                       '_$s8Morpheus0A5ErrorO25invalidArgForTimedeltaSubyA2CmFWC', 
                       '_$s8Morpheus0A5ErrorO25invalidComparisonOperatoryA2CmFWC', 
                       '_$s8Morpheus0A5ErrorO25invalidTupleDecompositionyA2CmFWC', 
                       '_$s8Morpheus0A5ErrorO26invalidArgForBaseExceptionyA2CmFWC', 
                       '_$s8Morpheus0A5ErrorO26invalidArgForDictSubscriptyA2CmFWC', 
                       '_$s8Morpheus0A5ErrorO26invalidArgForNPBroadcastToyA2CmFWC', 
                       '_$s8Morpheus0A5ErrorO26invalidArgForNPConcatenateyA2CmFWC', 
                       '_$s8Morpheus0A5ErrorO26invalidArgForSetDifferenceyA2CmFWC', 
                       '_$s8Morpheus0A5ErrorO26invalidArgForStringReplaceyA2CmFWC', 
                       '_$s8Morpheus0A5ErrorO26missingRequiredKeywordArgsyA2CmFWC', 
                       '_$s8Morpheus0A5ErrorO26nativeDictionaryNotMutableyA2CmFWC', 
                       '_$s8Morpheus0A5ErrorO26notMonotonicallyIncreasingyA2CmFWC', 
                       '_$s8Morpheus0A5ErrorO27filterFuncDoesNotReturnBoolyA2CmFWC', 
                       '_$s8Morpheus0A5ErrorO27invalidArgForAbstractMethodyA2CmFWC', 
                       '_$s8Morpheus0A5ErrorO27invalidArgForArraySubscriptyA2CmFWC', 
                       '_$s8Morpheus0A5ErrorO27invalidArgForNPSearchsortedyA2CmFWC', 
                       '_$s8Morpheus0A5ErrorO27invalidArgForTupleSubscriptyA2CmFWC', 
                       '_$s8Morpheus0A5ErrorO27invalidArgForUUID5NamespaceyA2CmFWC', 
                       '_$s8Morpheus0A5ErrorO27nestedEventLoopNotSupportedyA2CmFWC', 
                       '_$s8Morpheus0A5ErrorO28failedToConvertFromDSLToDatayA2CmFWC', 
                       '_$s8Morpheus0A5ErrorO28innerDescriptorIsNotCallableyA2CmFWC', 
                       '_$s8Morpheus0A5ErrorO28invalidArgForDateSubtractionyA2CmFWC', 
                       '_$s8Morpheus0A5ErrorO28invalidArgForFormatSpecifieryA2CmFWC', 
                       '_$s8Morpheus0A5ErrorO28invalidArgForSetIntersectionyA2CmFWC', 
                       '_$s8Morpheus0A5ErrorO28invalidArgForStringSubscriptyA2CmFWC', 
                       '_$s8Morpheus0A5ErrorO29invalidArgForDatetimeDateCtoryA2CmFWC', 
                       '_$s8Morpheus0A5ErrorO29invalidArgForDatetimeStrftimeyA2CmFWC', 
                       '_$s8Morpheus0A5ErrorO29invalidArgForDatetimeStrptimeyA2CmFWC', 
                       '_$s8Morpheus0A5ErrorO29invalidComprehensionGeneratoryA2CmFWC', 
                       '_$s8Morpheus0A5ErrorO30checkpointShapeOrDTypeMismatchyA2CmFWC', 
                       '_$s8Morpheus0A5ErrorO30invalidPythonStyleStringFormatyA2CmFWC', 
                       '_$s8Morpheus0A5ErrorO31freeVarShouldNotBeAtModuleLevelyA2CmFWC', 
                       '_$s8Morpheus0A5ErrorO31invalidArgForDatetimeAddSecondsyA2CmFWC', 
                       '_$s8Morpheus0A5ErrorO31invalidArgForDatetimeAstimezoneyA2CmFWC', 
                       '_$s8Morpheus0A5ErrorO31invalidArgsForNNEvalHyperParamsyA2CmFWC', 
                       '_$s8Morpheus0A5ErrorO31invalidArgsForNumpyArraysLoaderyA2CmFWC', 
                       '_$s8Morpheus0A5ErrorO31invalidArgsForSafeTensorsLoaderyA2CmFWC', 
                       '_$s8Morpheus0A5ErrorO32invalidArgForJulianDayToDatetimeyA2CmFWC', 
                       '_$s8Morpheus0A5ErrorO32invalidArgsForGetModelDifferenceyA2CmFWC', 
                       '_$s8Morpheus0A5ErrorO32invalidArgsForMLXCheckpointsTypeyA2CmFWC', 
                       '_$s8Morpheus0A5ErrorO32invalidArgsForNNTrainHyperParamsyA2CmFWC', 
                       '_$s8Morpheus0A5ErrorO33getNotDefinedInPropertyDescriptoryA2CmFWC', 
                       '_$s8Morpheus0A5ErrorO33mismatchedOperatorsAndComparatorsyA2CmFWC', 
                       '_$s8Morpheus0A5ErrorO34invalidArgForDatetimeFromIsoformatyA2CmFWC', 
                       '_$s8Morpheus0A5ErrorO34invalidArgForDatetimeFromTimestampyA2CmFWC', 
                       '_$s8Morpheus0A5ErrorO34invalidArgForTimedeltaTotalSecondsyA2CmFWC', 
                       '_$s8Morpheus0A5ErrorO34invalidArgsForSequentialMLXTraineryA2CmFWC', 
                       '_$s8Morpheus0A5ErrorO35invalidGetTypeForPropertyDescriptoryA2CmFWC', 
                       '_$s8Morpheus0A5ErrorO37invalidArgsForCombinedMLXArraysLoaderyA2CmFWC', 
                       '_$s8Morpheus0A5ErrorO38invalidArgForDatetimeDateFromTimestampyA2CmFWC', 
                       '_$s8Morpheus0A5ErrorO39invalidArgsForEnumeratedShapeMLXTraineryA2CmFWC', 
                       '_$s8Morpheus0A5ErrorO39invalidArgsForFunctionalMLXArraysLoaderyA2CmFWC', 
                       '_$s8Morpheus0A5ErrorO40multiDimensionalPercentileNotImplementedyA2CmFWC', 
                       '_$s8Morpheus0A5ErrorO7notBoolyA2CmFWC', '_$s8Morpheus0A5ErrorO8allCasesSayACGvgZ', 
                       '_$s8Morpheus0A5ErrorO8allCasesSayACGvpZMV', '_$s8Morpheus0A5ErrorO8rawValueACSgSi_tcfC', 
                       '_$s8Morpheus0A5ErrorO8rawValueSivg', '_$s8Morpheus0A5ErrorO8rawValueSivpMV', 
                       '_$s8Morpheus0A5ErrorO9__class__AA7PyClass_pvg', '_$s8Morpheus0A5ErrorO9__class__AA7PyClass_pvpMV', 
                       '_$s8Morpheus0A5ErrorOAA8PyObjectAAMc', '_$s8Morpheus0A5ErrorOAA8PyObjectAAWP', 
                       '_$s8Morpheus0A5ErrorOMa', '_$s8Morpheus0A5ErrorOMn', '_$s8Morpheus0A5ErrorON', 
                       '_$s8Morpheus0A5ErrorOSHAAMc', '_$s8Morpheus0A5ErrorOSQAAMc', 
                       '_$s8Morpheus0A5ErrorOSYAAMc', '_$s8Morpheus0A5ErrorOs0B0AAMc', 
                       '_$s8Morpheus0A5ErrorOs12CaseIterableAAMc', '_$s8Morpheus0A5UtilsO06unwrapA6Result6resultypyp_tFZ', 
                       '_$s8Morpheus0A5UtilsO10toMLTensor8mlxArray6CoreML0D0VAA9MLXTensor_p_tKFZ', 
                       '_$s8Morpheus0A5UtilsO10toMLXArray8mlTensorAA9MLXTensor_p6CoreML8MLTensorV_tYaKFZ', 
                       '_$s8Morpheus0A5UtilsO10toMLXArray8mlTensorAA9MLXTensor_p6CoreML8MLTensorV_tYaKFZTu', 
                       '_$s8Morpheus0A5UtilsO10totalCount4fromSiSaySiG_tFZ', '_$s8Morpheus0A5UtilsO11isIdenticalySbyp_yptFZ', 
                       '_$s8Morpheus0A5UtilsO14performAndWait4workxxyYaKc_tKlFZ', 
                       '_$s8Morpheus0A5UtilsO19flattenNumericArrayySaySo8NSNumberCGypKFZ', 
                       '_$s8Morpheus0A5UtilsO19flattenNumericArrayySaySo8NSNumberCGyp_SitKFZ', 
                       '_$s8Morpheus0A5UtilsO5isNilySbypFZ', '_$s8Morpheus0A5UtilsO6unwrapyypxlFZ', 
                       '_$s8Morpheus0A5UtilsO7getType2ofAA07NumericD0Oyp_tKFZ', '_$s8Morpheus0A5UtilsO7isEqual1x1ySbyp_yptFZ', 
                       '_$s8Morpheus0A5UtilsO7swiftfyyypypFZ', '_$s8Morpheus0A5UtilsO8getShapeySaySiGypKFZ', 
                       '_$s8Morpheus0A5UtilsOMa', '_$s8Morpheus0A5UtilsOMn', '_$s8Morpheus0A5UtilsON', 
                       '_$s8Morpheus0A7ProgramC05emptyB0ACyKFZ', '_$s8Morpheus0A7ProgramC11descriptionSSvgTj', 
                       '_$s8Morpheus0A7ProgramC11descriptionSSvgTq', '_$s8Morpheus0A7ProgramC11descriptionSSvpMV', 
                       '_$s8Morpheus0A7ProgramC12executeAsync4args8keywords8functionypSgSayypG_SDySSypGSStYaKFTj', 
                       '_$s8Morpheus0A7ProgramC12executeAsync4args8keywords8functionypSgSayypG_SDySSypGSStYaKFTjTu', 
                       '_$s8Morpheus0A7ProgramC12executeAsync4args8keywords8functionypSgSayypG_SDySSypGSStYaKFTq', 
                       '_$s8Morpheus0A7ProgramC12executeAsync4args8keywordsypSgSayypG_SDySSypGtYaKFTj', 
                       '_$s8Morpheus0A7ProgramC12executeAsync4args8keywordsypSgSayypG_SDySSypGtYaKFTjTu', 
                       '_$s8Morpheus0A7ProgramC12executeAsync4args8keywordsypSgSayypG_SDySSypGtYaKFTq', 
                       '_$s8Morpheus0A7ProgramC12fromDSLProtoyAC10Foundation4DataVKFZ', 
                       '_$s8Morpheus0A7ProgramC14registerModule4name10attributesySS_SDySSypGtKFZ', 
                       '_$s8Morpheus0A7ProgramC16registerFunction4name1fySS_AA0D0CtKFZ', 
                       '_$s8Morpheus0A7ProgramC18registerNativeEnum_6moduleyAA0E10TypeBridgeCyxG_SStKAA8PyObjectRzlFZ', 
                       '_$s8Morpheus0A7ProgramC19registerNativeError_4with6module5casesyxm_SSSgSSSDySSxGtKs0E0RzlFZ', 
                       '_$s8Morpheus0A7ProgramC19registerNativeError_4with6moduleyxm_SSSgSStKs12CaseIterableRzs0E0RzlFZ', 
                       '_$s8Morpheus0A7ProgramC19registerNativeError_6moduleyAA0E10TypeBridgeCyxG_SStKAA8PyObjectRzs0E0RzlFZ', 
                       '_$s8Morpheus0A7ProgramC26collectExecutionStatisticsSDySSypGyFTj', 
                       '_$s8Morpheus0A7ProgramC26collectExecutionStatisticsSDySSypGyFTq', 
                       '_$s8Morpheus0A7ProgramC4fromACs7Decoder_p_tKcfC', '_$s8Morpheus0A7ProgramC4fromACs7Decoder_p_tKcfCTj', 
                       '_$s8Morpheus0A7ProgramC4fromACs7Decoder_p_tKcfCTq', '_$s8Morpheus0A7ProgramC4fromACs7Decoder_p_tKcfc', 
                       '_$s8Morpheus0A7ProgramC7execute4args8keywords8functionypSgSayypG_SDySSypGSStKFTj', 
                       '_$s8Morpheus0A7ProgramC7execute4args8keywords8functionypSgSayypG_SDySSypGSStKFTq', 
                       '_$s8Morpheus0A7ProgramC7execute4args8keywordsypSgSayypG_SDySSypGtKFTj', 
                       '_$s8Morpheus0A7ProgramC7execute4args8keywordsypSgSayypG_SDySSypGtKFTq', 
                       '_$s8Morpheus0A7ProgramC7fromDSLyACSSKFZ', '_$s8Morpheus0A7ProgramCMa', 
                       '_$s8Morpheus0A7ProgramCMm', '_$s8Morpheus0A7ProgramCMn', 
                       '_$s8Morpheus0A7ProgramCMo', '_$s8Morpheus0A7ProgramCMu', 
                       '_$s8Morpheus0A7ProgramCN', '_$s8Morpheus0A7ProgramCSeAAMc', 
                       '_$s8Morpheus0A7ProgramCfD', '_$s8Morpheus0A7ProgramCfd', 
                       '_$s8Morpheus0A7ProgramCs23CustomStringConvertibleAAMc', '_$s8Morpheus10MLXTrainerC12evalFunctionAA11MLXFunctionVvg', 
                       '_$s8Morpheus10MLXTrainerC12evalFunctionAA11MLXFunctionVvpMV', 
                       '_$s8Morpheus10MLXTrainerC13trainFunction04evalD022trainableWeightsLoaderAcA11MLXFunctionV_AhA09MLXArraysH0_ptYaKcfC', 
                       '_$s8Morpheus10MLXTrainerC13trainFunction04evalD022trainableWeightsLoaderAcA11MLXFunctionV_AhA09MLXArraysH0_ptYaKcfCTj', 
                       '_$s8Morpheus10MLXTrainerC13trainFunction04evalD022trainableWeightsLoaderAcA11MLXFunctionV_AhA09MLXArraysH0_ptYaKcfCTjTu', 
                       '_$s8Morpheus10MLXTrainerC13trainFunction04evalD022trainableWeightsLoaderAcA11MLXFunctionV_AhA09MLXArraysH0_ptYaKcfCTq', 
                       '_$s8Morpheus10MLXTrainerC13trainFunction04evalD022trainableWeightsLoaderAcA11MLXFunctionV_AhA09MLXArraysH0_ptYaKcfCTu', 
                       '_$s8Morpheus10MLXTrainerC13trainFunction04evalD022trainableWeightsLoaderAcA11MLXFunctionV_AhA09MLXArraysH0_ptYaKcfc', 
                       '_$s8Morpheus10MLXTrainerC13trainFunction04evalD022trainableWeightsLoaderAcA11MLXFunctionV_AhA09MLXArraysH0_ptYaKcfcTu', 
                       '_$s8Morpheus10MLXTrainerC13trainFunctionAA11MLXFunctionVvg', 
                       '_$s8Morpheus10MLXTrainerC13trainFunctionAA11MLXFunctionVvpMV', 
                       '_$s8Morpheus10MLXTrainerC8modelDirAC10Foundation3URLV_tYaKcfC', 
                       '_$s8Morpheus10MLXTrainerC8modelDirAC10Foundation3URLV_tYaKcfCTu', 
                       '_$s8Morpheus10MLXTrainerC9attribute3forypSgSS_tF', '_$s8Morpheus10MLXTrainerCAA12AttributableAAMc', 
                       '_$s8Morpheus10MLXTrainerCAA12AttributableAAWP', '_$s8Morpheus10MLXTrainerCMa', 
                       '_$s8Morpheus10MLXTrainerCMm', '_$s8Morpheus10MLXTrainerCMn', 
                       '_$s8Morpheus10MLXTrainerCMo', '_$s8Morpheus10MLXTrainerCMu', 
                       '_$s8Morpheus10MLXTrainerCN', '_$s8Morpheus10MLXTrainerCfD', 
                       '_$s8Morpheus10MLXTrainerCfd', '_$s8Morpheus10PyDateTimeV3addyypypKF', 
                       '_$s8Morpheus10PyDateTimeV3has9attributeSbSS_tF', '_$s8Morpheus10PyDateTimeV4date10Foundation0C0Vvg', 
                       '_$s8Morpheus10PyDateTimeV4date10Foundation0C0VvpMV', '_$s8Morpheus10PyDateTimeV4date8timeZoneAC10Foundation0C0V_AF0dG0VtcfC', 
                       '_$s8Morpheus10PyDateTimeV8subtractyypypKF', '_$s8Morpheus10PyDateTimeV8timeZone10Foundation0dF0Vvg', 
                       '_$s8Morpheus10PyDateTimeV8timeZone10Foundation0dF0VvpMV', 
                       '_$s8Morpheus10PyDateTimeV9attribute3forypSgSS_tF', '_$s8Morpheus10PyDateTimeVAA03AnyC0AAMc', 
                       '_$s8Morpheus10PyDateTimeVAA03AnyC0AAWP', '_$s8Morpheus10PyDateTimeVAA12AttributableAAMc', 
                       '_$s8Morpheus10PyDateTimeVAA12AttributableAAWP', '_$s8Morpheus10PyDateTimeVAA12SubtractableAAMc', 
                       '_$s8Morpheus10PyDateTimeVAA12SubtractableAAWP', '_$s8Morpheus10PyDateTimeVAA8SummableAAMc', 
                       '_$s8Morpheus10PyDateTimeVAA8SummableAAWP', '_$s8Morpheus10PyDateTimeVMa', 
                       '_$s8Morpheus10PyDateTimeVMn', '_$s8Morpheus10PyDateTimeVN', 
                       '_$s8Morpheus10PyFunctionC4name9arguments5attrs4bodyACSS_AA9ArgumentsVSDySSypGypSgAJKcSgtcfC', 
                       '_$s8Morpheus10PyFunctionC4name9arguments5attrs4bodyACSS_AA9ArgumentsVSDySSypGypSgAJKcSgtcfc', 
                       '_$s8Morpheus10PyFunctionC4name9arguments5attrs4bodyACSS_AA9ArgumentsVSDySSypGypSgAJYaKcSgtcfC', 
                       '_$s8Morpheus10PyFunctionC4name9arguments5attrs4bodyACSS_AA9ArgumentsVSDySSypGypSgAJYaKcSgtcfc', 
                       '_$s8Morpheus10PyFunctionC9__class__AA0B5Class_pvgTj', '_$s8Morpheus10PyFunctionC9__class__AA0B5Class_pvgTq', 
                       '_$s8Morpheus10PyFunctionC9__class__AA0B5Class_pvpMV', '_$s8Morpheus10PyFunctionCAA0B6ObjectAAMc', 
                       '_$s8Morpheus10PyFunctionCAA0B6ObjectAAWP', '_$s8Morpheus10PyFunctionCMa', 
                       '_$s8Morpheus10PyFunctionCMm', '_$s8Morpheus10PyFunctionCMn', 
                       '_$s8Morpheus10PyFunctionCMo', '_$s8Morpheus10PyFunctionCMu', 
                       '_$s8Morpheus10PyFunctionCN', '_$s8Morpheus10PyFunctionCfD', 
                       '_$s8Morpheus10PyFunctionCfd', '_$s8Morpheus10PyInstanceC3has9attributeSbSS_tFTj', 
                       '_$s8Morpheus10PyInstanceC3has9attributeSbSS_tFTq', '_$s8Morpheus10PyInstanceC5store3key3obj4kindyyp_ypAA15NameBindingKindOtKFTj', 
                       '_$s8Morpheus10PyInstanceC5store3key3obj4kindyyp_ypAA15NameBindingKindOtKFTq', 
                       '_$s8Morpheus10PyInstanceC7contextAA14LexicalContextCvg', 
                       '_$s8Morpheus10PyInstanceC7contextAA14LexicalContextCvpMV', 
                       '_$s8Morpheus10PyInstanceC7pyClassAcA0bE0_p_tcfC', '_$s8Morpheus10PyInstanceC7pyClassAcA0bE0_p_tcfCTj', 
                       '_$s8Morpheus10PyInstanceC7pyClassAcA0bE0_p_tcfCTq', '_$s8Morpheus10PyInstanceC7pyClassAcA0bE0_p_tcfc', 
                       '_$s8Morpheus10PyInstanceC9__class__AA0B5Class_pvg', '_$s8Morpheus10PyInstanceC9__class__AA0B5Class_pvpMV', 
                       '_$s8Morpheus10PyInstanceC9attribute3forypSgSS_tFTj', '_$s8Morpheus10PyInstanceC9attribute3forypSgSS_tFTq', 
                       '_$s8Morpheus10PyInstanceCAA0B6ObjectAAMc', '_$s8Morpheus10PyInstanceCAA0B6ObjectAAWP', 
                       '_$s8Morpheus10PyInstanceCAA12AttributableAAMc', '_$s8Morpheus10PyInstanceCAA12AttributableAAWP', 
                       '_$s8Morpheus10PyInstanceCAA8StorableAAMc', '_$s8Morpheus10PyInstanceCAA8StorableAAWP', 
                       '_$s8Morpheus10PyInstanceCMa', '_$s8Morpheus10PyInstanceCMm', 
                       '_$s8Morpheus10PyInstanceCMn', '_$s8Morpheus10PyInstanceCMo', 
                       '_$s8Morpheus10PyInstanceCMu', '_$s8Morpheus10PyInstanceCN', 
                       '_$s8Morpheus10PyInstanceCfD', '_$s8Morpheus10PyInstanceCfd', 
                       '_$s8Morpheus10SliceIndexMp', '_$s8Morpheus10SliceIndexP5values5Int32VyFTj', 
                       '_$s8Morpheus10SliceIndexP5values5Int32VyFTq', '_$s8Morpheus10SliceIndexTL', 
                       '_$s8Morpheus10TruthinessMp', '_$s8Morpheus10TruthinessP8isTruthySbvgTj', 
                       '_$s8Morpheus10TruthinessP8isTruthySbvgTq', '_$s8Morpheus10TruthinessPAASjRzrlE8isTruthySbvg', 
                       '_$s8Morpheus10TruthinessPAASjRzrlE8isTruthySbvpMV', '_$s8Morpheus10TruthinessTL', 
                       '_$s8Morpheus11MLXFunctionV4fromACs7Decoder_p_tKcfC', '_$s8Morpheus11MLXFunctionV4load11functionDiry10Foundation3URLV_tKF', 
                       '_$s8Morpheus11MLXFunctionV4load12functionPathy10Foundation3URLV_tKF', 
                       '_$s8Morpheus11MLXFunctionV4nameSSvg', '_$s8Morpheus11MLXFunctionV4nameSSvpMV', 
                       '_$s8Morpheus11MLXFunctionV6encode2toys7Encoder_p_tKF', '_$s8Morpheus11MLXFunctionV6inputsSayAA11MLXVariableVGvg', 
                       '_$s8Morpheus11MLXFunctionV6inputsSayAA11MLXVariableVGvpMV', 
                       '_$s8Morpheus11MLXFunctionV7execute_24shouldMaterializeOutputs13clearGPUCacheSDySS6CoreML8MLTensorVGAJ_S2btYaKF', 
                       '_$s8Morpheus11MLXFunctionV7execute_24shouldMaterializeOutputs13clearGPUCacheSDySS6CoreML8MLTensorVGAJ_S2btYaKFTu', 
                       '_$s8Morpheus11MLXFunctionV7outputsSayAA11MLXVariableVGvg', 
                       '_$s8Morpheus11MLXFunctionV7outputsSayAA11MLXVariableVGvpMV', 
                       '_$s8Morpheus11MLXFunctionV8fromJSONyAC10Foundation3URLVKFZ', 
                       '_$s8Morpheus11MLXFunctionV8fromJSONySayACG10Foundation3URLVKFZ', 
                       '_$s8Morpheus11MLXFunctionV9shapelessSbvg', '_$s8Morpheus11MLXFunctionV9shapelessSbvpMV', 
                       '_$s8Morpheus11MLXFunctionVMa', '_$s8Morpheus11MLXFunctionVMn', 
                       '_$s8Morpheus11MLXFunctionVN', '_$s8Morpheus11MLXFunctionVSEAAMc', 
                       '_$s8Morpheus11MLXFunctionVSeAAMc', '_$s8Morpheus11MLXTrainingO06extendA0yyKFZ', 
                       '_$s8Morpheus11MLXTrainingOMa', '_$s8Morpheus11MLXTrainingOMn', 
                       '_$s8Morpheus11MLXTrainingON', '_$s8Morpheus11MLXVariableV2eeoiySbAC_ACtFZ', 
                       '_$s8Morpheus11MLXVariableV4fromACs7Decoder_p_tKcfC', '_$s8Morpheus11MLXVariableV4nameSSvg', 
                       '_$s8Morpheus11MLXVariableV4nameSSvpMV', '_$s8Morpheus11MLXVariableV5shapeSaySiGvg', 
                       '_$s8Morpheus11MLXVariableV5shapeSaySiGvpMV', '_$s8Morpheus11MLXVariableV6encode2toys7Encoder_p_tKF', 
                       '_$s8Morpheus11MLXVariableVMa', '_$s8Morpheus11MLXVariableVMn', 
                       '_$s8Morpheus11MLXVariableVN', '_$s8Morpheus11MLXVariableVSEAAMc', 
                       '_$s8Morpheus11MLXVariableVSQAAMc', '_$s8Morpheus11MLXVariableVSeAAMc', 
                       '_$s8Morpheus11NumericTypeO1loiySbAC_ACtFZ', '_$s8Morpheus11NumericTypeO2eeoiySbAC_ACtFZ', 
                       '_$s8Morpheus11NumericTypeO4boolyA2CmFWC', '_$s8Morpheus11NumericTypeO4hash4intoys6HasherVz_tF', 
                       '_$s8Morpheus11NumericTypeO4int8yA2CmFWC', '_$s8Morpheus11NumericTypeO5int16yA2CmFWC', 
                       '_$s8Morpheus11NumericTypeO5int32yA2CmFWC', '_$s8Morpheus11NumericTypeO5int64yA2CmFWC', 
                       '_$s8Morpheus11NumericTypeO5uint8yA2CmFWC', '_$s8Morpheus11NumericTypeO6uint16yA2CmFWC', 
                       '_$s8Morpheus11NumericTypeO6uint32yA2CmFWC', '_$s8Morpheus11NumericTypeO6uint64yA2CmFWC', 
                       '_$s8Morpheus11NumericTypeO7float16yA2CmFWC', '_$s8Morpheus11NumericTypeO7float32yA2CmFWC', 
                       '_$s8Morpheus11NumericTypeO7float64yA2CmFWC', '_$s8Morpheus11NumericTypeO8allCasesSayACGvgZ', 
                       '_$s8Morpheus11NumericTypeO8allCasesSayACGvpZMV', '_$s8Morpheus11NumericTypeO9hashValueSivg', 
                       '_$s8Morpheus11NumericTypeO9hashValueSivpMV', '_$s8Morpheus11NumericTypeOMa', 
                       '_$s8Morpheus11NumericTypeOMn', '_$s8Morpheus11NumericTypeON', 
                       '_$s8Morpheus11NumericTypeOSHAAMc', '_$s8Morpheus11NumericTypeOSLAAMc', 
                       '_$s8Morpheus11NumericTypeOSQAAMc', '_$s8Morpheus11NumericTypeOs12CaseIterableAAMc', 
                       '_$s8Morpheus11PyAwaitableMp', '_$s8Morpheus11PyAwaitableP4waitypyYaKFTj', 
                       '_$s8Morpheus11PyAwaitableP4waitypyYaKFTjTu', '_$s8Morpheus11PyAwaitableP4waitypyYaKFTq', 
                       '_$s8Morpheus11PyAwaitablePAA0B6ObjectTb', '_$s8Morpheus11PyAwaitableTL', 
                       '_$s8Morpheus11SliceStructV2eeoiySbAC_ACtFZ', '_$s8Morpheus11SliceStructV9__class__AA7PyClass_pvg', 
                       '_$s8Morpheus11SliceStructV9__class__AA7PyClass_pvpMV', '_$s8Morpheus11SliceStructVAA8PyObjectAAMc', 
                       '_$s8Morpheus11SliceStructVAA8PyObjectAAWP', '_$s8Morpheus11SliceStructVMa', 
                       '_$s8Morpheus11SliceStructVMn', '_$s8Morpheus11SliceStructVN', 
                       '_$s8Morpheus11SliceStructVSQAAMc', '_$s8Morpheus12AttributableMp', 
                       '_$s8Morpheus12AttributableP3has9attributeSbSS_tFTj', '_$s8Morpheus12AttributableP3has9attributeSbSS_tFTq', 
                       '_$s8Morpheus12AttributableP9attribute3forypSgSS_tFTj', '_$s8Morpheus12AttributableP9attribute3forypSgSS_tFTq', 
                       '_$s8Morpheus12AttributablePAAE15customAttribute3for_ypSgSS_xtFZ', 
                       '_$s8Morpheus12AttributablePAAE19hasCustomAttributes9attributeSbSS_tFZ', 
                       '_$s8Morpheus12AttributablePAAE8register9attribute7handlerySS_ypSgxctFZ', 
                       '_$s8Morpheus12AttributableTL', '_$s8Morpheus12MSyncOptionsV10deactivateACvgZ', 
                       '_$s8Morpheus12MSyncOptionsV10deactivateACvpZMV', '_$s8Morpheus12MSyncOptionsV10invalidateACvgZ', 
                       '_$s8Morpheus12MSyncOptionsV10invalidateACvpZMV', '_$s8Morpheus12MSyncOptionsV4syncACvgZ', 
                       '_$s8Morpheus12MSyncOptionsV4syncACvpZMV', '_$s8Morpheus12MSyncOptionsV5asyncACvgZ', 
                       '_$s8Morpheus12MSyncOptionsV5asyncACvpZMV', '_$s8Morpheus12MSyncOptionsV8rawValueACs5Int32V_tcfC', 
                       '_$s8Morpheus12MSyncOptionsV8rawValues5Int32Vvg', '_$s8Morpheus12MSyncOptionsV8rawValues5Int32VvpMV', 
                       '_$s8Morpheus12MSyncOptionsV9killpagesACvgZ', '_$s8Morpheus12MSyncOptionsV9killpagesACvpZMV', 
                       '_$s8Morpheus12MSyncOptionsVMa', '_$s8Morpheus12MSyncOptionsVMn', 
                       '_$s8Morpheus12MSyncOptionsVN', '_$s8Morpheus12MSyncOptionsVSQAAMc', 
                       '_$s8Morpheus12MSyncOptionsVSYAAMc', '_$s8Morpheus12MSyncOptionsVs10SetAlgebraAAMc', 
                       '_$s8Morpheus12MSyncOptionsVs25ExpressibleByArrayLiteralAAMc', 
                       '_$s8Morpheus12MSyncOptionsVs9OptionSetAAMc', '_$s8Morpheus12SubtractableMp', 
                       '_$s8Morpheus12SubtractableP8subtractyypypKFTj', '_$s8Morpheus12SubtractableP8subtractyypypKFTq', 
                       '_$s8Morpheus12SubtractableTL', '_$s8Morpheus13AsyncFunctionC3has9attributeSbSS_tFTj', 
                       '_$s8Morpheus13AsyncFunctionC3has9attributeSbSS_tFTq', '_$s8Morpheus13AsyncFunctionC4call4args8keywordsypSayypG_SDySSypGtYaKFTj', 
                       '_$s8Morpheus13AsyncFunctionC4call4args8keywordsypSayypG_SDySSypGtYaKFTjTu', 
                       '_$s8Morpheus13AsyncFunctionC4call4args8keywordsypSayypG_SDySSypGtYaKFTq', 
                       '_$s8Morpheus13AsyncFunctionC4nameSSvgTj', '_$s8Morpheus13AsyncFunctionC4nameSSvgTq', 
                       '_$s8Morpheus13AsyncFunctionC4nameSSvpMV', '_$s8Morpheus13AsyncFunctionC5store3key3obj4kindyyp_ypAA15NameBindingKindOtFTj', 
                       '_$s8Morpheus13AsyncFunctionC5store3key3obj4kindyyp_ypAA15NameBindingKindOtFTq', 
                       '_$s8Morpheus13AsyncFunctionC9attribute3forypSgSS_tFTj', '_$s8Morpheus13AsyncFunctionC9attribute3forypSgSS_tFTq', 
                       '_$s8Morpheus13AsyncFunctionCAA12AttributableAAMc', '_$s8Morpheus13AsyncFunctionCAA12AttributableAAWP', 
                       '_$s8Morpheus13AsyncFunctionCAA8CallableAAMc', '_$s8Morpheus13AsyncFunctionCAA8CallableAAWP', 
                       '_$s8Morpheus13AsyncFunctionCAA8StorableAAMc', '_$s8Morpheus13AsyncFunctionCAA8StorableAAWP', 
                       '_$s8Morpheus13AsyncFunctionCMa', '_$s8Morpheus13AsyncFunctionCMm', 
                       '_$s8Morpheus13AsyncFunctionCMn', '_$s8Morpheus13AsyncFunctionCMo', 
                       '_$s8Morpheus13AsyncFunctionCMu', '_$s8Morpheus13AsyncFunctionCN', 
                       '_$s8Morpheus13AsyncFunctionCfD', '_$s8Morpheus13AsyncFunctionCfd', 
                       '_$s8Morpheus13AsyncFunctionCyAcA0C0CcfC', '_$s8Morpheus13AsyncFunctionCyAcA0C0CcfCTj', 
                       '_$s8Morpheus13AsyncFunctionCyAcA0C0CcfCTq', '_$s8Morpheus13AsyncFunctionCyAcA0C0Ccfc', 
                       '_$s8Morpheus13ExponentiableMp', '_$s8Morpheus13ExponentiableP3powyypypKFTj', 
                       '_$s8Morpheus13ExponentiableP3powyypypKFTq', '_$s8Morpheus13ExponentiableTL', 
                       '_$s8Morpheus13MultiplicableMp', '_$s8Morpheus13MultiplicableP3mulyypypKFTj', 
                       '_$s8Morpheus13MultiplicableP3mulyypypKFTq', '_$s8Morpheus13MultiplicableTL', 
                       '_$s8Morpheus13OptimizerTypeO3sgdyA2CmFWC', '_$s8Morpheus13OptimizerTypeO8rawValueACSgSS_tcfC', 
                       '_$s8Morpheus13OptimizerTypeO8rawValueSSvg', '_$s8Morpheus13OptimizerTypeO8rawValueSSvpMV', 
                       '_$s8Morpheus13OptimizerTypeOMa', '_$s8Morpheus13OptimizerTypeOMn', 
                       '_$s8Morpheus13OptimizerTypeON', '_$s8Morpheus13OptimizerTypeOSEAAMc', 
                       '_$s8Morpheus13OptimizerTypeOSHAAMc', '_$s8Morpheus13OptimizerTypeOSQAAMc', 
                       '_$s8Morpheus13OptimizerTypeOSYAAMc', '_$s8Morpheus13OptimizerTypeOSeAAMc', 
                       '_$s8Morpheus13PyClassMethodC4call4args8keywordsypSayypG_SDySSypGtYaKFTj', 
                       '_$s8Morpheus13PyClassMethodC4call4args8keywordsypSayypG_SDySSypGtYaKFTjTu', 
                       '_$s8Morpheus13PyClassMethodC4call4args8keywordsypSayypG_SDySSypGtYaKFTq', 
                       '_$s8Morpheus13PyClassMethodC4nameSSvgTj', '_$s8Morpheus13PyClassMethodC4nameSSvgTq', 
                       '_$s8Morpheus13PyClassMethodC4nameSSvpMV', '_$s8Morpheus13PyClassMethodC8functionAA8FunctionCvg', 
                       '_$s8Morpheus13PyClassMethodC8functionAA8FunctionCvpMV', '_$s8Morpheus13PyClassMethodC8functionAcA8FunctionC_tcfC', 
                       '_$s8Morpheus13PyClassMethodC8functionAcA8FunctionC_tcfCTj', 
                       '_$s8Morpheus13PyClassMethodC8functionAcA8FunctionC_tcfCTq', 
                       '_$s8Morpheus13PyClassMethodC8functionAcA8FunctionC_tcfc', 
                       '_$s8Morpheus13PyClassMethodC9__class__AA0bC0_pvgTj', '_$s8Morpheus13PyClassMethodC9__class__AA0bC0_pvgTq', 
                       '_$s8Morpheus13PyClassMethodC9__class__AA0bC0_pvpMV', '_$s8Morpheus13PyClassMethodCAA0B6ObjectAAMc', 
                       '_$s8Morpheus13PyClassMethodCAA0B6ObjectAAWP', '_$s8Morpheus13PyClassMethodCAA8CallableAAMc', 
                       '_$s8Morpheus13PyClassMethodCAA8CallableAAWP', '_$s8Morpheus13PyClassMethodCMa', 
                       '_$s8Morpheus13PyClassMethodCMm', '_$s8Morpheus13PyClassMethodCMn', 
                       '_$s8Morpheus13PyClassMethodCMo', '_$s8Morpheus13PyClassMethodCMu', 
                       '_$s8Morpheus13PyClassMethodCN', '_$s8Morpheus13PyClassMethodCfD', 
                       '_$s8Morpheus13PyClassMethodCfd', '_$s8Morpheus13PyCustomClassC12nextMROClass04fromD0AA0bD0_pSgAaF_p_tKF', 
                       '_$s8Morpheus13PyCustomClassC3mroSaySSGvg', '_$s8Morpheus13PyCustomClassC3mroSaySSGvpMV', 
                       '_$s8Morpheus13PyCustomClassC4call4args8keywordsypSayypG_SDySSypGtYaKF', 
                       '_$s8Morpheus13PyCustomClassC4call4args8keywordsypSayypG_SDySSypGtYaKFTu', 
                       '_$s8Morpheus13PyCustomClassC5basesSayAA0bD0_pGvg', '_$s8Morpheus13PyCustomClassC5basesSayAA0bD0_pGvpMV', 
                       '_$s8Morpheus13PyCustomClassC6fqNameSSvg', '_$s8Morpheus13PyCustomClassC6fqNameSSvpMV', 
                       '_$s8Morpheus13PyCustomClassC7contextAA14LexicalContextCvg', 
                       '_$s8Morpheus13PyCustomClassC7contextAA14LexicalContextCvpMV', 
                       '_$s8Morpheus13PyCustomClassC9classNameSSvg', '_$s8Morpheus13PyCustomClassC9classNameSSvpMV', 
                       '_$s8Morpheus13PyCustomClassCAA0B6ObjectAAMc', '_$s8Morpheus13PyCustomClassCAA0B6ObjectAAWP', 
                       '_$s8Morpheus13PyCustomClassCAA0bD0AAMc', '_$s8Morpheus13PyCustomClassCAA0bD0AAWP', 
                       '_$s8Morpheus13PyCustomClassCAA12AttributableAAMc', '_$s8Morpheus13PyCustomClassCAA12AttributableAAWP', 
                       '_$s8Morpheus13PyCustomClassCAA8CallableAAMc', '_$s8Morpheus13PyCustomClassCAA8CallableAAWP', 
                       '_$s8Morpheus13PyCustomClassCAA8StorableAAMc', '_$s8Morpheus13PyCustomClassCAA8StorableAAWP', 
                       '_$s8Morpheus13PyCustomClassCMa', '_$s8Morpheus13PyCustomClassCMm', 
                       '_$s8Morpheus13PyCustomClassCMn', '_$s8Morpheus13PyCustomClassCMo', 
                       '_$s8Morpheus13PyCustomClassCMu', '_$s8Morpheus13PyCustomClassCN', 
                       '_$s8Morpheus13PyCustomClassCSQAAMc', '_$s8Morpheus13PyCustomClassCfD', 
                       '_$s8Morpheus13PyCustomClassCfd', '_$s8Morpheus13SubscriptableMp', 
                       '_$s8Morpheus13SubscriptableP3getyypSgypKFTj', '_$s8Morpheus13SubscriptableP3getyypSgypKFTq', 
                       '_$s8Morpheus13SubscriptableTL', '_$s8Morpheus14EnumTypeBridgeC12nextMROClass9fromClassAA02PyH0_pSgAaF_p_tKF', 
                       '_$s8Morpheus14EnumTypeBridgeC3has9attributeSbSS_tF', '_$s8Morpheus14EnumTypeBridgeC3mroSaySSGvM', 
                       '_$s8Morpheus14EnumTypeBridgeC3mroSaySSGvg', '_$s8Morpheus14EnumTypeBridgeC3mroSaySSGvpMV', 
                       '_$s8Morpheus14EnumTypeBridgeC3mroSaySSGvs', '_$s8Morpheus14EnumTypeBridgeC4call4args8keywordsypSayypG_SDySSypGtYaKF', 
                       '_$s8Morpheus14EnumTypeBridgeC4call4args8keywordsypSayypG_SDySSypGtYaKFTu', 
                       '_$s8Morpheus14EnumTypeBridgeC5basesSayAA7PyClass_pGvM', '_$s8Morpheus14EnumTypeBridgeC5basesSayAA7PyClass_pGvg', 
                       '_$s8Morpheus14EnumTypeBridgeC5basesSayAA7PyClass_pGvpMV', 
                       '_$s8Morpheus14EnumTypeBridgeC5basesSayAA7PyClass_pGvs', '_$s8Morpheus14EnumTypeBridgeC6fqNameSSvg', 
                       '_$s8Morpheus14EnumTypeBridgeC6fqNameSSvpMV', '_$s8Morpheus14EnumTypeBridgeC7contextAA14LexicalContextCvg', 
                       '_$s8Morpheus14EnumTypeBridgeC7contextAA14LexicalContextCvpMV', 
                       '_$s8Morpheus14EnumTypeBridgeC9attribute3forypSgSS_tF', '_$s8Morpheus14EnumTypeBridgeC9classNameSSvg', 
                       '_$s8Morpheus14EnumTypeBridgeC9classNameSSvpMV', '_$s8Morpheus14EnumTypeBridgeCMa', 
                       '_$s8Morpheus14EnumTypeBridgeCMn', '_$s8Morpheus14EnumTypeBridgeCMo', 
                       '_$s8Morpheus14EnumTypeBridgeCMu', '_$s8Morpheus14EnumTypeBridgeC__5cases12constructorsACyxGxm_SSSDySSxGSDySSAA0B4CaseCyxGGtcfC', 
                       '_$s8Morpheus14EnumTypeBridgeC__5cases12constructorsACyxGxm_SSSDySSxGSDySSAA0B4CaseCyxGGtcfCTj', 
                       '_$s8Morpheus14EnumTypeBridgeC__5cases12constructorsACyxGxm_SSSDySSxGSDySSAA0B4CaseCyxGGtcfCTq', 
                       '_$s8Morpheus14EnumTypeBridgeC__5cases12constructorsACyxGxm_SSSDySSxGSDySSAA0B4CaseCyxGGtcfc', 
                       '_$s8Morpheus14EnumTypeBridgeCfD', '_$s8Morpheus14EnumTypeBridgeCfd', 
                       '_$s8Morpheus14EnumTypeBridgeCyACyxGxm_SSSDySSxGtcfC', '_$s8Morpheus14EnumTypeBridgeCyACyxGxm_SStcs12CaseIterableRzlufC', 
                       '_$s8Morpheus14EnumTypeBridgeCyxGAA12AttributableAAMc', '_$s8Morpheus14EnumTypeBridgeCyxGAA12AttributableAAWP', 
                       '_$s8Morpheus14EnumTypeBridgeCyxGAA7PyClassAAMc', '_$s8Morpheus14EnumTypeBridgeCyxGAA8CallableAAMc', 
                       '_$s8Morpheus14EnumTypeBridgeCyxGAA8CallableAAWP', '_$s8Morpheus14EnumTypeBridgeCyxGAA8PyObjectAAMc', 
                       '_$s8Morpheus14EnumTypeBridgeCyxGAA8PyObjectAAWP', '_$s8Morpheus14EnumTypeBridgeCyxGAA8StorableAAMc', 
                       '_$s8Morpheus14EnumTypeBridgeCyxGAA8StorableAAWP', '_$s8Morpheus14EnumTypeBridgeCyxGSQAAMc', 
                       '_$s8Morpheus14FloorDivisibleMp', '_$s8Morpheus14FloorDivisibleP11floorDivideyypypKFTj', 
                       '_$s8Morpheus14FloorDivisibleP11floorDivideyypypKFTq', '_$s8Morpheus14FloorDivisibleTL', 
                       '_$s8Morpheus14LexicalContextC3has9attributeSbSS_tF', '_$s8Morpheus14LexicalContextC5store3key3obj4kindyyp_ypAA15NameBindingKindOtF', 
                       '_$s8Morpheus14LexicalContextC9attribute3forypSgSS_tF', '_$s8Morpheus14LexicalContextCAA12AttributableAAMc', 
                       '_$s8Morpheus14LexicalContextCAA12AttributableAAWP', '_$s8Morpheus14LexicalContextCAA8StorableAAMc', 
                       '_$s8Morpheus14LexicalContextCAA8StorableAAWP', '_$s8Morpheus14LexicalContextCMa', 
                       '_$s8Morpheus14LexicalContextCMm', '_$s8Morpheus14LexicalContextCMn', 
                       '_$s8Morpheus14LexicalContextCMo', '_$s8Morpheus14LexicalContextCMu', 
                       '_$s8Morpheus14LexicalContextCN', '_$s8Morpheus14LexicalContextCfD', 
                       '_$s8Morpheus14LexicalContextCfd', '_$s8Morpheus14MLXTrainerBaseC18getModelDifference3forSaySfGSaySSGSg_tYaKFTj', 
                       '_$s8Morpheus14MLXTrainerBaseC18getModelDifference3forSaySfGSaySSGSg_tYaKFTjTu', 
                       '_$s8Morpheus14MLXTrainerBaseC18getModelDifference3forSaySfGSaySSGSg_tYaKFTq', 
                       '_$s8Morpheus14MLXTrainerBaseC22trainableWeightsLoaderAA09MLXArraysF0_pvg', 
                       '_$s8Morpheus14MLXTrainerBaseC22trainableWeightsLoaderAA09MLXArraysF0_pvpMV', 
                       '_$s8Morpheus14MLXTrainerBaseC26sortedTrainableWeightNamesSaySSGvgTj', 
                       '_$s8Morpheus14MLXTrainerBaseC26sortedTrainableWeightNamesSaySSGvgTq', 
                       '_$s8Morpheus14MLXTrainerBaseC26sortedTrainableWeightNamesSaySSGvpMV', 
                       '_$s8Morpheus14MLXTrainerBaseC3has9attributeSbSS_tF', '_$s8Morpheus14MLXTrainerBaseCMa', 
                       '_$s8Morpheus14MLXTrainerBaseCMm', '_$s8Morpheus14MLXTrainerBaseCMn', 
                       '_$s8Morpheus14MLXTrainerBaseCMo', '_$s8Morpheus14MLXTrainerBaseCMu', 
                       '_$s8Morpheus14MLXTrainerBaseCN', '_$s8Morpheus14MLXTrainerBaseCfD', 
                       '_$s8Morpheus14MLXTrainerBaseCfd', '_$s8Morpheus14PyBuiltInClassC11constructorAA8FunctionCSgvg', 
                       '_$s8Morpheus14PyBuiltInClassC11constructorAA8FunctionCSgvpMV', 
                       '_$s8Morpheus14PyBuiltInClassC12nextMROClass04fromE0AA0bE0_pSgAaF_p_tKF', 
                       '_$s8Morpheus14PyBuiltInClassC16registerFunction4name8functionySS_AA0G0CtF', 
                       '_$s8Morpheus14PyBuiltInClassC3mroSaySSGvM', '_$s8Morpheus14PyBuiltInClassC3mroSaySSGvg', 
                       '_$s8Morpheus14PyBuiltInClassC3mroSaySSGvpMV', '_$s8Morpheus14PyBuiltInClassC3mroSaySSGvs', 
                       '_$s8Morpheus14PyBuiltInClassC4call4args8keywordsypSayypG_SDySSypGtYaKF', 
                       '_$s8Morpheus14PyBuiltInClassC4call4args8keywordsypSayypG_SDySSypGtYaKFTu', 
                       '_$s8Morpheus14PyBuiltInClassC4name5bases3mro11constructor16specialFunctionsACSS_SayAA0bE0_pGSaySSGAA8FunctionCSgSDySSAMGtcfC', 
                       '_$s8Morpheus14PyBuiltInClassC4name5bases3mro11constructor16specialFunctionsACSS_SayAA0bE0_pGSaySSGAA8FunctionCSgSDySSAMGtcfCTj', 
                       '_$s8Morpheus14PyBuiltInClassC4name5bases3mro11constructor16specialFunctionsACSS_SayAA0bE0_pGSaySSGAA8FunctionCSgSDySSAMGtcfCTq', 
                       '_$s8Morpheus14PyBuiltInClassC4name5bases3mro11constructor16specialFunctionsACSS_SayAA0bE0_pGSaySSGAA8FunctionCSgSDySSAMGtcfc', 
                       '_$s8Morpheus14PyBuiltInClassC5basesSayAA0bE0_pGvM', '_$s8Morpheus14PyBuiltInClassC5basesSayAA0bE0_pGvg', 
                       '_$s8Morpheus14PyBuiltInClassC5basesSayAA0bE0_pGvpMV', '_$s8Morpheus14PyBuiltInClassC5basesSayAA0bE0_pGvs', 
                       '_$s8Morpheus14PyBuiltInClassC6fqNameSSvM', '_$s8Morpheus14PyBuiltInClassC6fqNameSSvg', 
                       '_$s8Morpheus14PyBuiltInClassC6fqNameSSvpMV', '_$s8Morpheus14PyBuiltInClassC6fqNameSSvs', 
                       '_$s8Morpheus14PyBuiltInClassC7contextAA14LexicalContextCvM', 
                       '_$s8Morpheus14PyBuiltInClassC7contextAA14LexicalContextCvg', 
                       '_$s8Morpheus14PyBuiltInClassC7contextAA14LexicalContextCvpMV', 
                       '_$s8Morpheus14PyBuiltInClassC7contextAA14LexicalContextCvs', 
                       '_$s8Morpheus14PyBuiltInClassC9classNameSSvM', '_$s8Morpheus14PyBuiltInClassC9classNameSSvg', 
                       '_$s8Morpheus14PyBuiltInClassC9classNameSSvpMV', '_$s8Morpheus14PyBuiltInClassC9classNameSSvs', 
                       '_$s8Morpheus14PyBuiltInClassCAA0B6ObjectAAMc', '_$s8Morpheus14PyBuiltInClassCAA0B6ObjectAAWP', 
                       '_$s8Morpheus14PyBuiltInClassCAA0bE0AAMc', '_$s8Morpheus14PyBuiltInClassCAA0bE0AAWP', 
                       '_$s8Morpheus14PyBuiltInClassCAA12AttributableAAMc', '_$s8Morpheus14PyBuiltInClassCAA12AttributableAAWP', 
                       '_$s8Morpheus14PyBuiltInClassCAA8CallableAAMc', '_$s8Morpheus14PyBuiltInClassCAA8CallableAAWP', 
                       '_$s8Morpheus14PyBuiltInClassCAA8StorableAAMc', '_$s8Morpheus14PyBuiltInClassCAA8StorableAAWP', 
                       '_$s8Morpheus14PyBuiltInClassCMa', '_$s8Morpheus14PyBuiltInClassCMm', 
                       '_$s8Morpheus14PyBuiltInClassCMn', '_$s8Morpheus14PyBuiltInClassCMo', 
                       '_$s8Morpheus14PyBuiltInClassCMu', '_$s8Morpheus14PyBuiltInClassCN', 
                       '_$s8Morpheus14PyBuiltInClassCSQAAMc', '_$s8Morpheus14PyBuiltInClassCfD', 
                       '_$s8Morpheus14PyBuiltInClassCfd', '_$s8Morpheus14PyStaticMethodC3has9attributeSbSS_tF', 
                       '_$s8Morpheus14PyStaticMethodC4call4args8keywordsypSayypG_SDySSypGtYaKF', 
                       '_$s8Morpheus14PyStaticMethodC4call4args8keywordsypSayypG_SDySSypGtYaKFTu', 
                       '_$s8Morpheus14PyStaticMethodC4nameSSvg', '_$s8Morpheus14PyStaticMethodC4nameSSvpMV', 
                       '_$s8Morpheus14PyStaticMethodC5store3key3obj4kindyyp_ypAA15NameBindingKindOtF', 
                       '_$s8Morpheus14PyStaticMethodC8functionAA8FunctionCvg', '_$s8Morpheus14PyStaticMethodC8functionAA8FunctionCvpMV', 
                       '_$s8Morpheus14PyStaticMethodC8functionAcA8FunctionC_tcfC', 
                       '_$s8Morpheus14PyStaticMethodC8functionAcA8FunctionC_tcfCTj', 
                       '_$s8Morpheus14PyStaticMethodC8functionAcA8FunctionC_tcfCTq', 
                       '_$s8Morpheus14PyStaticMethodC8functionAcA8FunctionC_tcfc', 
                       '_$s8Morpheus14PyStaticMethodC9__class__AA0B5Class_pvg', '_$s8Morpheus14PyStaticMethodC9__class__AA0B5Class_pvpMV', 
                       '_$s8Morpheus14PyStaticMethodC9attribute3forypSgSS_tF', '_$s8Morpheus14PyStaticMethodCAA0B6ObjectAAMc', 
                       '_$s8Morpheus14PyStaticMethodCAA0B6ObjectAAWP', '_$s8Morpheus14PyStaticMethodCAA12AttributableAAMc', 
                       '_$s8Morpheus14PyStaticMethodCAA12AttributableAAWP', '_$s8Morpheus14PyStaticMethodCAA8CallableAAMc', 
                       '_$s8Morpheus14PyStaticMethodCAA8CallableAAWP', '_$s8Morpheus14PyStaticMethodCAA8StorableAAMc', 
                       '_$s8Morpheus14PyStaticMethodCAA8StorableAAWP', '_$s8Morpheus14PyStaticMethodCMa', 
                       '_$s8Morpheus14PyStaticMethodCMm', '_$s8Morpheus14PyStaticMethodCMn', 
                       '_$s8Morpheus14PyStaticMethodCMo', '_$s8Morpheus14PyStaticMethodCMu', 
                       '_$s8Morpheus14PyStaticMethodCN', '_$s8Morpheus14PyStaticMethodCfD', 
                       '_$s8Morpheus14PyStaticMethodCfd', '_$s8Morpheus15AnySetContainerMp', 
                       '_$s8Morpheus15AnySetContainerP03anyC0Shys0B8HashableVGvgTj', 
                       '_$s8Morpheus15AnySetContainerP03anyC0Shys0B8HashableVGvgTq', 
                       '_$s8Morpheus15AnySetContainerTL', '_$s8Morpheus15CheckpointsTypeO11descriptionSSvg', 
                       '_$s8Morpheus15CheckpointsTypeO11descriptionSSvpMV', '_$s8Morpheus15CheckpointsTypeO4mmapyAC10Foundation3URLVSg_AA12MSyncOptionsVSgtcACmFWC', 
                       '_$s8Morpheus15CheckpointsTypeO8inMemoryyA2CmFWC', '_$s8Morpheus15CheckpointsTypeOMa', 
                       '_$s8Morpheus15CheckpointsTypeOMn', '_$s8Morpheus15CheckpointsTypeON', 
                       '_$s8Morpheus15CheckpointsTypeOs23CustomStringConvertibleAAMc', 
                       '_$s8Morpheus15ErrorTypeBridgeC12nextMROClass9fromClassAA02PyH0_pSgAaF_p_tKF', 
                       '_$s8Morpheus15ErrorTypeBridgeC3has9attributeSbSS_tF', '_$s8Morpheus15ErrorTypeBridgeC3mroSaySSGvM', 
                       '_$s8Morpheus15ErrorTypeBridgeC3mroSaySSGvg', '_$s8Morpheus15ErrorTypeBridgeC3mroSaySSGvpMV', 
                       '_$s8Morpheus15ErrorTypeBridgeC3mroSaySSGvs', '_$s8Morpheus15ErrorTypeBridgeC4call4args8keywordsypSayypG_SDySSypGtYaKF', 
                       '_$s8Morpheus15ErrorTypeBridgeC4call4args8keywordsypSayypG_SDySSypGtYaKFTu', 
                       '_$s8Morpheus15ErrorTypeBridgeC5basesSayAA7PyClass_pGvM', 
                       '_$s8Morpheus15ErrorTypeBridgeC5basesSayAA7PyClass_pGvg', 
                       '_$s8Morpheus15ErrorTypeBridgeC5basesSayAA7PyClass_pGvpMV', 
                       '_$s8Morpheus15ErrorTypeBridgeC5basesSayAA7PyClass_pGvs', 
                       '_$s8Morpheus15ErrorTypeBridgeC6fqNameSSvg', '_$s8Morpheus15ErrorTypeBridgeC6fqNameSSvpMV', 
                       '_$s8Morpheus15ErrorTypeBridgeC7contextAA14LexicalContextCvg', 
                       '_$s8Morpheus15ErrorTypeBridgeC7contextAA14LexicalContextCvpMV', 
                       '_$s8Morpheus15ErrorTypeBridgeC7matchesySbs0B0_pF', '_$s8Morpheus15ErrorTypeBridgeC9attribute3forypSgSS_tF', 
                       '_$s8Morpheus15ErrorTypeBridgeC9classNameSSvg', '_$s8Morpheus15ErrorTypeBridgeC9classNameSSvpMV', 
                       '_$s8Morpheus15ErrorTypeBridgeCMa', '_$s8Morpheus15ErrorTypeBridgeCMn', 
                       '_$s8Morpheus15ErrorTypeBridgeCMo', '_$s8Morpheus15ErrorTypeBridgeCMu', 
                       '_$s8Morpheus15ErrorTypeBridgeC__5cases12constructorsACyxGxm_SSSDySSxGSDySSAA8EnumCaseCyxGGtcfC', 
                       '_$s8Morpheus15ErrorTypeBridgeC__5cases12constructorsACyxGxm_SSSDySSxGSDySSAA8EnumCaseCyxGGtcfCTj', 
                       '_$s8Morpheus15ErrorTypeBridgeC__5cases12constructorsACyxGxm_SSSDySSxGSDySSAA8EnumCaseCyxGGtcfCTq', 
                       '_$s8Morpheus15ErrorTypeBridgeC__5cases12constructorsACyxGxm_SSSDySSxGSDySSAA8EnumCaseCyxGGtcfc', 
                       '_$s8Morpheus15ErrorTypeBridgeCfD', '_$s8Morpheus15ErrorTypeBridgeCfd', 
                       '_$s8Morpheus15ErrorTypeBridgeCyACyxGxm_SSSDySSxGtcfC', '_$s8Morpheus15ErrorTypeBridgeCyACyxGxm_SStcs12CaseIterableRzrlufC', 
                       '_$s8Morpheus15ErrorTypeBridgeCyxGAA03AnybcD0AAMc', '_$s8Morpheus15ErrorTypeBridgeCyxGAA03AnybcD0AAWP', 
                       '_$s8Morpheus15ErrorTypeBridgeCyxGAA12AttributableAAMc', '_$s8Morpheus15ErrorTypeBridgeCyxGAA12AttributableAAWP', 
                       '_$s8Morpheus15ErrorTypeBridgeCyxGAA7PyClassAAMc', '_$s8Morpheus15ErrorTypeBridgeCyxGAA8CallableAAMc', 
                       '_$s8Morpheus15ErrorTypeBridgeCyxGAA8CallableAAWP', '_$s8Morpheus15ErrorTypeBridgeCyxGAA8PyObjectAAMc', 
                       '_$s8Morpheus15ErrorTypeBridgeCyxGAA8PyObjectAAWP', '_$s8Morpheus15ErrorTypeBridgeCyxGAA8StorableAAMc', 
                       '_$s8Morpheus15ErrorTypeBridgeCyxGAA8StorableAAWP', '_$s8Morpheus15ErrorTypeBridgeCyxGSQAAMc', 
                       '_$s8Morpheus15MLXArraysLoaderMp', '_$s8Morpheus15MLXArraysLoaderP4loadSDySSAA9MLXTensor_pGyYaKFTj', 
                       '_$s8Morpheus15MLXArraysLoaderP4loadSDySSAA9MLXTensor_pGyYaKFTjTu', 
                       '_$s8Morpheus15MLXArraysLoaderP4loadSDySSAA9MLXTensor_pGyYaKFTq', 
                       '_$s8Morpheus15MLXArraysLoaderPAAE3has9attributeSbSS_tF', 
                       '_$s8Morpheus15MLXArraysLoaderTL', '_$s8Morpheus15NameBindingKindO4cellyA2CmFWC', 
                       '_$s8Morpheus15NameBindingKindO4freeyA2CmFWC', '_$s8Morpheus15NameBindingKindO5localyA2CmFWC', 
                       '_$s8Morpheus15NameBindingKindO6globalyA2CmFWC', '_$s8Morpheus15NameBindingKindO8rawValueACSgSS_tcfC', 
                       '_$s8Morpheus15NameBindingKindO8rawValueSSvg', '_$s8Morpheus15NameBindingKindO8rawValueSSvpMV', 
                       '_$s8Morpheus15NameBindingKindOMa', '_$s8Morpheus15NameBindingKindOMn', 
                       '_$s8Morpheus15NameBindingKindON', '_$s8Morpheus15NameBindingKindOSHAAMc', 
                       '_$s8Morpheus15NameBindingKindOSQAAMc', '_$s8Morpheus15NameBindingKindOSYAAMc', 
                       '_$s8Morpheus15NameBindingKindOSeAAMc', '_$s8Morpheus15PySuperInstanceC3has9attributeSbSS_tF', 
                       '_$s8Morpheus15PySuperInstanceC5store3key3obj4kindyyp_ypAA15NameBindingKindOtKF', 
                       '_$s8Morpheus15PySuperInstanceC7pyClass8instanceAcA0bF0_p_AA0bD0CtcfC', 
                       '_$s8Morpheus15PySuperInstanceC7pyClass8instanceAcA0bF0_p_AA0bD0CtcfCTj', 
                       '_$s8Morpheus15PySuperInstanceC7pyClass8instanceAcA0bF0_p_AA0bD0CtcfCTq', 
                       '_$s8Morpheus15PySuperInstanceC7pyClass8instanceAcA0bF0_p_AA0bD0Ctcfc', 
                       '_$s8Morpheus15PySuperInstanceC8instanceAA0bD0Cvg', '_$s8Morpheus15PySuperInstanceC8instanceAA0bD0CvpMV', 
                       '_$s8Morpheus15PySuperInstanceC9__class__AA0B5Class_pvg', 
                       '_$s8Morpheus15PySuperInstanceC9__class__AA0B5Class_pvpMV', 
                       '_$s8Morpheus15PySuperInstanceC9attribute3forypSgSS_tF', '_$s8Morpheus15PySuperInstanceCAA0B6ObjectAAMc', 
                       '_$s8Morpheus15PySuperInstanceCAA0B6ObjectAAWP', '_$s8Morpheus15PySuperInstanceCAA12AttributableAAMc', 
                       '_$s8Morpheus15PySuperInstanceCAA12AttributableAAWP', '_$s8Morpheus15PySuperInstanceCAA8StorableAAMc', 
                       '_$s8Morpheus15PySuperInstanceCAA8StorableAAWP', '_$s8Morpheus15PySuperInstanceCMa', 
                       '_$s8Morpheus15PySuperInstanceCMm', '_$s8Morpheus15PySuperInstanceCMn', 
                       '_$s8Morpheus15PySuperInstanceCMo', '_$s8Morpheus15PySuperInstanceCMu', 
                       '_$s8Morpheus15PySuperInstanceCN', '_$s8Morpheus15PySuperInstanceCfD', 
                       '_$s8Morpheus15PySuperInstanceCfd', '_$s8Morpheus15SliceDescriptorV4fromACs7Decoder_p_tKcfC', 
                       '_$s8Morpheus15SliceDescriptorV6encode2toys7Encoder_p_tKF', 
                       '_$s8Morpheus15SliceDescriptorVMa', '_$s8Morpheus15SliceDescriptorVMn', 
                       '_$s8Morpheus15SliceDescriptorVN', '_$s8Morpheus15SliceDescriptorVSEAAMc', 
                       '_$s8Morpheus15SliceDescriptorVSeAAMc', '_$s8Morpheus15TensorSliceInfoV4fromACs7Decoder_p_tKcfC', 
                       '_$s8Morpheus15TensorSliceInfoV6encode2toys7Encoder_p_tKF', 
                       '_$s8Morpheus15TensorSliceInfoVMa', '_$s8Morpheus15TensorSliceInfoVMn', 
                       '_$s8Morpheus15TensorSliceInfoVN', '_$s8Morpheus15TensorSliceInfoVSEAAMc', 
                       '_$s8Morpheus15TensorSliceInfoVSeAAMc', '_$s8Morpheus16AnyDictContainerMp', 
                       '_$s8Morpheus16AnyDictContainerP03anyC0SDys0B8HashableVypGvgTj', 
                       '_$s8Morpheus16AnyDictContainerP03anyC0SDys0B8HashableVypGvgTq', 
                       '_$s8Morpheus16AnyDictContainerPAAE8isTruthySbvg', '_$s8Morpheus16AnyDictContainerPAAE8isTruthySbvpMV', 
                       '_$s8Morpheus16AnyDictContainerTL', '_$s8Morpheus16SharedMutableSetC03anyD0Shys11AnyHashableVGvg', 
                       '_$s8Morpheus16SharedMutableSetC03anyD0Shys11AnyHashableVGvpMV', 
                       '_$s8Morpheus16SharedMutableSetC10startIndexSh0F0Vys11AnyHashableV_GvgTj', 
                       '_$s8Morpheus16SharedMutableSetC10startIndexSh0F0Vys11AnyHashableV_GvgTq', 
                       '_$s8Morpheus16SharedMutableSetC10startIndexSh0F0Vys11AnyHashableV_GvpMV', 
                       '_$s8Morpheus16SharedMutableSetC11descriptionSSvg', '_$s8Morpheus16SharedMutableSetC11descriptionSSvpMV', 
                       '_$s8Morpheus16SharedMutableSetC12makeIteratorSh0F0Vys11AnyHashableV_GyFTj', 
                       '_$s8Morpheus16SharedMutableSetC12makeIteratorSh0F0Vys11AnyHashableV_GyFTq', 
                       '_$s8Morpheus16SharedMutableSetC19underestimatedCountSivgTj', 
                       '_$s8Morpheus16SharedMutableSetC19underestimatedCountSivgTq', 
                       '_$s8Morpheus16SharedMutableSetC19underestimatedCountSivpMV', 
                       '_$s8Morpheus16SharedMutableSetC3has9attributeSbSS_tF', '_$s8Morpheus16SharedMutableSetC3setACShys11AnyHashableVG_tcfC', 
                       '_$s8Morpheus16SharedMutableSetC3setACShys11AnyHashableVG_tcfCTj', 
                       '_$s8Morpheus16SharedMutableSetC3setACShys11AnyHashableVG_tcfCTq', 
                       '_$s8Morpheus16SharedMutableSetC3setACShys11AnyHashableVG_tcfc', 
                       '_$s8Morpheus16SharedMutableSetC3setShys11AnyHashableVGvgTj', 
                       '_$s8Morpheus16SharedMutableSetC3setShys11AnyHashableVGvgTq', 
                       '_$s8Morpheus16SharedMutableSetC3setShys11AnyHashableVGvpMV', 
                       '_$s8Morpheus16SharedMutableSetC4isIn5valueSbyp_tF', '_$s8Morpheus16SharedMutableSetC5clearyyFTj', 
                       '_$s8Morpheus16SharedMutableSetC5clearyyFTq', '_$s8Morpheus16SharedMutableSetC5countSivgTj', 
                       '_$s8Morpheus16SharedMutableSetC5countSivgTq', '_$s8Morpheus16SharedMutableSetC5countSivpMV', 
                       '_$s8Morpheus16SharedMutableSetC5index5afterSh5IndexVys11AnyHashableV_GAJ_tFTj', 
                       '_$s8Morpheus16SharedMutableSetC5index5afterSh5IndexVys11AnyHashableV_GAJ_tFTq', 
                       '_$s8Morpheus16SharedMutableSetC8containsySbs11AnyHashableVFTj', 
                       '_$s8Morpheus16SharedMutableSetC8containsySbs11AnyHashableVFTq', 
                       '_$s8Morpheus16SharedMutableSetC8endIndexSh0F0Vys11AnyHashableV_GvgTj', 
                       '_$s8Morpheus16SharedMutableSetC8endIndexSh0F0Vys11AnyHashableV_GvgTq', 
                       '_$s8Morpheus16SharedMutableSetC8endIndexSh0F0Vys11AnyHashableV_GvpMV', 
                       '_$s8Morpheus16SharedMutableSetC9__class__AA7PyClass_pvg', 
                       '_$s8Morpheus16SharedMutableSetC9__class__AA7PyClass_pvpMV', 
                       '_$s8Morpheus16SharedMutableSetC9attribute3forypSgSS_tF', 
                       '_$s8Morpheus16SharedMutableSetCAA03AnyD9ContainerAAMc', '_$s8Morpheus16SharedMutableSetCAA03AnyD9ContainerAAWP', 
                       '_$s8Morpheus16SharedMutableSetCAA12AttributableAAMc', '_$s8Morpheus16SharedMutableSetCAA12AttributableAAWP', 
                       '_$s8Morpheus16SharedMutableSetCAA18MembershipTestableAAMc', 
                       '_$s8Morpheus16SharedMutableSetCAA18MembershipTestableAAWP', 
                       '_$s8Morpheus16SharedMutableSetCAA8PyObjectAAMc', '_$s8Morpheus16SharedMutableSetCAA8PyObjectAAWP', 
                       '_$s8Morpheus16SharedMutableSetCMa', '_$s8Morpheus16SharedMutableSetCMm', 
                       '_$s8Morpheus16SharedMutableSetCMn', '_$s8Morpheus16SharedMutableSetCMo', 
                       '_$s8Morpheus16SharedMutableSetCMu', '_$s8Morpheus16SharedMutableSetCN', 
                       '_$s8Morpheus16SharedMutableSetCSTAAMc', '_$s8Morpheus16SharedMutableSetCSlAAMc', 
                       '_$s8Morpheus16SharedMutableSetCfD', '_$s8Morpheus16SharedMutableSetCfd', 
                       '_$s8Morpheus16SharedMutableSetCs23CustomStringConvertibleAAMc', 
                       '_$s8Morpheus16SharedMutableSetCys11AnyHashableVSh5IndexVyAE_GcigTj', 
                       '_$s8Morpheus16SharedMutableSetCys11AnyHashableVSh5IndexVyAE_GcigTq', 
                       '_$s8Morpheus16SharedMutableSetCys11AnyHashableVSh5IndexVyAE_GcipMV', 
                       '_$s8Morpheus17AnyArrayContainerMp', '_$s8Morpheus17AnyArrayContainerP03anyC0SayypGvgTj', 
                       '_$s8Morpheus17AnyArrayContainerP03anyC0SayypGvgTq', '_$s8Morpheus17AnyArrayContainerPAAE8isTruthySbvg', 
                       '_$s8Morpheus17AnyArrayContainerPAAE8isTruthySbvpMV', '_$s8Morpheus17AnyArrayContainerTL', 
                       '_$s8Morpheus17NNEvalHyperParamsV2eeoiySbAC_ACtFZ', '_$s8Morpheus17NNEvalHyperParamsV4fromACs7Decoder_p_tKcfC', 
                       '_$s8Morpheus17NNEvalHyperParamsV6encode2toys7Encoder_p_tKF', 
                       '_$s8Morpheus17NNEvalHyperParamsVMa', '_$s8Morpheus17NNEvalHyperParamsVMn', 
                       '_$s8Morpheus17NNEvalHyperParamsVN', '_$s8Morpheus17NNEvalHyperParamsVSEAAMc', 
                       '_$s8Morpheus17NNEvalHyperParamsVSQAAMc', '_$s8Morpheus17NNEvalHyperParamsVSeAAMc', 
                       '_$s8Morpheus17NumpyArraysLoaderV15numpyArrayPathsSDySS10Foundation3URLVGvg', 
                       '_$s8Morpheus17NumpyArraysLoaderV15numpyArrayPathsSDySS10Foundation3URLVGvpMV', 
                       '_$s8Morpheus17NumpyArraysLoaderV4loadSDySSAA9MLXTensor_pGyKF', 
                       '_$s8Morpheus17NumpyArraysLoaderV9attribute3forypSgSS_tF', 
                       '_$s8Morpheus17NumpyArraysLoaderVAA09MLXArraysD0AAMc', '_$s8Morpheus17NumpyArraysLoaderVAA09MLXArraysD0AAWP', 
                       '_$s8Morpheus17NumpyArraysLoaderVAA12AttributableAAMc', '_$s8Morpheus17NumpyArraysLoaderVAA12AttributableAAWP', 
                       '_$s8Morpheus17NumpyArraysLoaderVMa', '_$s8Morpheus17NumpyArraysLoaderVMn', 
                       '_$s8Morpheus17NumpyArraysLoaderVN', '_$s8Morpheus17PySpecialFunctionO10__delete__yA2CmFWC', 
                       '_$s8Morpheus17PySpecialFunctionO10__format__yA2CmFWC', '_$s8Morpheus17PySpecialFunctionO10__invert__yA2CmFWC', 
                       '_$s8Morpheus17PySpecialFunctionO10__lshift__yA2CmFWC', '_$s8Morpheus17PySpecialFunctionO10__matmul__yA2CmFWC', 
                       '_$s8Morpheus17PySpecialFunctionO10__rshift__yA2CmFWC', '_$s8Morpheus17PySpecialFunctionO11__complex__yA2CmFWC', 
                       '_$s8Morpheus17PySpecialFunctionO11__delattr__yA2CmFWC', '_$s8Morpheus17PySpecialFunctionO11__delitem__yA2CmFWC', 
                       '_$s8Morpheus17PySpecialFunctionO11__getattr__yA2CmFWC', '_$s8Morpheus17PySpecialFunctionO11__getitem__yA2CmFWC', 
                       '_$s8Morpheus17PySpecialFunctionO11__ilshift__yA2CmFWC', '_$s8Morpheus17PySpecialFunctionO11__imatmul__yA2CmFWC', 
                       '_$s8Morpheus17PySpecialFunctionO11__irshift__yA2CmFWC', '_$s8Morpheus17PySpecialFunctionO11__prepare__yA2CmFWC', 
                       '_$s8Morpheus17PySpecialFunctionO11__rlshift__yA2CmFWC', '_$s8Morpheus17PySpecialFunctionO11__rmatmul__yA2CmFWC', 
                       '_$s8Morpheus17PySpecialFunctionO11__rrshift__yA2CmFWC', '_$s8Morpheus17PySpecialFunctionO11__setattr__yA2CmFWC', 
                       '_$s8Morpheus17PySpecialFunctionO11__setitem__yA2CmFWC', '_$s8Morpheus17PySpecialFunctionO11__truediv__yA2CmFWC', 
                       '_$s8Morpheus17PySpecialFunctionO12__contains__yA2CmFWC', 
                       '_$s8Morpheus17PySpecialFunctionO12__floordiv__yA2CmFWC', 
                       '_$s8Morpheus17PySpecialFunctionO12__itruediv__yA2CmFWC', 
                       '_$s8Morpheus17PySpecialFunctionO12__reversed__yA2CmFWC', 
                       '_$s8Morpheus17PySpecialFunctionO12__rtruediv__yA2CmFWC', 
                       '_$s8Morpheus17PySpecialFunctionO13__ifloordiv__yA2CmFWC', 
                       '_$s8Morpheus17PySpecialFunctionO13__rfloordiv__yA2CmFWC', 
                       '_$s8Morpheus17PySpecialFunctionO16__getattribute__yA2CmFWC', 
                       '_$s8Morpheus17PySpecialFunctionO17__class_getitem__yA2CmFWC', 
                       '_$s8Morpheus17PySpecialFunctionO17__instancecheck__yA2CmFWC', 
                       '_$s8Morpheus17PySpecialFunctionO17__subclasscheck__yA2CmFWC', 
                       '_$s8Morpheus17PySpecialFunctionO6__eq__yA2CmFWC', '_$s8Morpheus17PySpecialFunctionO6__ge__yA2CmFWC', 
                       '_$s8Morpheus17PySpecialFunctionO6__gt__yA2CmFWC', '_$s8Morpheus17PySpecialFunctionO6__le__yA2CmFWC', 
                       '_$s8Morpheus17PySpecialFunctionO6__lt__yA2CmFWC', '_$s8Morpheus17PySpecialFunctionO6__ne__yA2CmFWC', 
                       '_$s8Morpheus17PySpecialFunctionO6__or__yA2CmFWC', '_$s8Morpheus17PySpecialFunctionO7__add__yA2CmFWC', 
                       '_$s8Morpheus17PySpecialFunctionO7__and__yA2CmFWC', '_$s8Morpheus17PySpecialFunctionO7__del__yA2CmFWC', 
                       '_$s8Morpheus17PySpecialFunctionO7__dir__yA2CmFWC', '_$s8Morpheus17PySpecialFunctionO7__get__yA2CmFWC', 
                       '_$s8Morpheus17PySpecialFunctionO7__int__yA2CmFWC', '_$s8Morpheus17PySpecialFunctionO7__ior__yA2CmFWC', 
                       '_$s8Morpheus17PySpecialFunctionO7__len__yA2CmFWC', '_$s8Morpheus17PySpecialFunctionO7__mod__yA2CmFWC', 
                       '_$s8Morpheus17PySpecialFunctionO7__mul__yA2CmFWC', '_$s8Morpheus17PySpecialFunctionO7__neg__yA2CmFWC', 
                       '_$s8Morpheus17PySpecialFunctionO7__new__yA2CmFWC', '_$s8Morpheus17PySpecialFunctionO7__pos__yA2CmFWC', 
                       '_$s8Morpheus17PySpecialFunctionO7__pow__yA2CmFWC', '_$s8Morpheus17PySpecialFunctionO7__ror__yA2CmFWC', 
                       '_$s8Morpheus17PySpecialFunctionO7__set__yA2CmFWC', '_$s8Morpheus17PySpecialFunctionO7__str__yA2CmFWC', 
                       '_$s8Morpheus17PySpecialFunctionO7__sub__yA2CmFWC', '_$s8Morpheus17PySpecialFunctionO7__xor__yA2CmFWC', 
                       '_$s8Morpheus17PySpecialFunctionO8__bool__yA2CmFWC', '_$s8Morpheus17PySpecialFunctionO8__call__yA2CmFWC', 
                       '_$s8Morpheus17PySpecialFunctionO8__exit__yA2CmFWC', '_$s8Morpheus17PySpecialFunctionO8__hash__yA2CmFWC', 
                       '_$s8Morpheus17PySpecialFunctionO8__iadd__yA2CmFWC', '_$s8Morpheus17PySpecialFunctionO8__iand__yA2CmFWC', 
                       '_$s8Morpheus17PySpecialFunctionO8__imod__yA2CmFWC', '_$s8Morpheus17PySpecialFunctionO8__imul__yA2CmFWC', 
                       '_$s8Morpheus17PySpecialFunctionO8__init__yA2CmFWC', '_$s8Morpheus17PySpecialFunctionO8__ipow__yA2CmFWC', 
                       '_$s8Morpheus17PySpecialFunctionO8__isub__yA2CmFWC', '_$s8Morpheus17PySpecialFunctionO8__iter__yA2CmFWC', 
                       '_$s8Morpheus17PySpecialFunctionO8__ixor__yA2CmFWC', '_$s8Morpheus17PySpecialFunctionO8__next__yA2CmFWC', 
                       '_$s8Morpheus17PySpecialFunctionO8__radd__yA2CmFWC', '_$s8Morpheus17PySpecialFunctionO8__rand__yA2CmFWC', 
                       '_$s8Morpheus17PySpecialFunctionO8__repr__yA2CmFWC', '_$s8Morpheus17PySpecialFunctionO8__rmod__yA2CmFWC', 
                       '_$s8Morpheus17PySpecialFunctionO8__rmul__yA2CmFWC', '_$s8Morpheus17PySpecialFunctionO8__rpow__yA2CmFWC', 
                       '_$s8Morpheus17PySpecialFunctionO8__rsub__yA2CmFWC', '_$s8Morpheus17PySpecialFunctionO8__rxor__yA2CmFWC', 
                       '_$s8Morpheus17PySpecialFunctionO8allCasesSayACGvgZ', '_$s8Morpheus17PySpecialFunctionO8allCasesSayACGvpZMV', 
                       '_$s8Morpheus17PySpecialFunctionO8rawValueACSgSS_tcfC', '_$s8Morpheus17PySpecialFunctionO8rawValueSSvg', 
                       '_$s8Morpheus17PySpecialFunctionO8rawValueSSvpMV', '_$s8Morpheus17PySpecialFunctionO9__bytes__yA2CmFWC', 
                       '_$s8Morpheus17PySpecialFunctionO9__enter__yA2CmFWC', '_$s8Morpheus17PySpecialFunctionO9__float__yA2CmFWC', 
                       '_$s8Morpheus17PySpecialFunctionO9__index__yA2CmFWC', '_$s8Morpheus17PySpecialFunctionOMa', 
                       '_$s8Morpheus17PySpecialFunctionOMn', '_$s8Morpheus17PySpecialFunctionON', 
                       '_$s8Morpheus17PySpecialFunctionOSHAAMc', '_$s8Morpheus17PySpecialFunctionOSQAAMc', 
                       '_$s8Morpheus17PySpecialFunctionOSYAAMc', '_$s8Morpheus17PySpecialFunctionOs12CaseIterableAAMc', 
                       '_$s8Morpheus17SafeTensorsLoaderV04safeC5PathsSay10Foundation3URLVGvg', 
                       '_$s8Morpheus17SafeTensorsLoaderV04safeC5PathsSay10Foundation3URLVGvpMV', 
                       '_$s8Morpheus17SafeTensorsLoaderV16arrayNamesToLoadSaySSGSgvM', 
                       '_$s8Morpheus17SafeTensorsLoaderV16arrayNamesToLoadSaySSGSgvg', 
                       '_$s8Morpheus17SafeTensorsLoaderV16arrayNamesToLoadSaySSGSgvpMV', 
                       '_$s8Morpheus17SafeTensorsLoaderV16arrayNamesToLoadSaySSGSgvs', 
                       '_$s8Morpheus17SafeTensorsLoaderV4loadSDySSAA9MLXTensor_pGyKF', 
                       '_$s8Morpheus17SafeTensorsLoaderV9attribute3forypSgSS_tF', 
                       '_$s8Morpheus17SafeTensorsLoaderVAA09MLXArraysD0AAMc', '_$s8Morpheus17SafeTensorsLoaderVAA09MLXArraysD0AAWP', 
                       '_$s8Morpheus17SafeTensorsLoaderVAA12AttributableAAMc', '_$s8Morpheus17SafeTensorsLoaderVAA12AttributableAAWP', 
                       '_$s8Morpheus17SafeTensorsLoaderVMa', '_$s8Morpheus17SafeTensorsLoaderVMn', 
                       '_$s8Morpheus17SafeTensorsLoaderVN', '_$s8Morpheus17SharedMutableDictC03anyD0SDys11AnyHashableVypGvg', 
                       '_$s8Morpheus17SharedMutableDictC03anyD0SDys11AnyHashableVypGvpMV', 
                       '_$s8Morpheus17SharedMutableDictC10startIndexSD0F0Vys11AnyHashableVx_GvgTj', 
                       '_$s8Morpheus17SharedMutableDictC10startIndexSD0F0Vys11AnyHashableVx_GvgTq', 
                       '_$s8Morpheus17SharedMutableDictC10startIndexSD0F0Vys11AnyHashableVx_GvpMV', 
                       '_$s8Morpheus17SharedMutableDictC12makeIteratorSD0F0Vys11AnyHashableVx_GyFTj', 
                       '_$s8Morpheus17SharedMutableDictC12makeIteratorSD0F0Vys11AnyHashableVx_GyFTq', 
                       '_$s8Morpheus17SharedMutableDictC19underestimatedCountSivgTj', 
                       '_$s8Morpheus17SharedMutableDictC19underestimatedCountSivgTq', 
                       '_$s8Morpheus17SharedMutableDictC19underestimatedCountSivpMV', 
                       '_$s8Morpheus17SharedMutableDictC3lenSiyF', '_$s8Morpheus17SharedMutableDictC4dict14defaultFactoryACyxGSDys11AnyHashableVxG_AA8Callable_pSgtcfC', 
                       '_$s8Morpheus17SharedMutableDictC4dict14defaultFactoryACyxGSDys11AnyHashableVxG_AA8Callable_pSgtcfCTj', 
                       '_$s8Morpheus17SharedMutableDictC4dict14defaultFactoryACyxGSDys11AnyHashableVxG_AA8Callable_pSgtcfCTq', 
                       '_$s8Morpheus17SharedMutableDictC4dict14defaultFactoryACyxGSDys11AnyHashableVxG_AA8Callable_pSgtcfc', 
                       '_$s8Morpheus17SharedMutableDictC4dictSDys11AnyHashableVxGvgTj', 
                       '_$s8Morpheus17SharedMutableDictC4dictSDys11AnyHashableVxGvgTq', 
                       '_$s8Morpheus17SharedMutableDictC4dictSDys11AnyHashableVxGvpMV', 
                       '_$s8Morpheus17SharedMutableDictC5clearyyFTj', '_$s8Morpheus17SharedMutableDictC5clearyyFTq', 
                       '_$s8Morpheus17SharedMutableDictC5countSivgTj', '_$s8Morpheus17SharedMutableDictC5countSivgTq', 
                       '_$s8Morpheus17SharedMutableDictC5countSivpMV', '_$s8Morpheus17SharedMutableDictC5index5afterSD5IndexVys11AnyHashableVx_GAJ_tFTj', 
                       '_$s8Morpheus17SharedMutableDictC5index5afterSD5IndexVys11AnyHashableVx_GAJ_tFTq', 
                       '_$s8Morpheus17SharedMutableDictC8containsySbs11AnyHashableVFTj', 
                       '_$s8Morpheus17SharedMutableDictC8containsySbs11AnyHashableVFTq', 
                       '_$s8Morpheus17SharedMutableDictC8endIndexSD0F0Vys11AnyHashableVx_GvgTj', 
                       '_$s8Morpheus17SharedMutableDictC8endIndexSD0F0Vys11AnyHashableVx_GvgTq', 
                       '_$s8Morpheus17SharedMutableDictC8endIndexSD0F0Vys11AnyHashableVx_GvpMV', 
                       '_$s8Morpheus17SharedMutableDictC8iterators11AnyIteratorVyypGyF', 
                       '_$s8Morpheus17SharedMutableDictC9__class__AA7PyClass_pvg', 
                       '_$s8Morpheus17SharedMutableDictC9__class__AA7PyClass_pvpMV', 
                       '_$s8Morpheus17SharedMutableDictCAAypRszlE11descriptionSSvg', 
                       '_$s8Morpheus17SharedMutableDictCAAypRszlE11descriptionSSvpMV', 
                       '_$s8Morpheus17SharedMutableDictCAAypRszlE3getyypSgypKF', 
                       '_$s8Morpheus17SharedMutableDictCAAypRszlE3has9attributeSbSS_tF', 
                       '_$s8Morpheus17SharedMutableDictCAAypRszlE4isIn5valueSbyp_tF', 
                       '_$s8Morpheus17SharedMutableDictCAAypRszlE5store3key3obj4kindyyp_ypAA15NameBindingKindOtF', 
                       '_$s8Morpheus17SharedMutableDictCAAypRszlE9attribute3forypSgSS_tF', 
                       '_$s8Morpheus17SharedMutableDictCMa', '_$s8Morpheus17SharedMutableDictCMn', 
                       '_$s8Morpheus17SharedMutableDictCMo', '_$s8Morpheus17SharedMutableDictCMu', 
                       '_$s8Morpheus17SharedMutableDictCfD', '_$s8Morpheus17SharedMutableDictCfd', 
                       '_$s8Morpheus17SharedMutableDictCys11AnyHashableV3key_x5valuetSD5IndexVyAEx_GcigTj', 
                       '_$s8Morpheus17SharedMutableDictCys11AnyHashableV3key_x5valuetSD5IndexVyAEx_GcigTq', 
                       '_$s8Morpheus17SharedMutableDictCys11AnyHashableV3key_x5valuetSD5IndexVyAEx_GcipMV', 
                       '_$s8Morpheus17SharedMutableDictCyxGAA03AnyD9ContainerAAMc', 
                       '_$s8Morpheus17SharedMutableDictCyxGAA03AnyD9ContainerAAWP', 
                       '_$s8Morpheus17SharedMutableDictCyxGAA10TruthinessAAypRszlMc', 
                       '_$s8Morpheus17SharedMutableDictCyxGAA10TruthinessAAypRszlWP', 
                       '_$s8Morpheus17SharedMutableDictCyxGAA12AttributableAAypRszlMc', 
                       '_$s8Morpheus17SharedMutableDictCyxGAA12AttributableAAypRszlWP', 
                       '_$s8Morpheus17SharedMutableDictCyxGAA13SubscriptableAAypRszlMc', 
                       '_$s8Morpheus17SharedMutableDictCyxGAA13SubscriptableAAypRszlWP', 
                       '_$s8Morpheus17SharedMutableDictCyxGAA18MembershipTestableAAypRszlMc', 
                       '_$s8Morpheus17SharedMutableDictCyxGAA18MembershipTestableAAypRszlWP', 
                       '_$s8Morpheus17SharedMutableDictCyxGAA8LoopableAAMc', '_$s8Morpheus17SharedMutableDictCyxGAA8LoopableAAWP', 
                       '_$s8Morpheus17SharedMutableDictCyxGAA8PyObjectAAMc', '_$s8Morpheus17SharedMutableDictCyxGAA8PyObjectAAWP', 
                       '_$s8Morpheus17SharedMutableDictCyxGAA8StorableAAypRszlMc', 
                       '_$s8Morpheus17SharedMutableDictCyxGAA8StorableAAypRszlWP', 
                       '_$s8Morpheus17SharedMutableDictCyxGAA9CountableAAMc', '_$s8Morpheus17SharedMutableDictCyxGAA9CountableAAWP', 
                       '_$s8Morpheus17SharedMutableDictCyxGSTAAMc', '_$s8Morpheus17SharedMutableDictCyxGSlAAMc', 
                       '_$s8Morpheus17SharedMutableDictCyxGs23CustomStringConvertibleAAypRszlMc', 
                       '_$s8Morpheus17SharedMutableDictCyxSgs11AnyHashableVciMTj', 
                       '_$s8Morpheus17SharedMutableDictCyxSgs11AnyHashableVciMTq', 
                       '_$s8Morpheus17SharedMutableDictCyxSgs11AnyHashableVcigTj', 
                       '_$s8Morpheus17SharedMutableDictCyxSgs11AnyHashableVcigTq', 
                       '_$s8Morpheus17SharedMutableDictCyxSgs11AnyHashableVcipMV', 
                       '_$s8Morpheus17SharedMutableDictCyxSgs11AnyHashableVcisTj', 
                       '_$s8Morpheus17SharedMutableDictCyxSgs11AnyHashableVcisTq', 
                       '_$s8Morpheus17StopWatchCallbackC14afterIteration_7outputsySi_SDySSAA9MLXTensor_pGtFTj', 
                       '_$s8Morpheus17StopWatchCallbackC14afterIteration_7outputsySi_SDySSAA9MLXTensor_pGtFTq', 
                       '_$s8Morpheus17StopWatchCallbackC15beforeIterationyySiFTj', 
                       '_$s8Morpheus17StopWatchCallbackC15beforeIterationyySiFTq', 
                       '_$s8Morpheus17StopWatchCallbackCAA010MLXTrainerD0AAMc', '_$s8Morpheus17StopWatchCallbackCAA010MLXTrainerD0AAWP', 
                       '_$s8Morpheus17StopWatchCallbackCMa', '_$s8Morpheus17StopWatchCallbackCMm', 
                       '_$s8Morpheus17StopWatchCallbackCMn', '_$s8Morpheus17StopWatchCallbackCMo', 
                       '_$s8Morpheus17StopWatchCallbackCMu', '_$s8Morpheus17StopWatchCallbackCN', 
                       '_$s8Morpheus17StopWatchCallbackCfD', '_$s8Morpheus17StopWatchCallbackCfd', 
                       '_$s8Morpheus18AnyErrorTypeBridgeMp', '_$s8Morpheus18AnyErrorTypeBridgeP7matchesySbs0C0_pFTj', 
                       '_$s8Morpheus18AnyErrorTypeBridgeP7matchesySbs0C0_pFTq', '_$s8Morpheus18AnyErrorTypeBridgeTL', 
                       '_$s8Morpheus18MLXTrainerCallbackMp', '_$s8Morpheus18MLXTrainerCallbackP14afterIteration_7outputsySi_SDySSAA9MLXTensor_pGtKFTj', 
                       '_$s8Morpheus18MLXTrainerCallbackP14afterIteration_7outputsySi_SDySSAA9MLXTensor_pGtKFTq', 
                       '_$s8Morpheus18MLXTrainerCallbackP15beforeIterationyySiKFTj', 
                       '_$s8Morpheus18MLXTrainerCallbackP15beforeIterationyySiKFTq', 
                       '_$s8Morpheus18MLXTrainerCallbackTL', '_$s8Morpheus18MembershipTestableMp', 
                       '_$s8Morpheus18MembershipTestableP4isIn5valueSbyp_tFTj', '_$s8Morpheus18MembershipTestableP4isIn5valueSbyp_tFTq', 
                       '_$s8Morpheus18MembershipTestableTL', '_$s8Morpheus18NNTrainHyperParamsV2eeoiySbAC_ACtFZ', 
                       '_$s8Morpheus18NNTrainHyperParamsV4fromACs7Decoder_p_tKcfC', 
                       '_$s8Morpheus18NNTrainHyperParamsV6encode2toys7Encoder_p_tKF', 
                       '_$s8Morpheus18NNTrainHyperParamsVMa', '_$s8Morpheus18NNTrainHyperParamsVMn', 
                       '_$s8Morpheus18NNTrainHyperParamsVN', '_$s8Morpheus18NNTrainHyperParamsVSEAAMc', 
                       '_$s8Morpheus18NNTrainHyperParamsVSQAAMc', '_$s8Morpheus18NNTrainHyperParamsVSeAAMc', 
                       '_$s8Morpheus18PyClassBoundMethodC3cls8functionAcA0bC0_p_AA8Callable_ptcfC', 
                       '_$s8Morpheus18PyClassBoundMethodC3cls8functionAcA0bC0_p_AA8Callable_ptcfCTj', 
                       '_$s8Morpheus18PyClassBoundMethodC3cls8functionAcA0bC0_p_AA8Callable_ptcfCTq', 
                       '_$s8Morpheus18PyClassBoundMethodC3cls8functionAcA0bC0_p_AA8Callable_ptcfc', 
                       '_$s8Morpheus18PyClassBoundMethodC3clsAA0bC0_pvg', '_$s8Morpheus18PyClassBoundMethodC3clsAA0bC0_pvpMV', 
                       '_$s8Morpheus18PyClassBoundMethodC4call4args8keywordsypSayypG_SDySSypGtYaKFTj', 
                       '_$s8Morpheus18PyClassBoundMethodC4call4args8keywordsypSayypG_SDySSypGtYaKFTjTu', 
                       '_$s8Morpheus18PyClassBoundMethodC4call4args8keywordsypSayypG_SDySSypGtYaKFTq', 
                       '_$s8Morpheus18PyClassBoundMethodC4nameSSvgTj', '_$s8Morpheus18PyClassBoundMethodC4nameSSvgTq', 
                       '_$s8Morpheus18PyClassBoundMethodC4nameSSvpMV', '_$s8Morpheus18PyClassBoundMethodC8functionAA8Callable_pvg', 
                       '_$s8Morpheus18PyClassBoundMethodC8functionAA8Callable_pvpMV', 
                       '_$s8Morpheus18PyClassBoundMethodC9__class__AA0bC0_pvgTj', 
                       '_$s8Morpheus18PyClassBoundMethodC9__class__AA0bC0_pvgTq', 
                       '_$s8Morpheus18PyClassBoundMethodC9__class__AA0bC0_pvpMV', 
                       '_$s8Morpheus18PyClassBoundMethodCAA0B6ObjectAAMc', '_$s8Morpheus18PyClassBoundMethodCAA0B6ObjectAAWP', 
                       '_$s8Morpheus18PyClassBoundMethodCAA8CallableAAMc', '_$s8Morpheus18PyClassBoundMethodCAA8CallableAAWP', 
                       '_$s8Morpheus18PyClassBoundMethodCMa', '_$s8Morpheus18PyClassBoundMethodCMm', 
                       '_$s8Morpheus18PyClassBoundMethodCMn', '_$s8Morpheus18PyClassBoundMethodCMo', 
                       '_$s8Morpheus18PyClassBoundMethodCMu', '_$s8Morpheus18PyClassBoundMethodCN', 
                       '_$s8Morpheus18PyClassBoundMethodCfD', '_$s8Morpheus18PyClassBoundMethodCfd', 
                       '_$s8Morpheus18SharedMutableArrayC03anyD0SayypGvg', '_$s8Morpheus18SharedMutableArrayC03anyD0SayypGvpMV', 
                       '_$s8Morpheus18SharedMutableArrayC10startIndexSivgTj', '_$s8Morpheus18SharedMutableArrayC10startIndexSivgTq', 
                       '_$s8Morpheus18SharedMutableArrayC10startIndexSivpMV', '_$s8Morpheus18SharedMutableArrayC12makeIterators08IndexingF0VySayxGGyFTj', 
                       '_$s8Morpheus18SharedMutableArrayC12makeIterators08IndexingF0VySayxGGyFTq', 
                       '_$s8Morpheus18SharedMutableArrayC19underestimatedCountSivgTj', 
                       '_$s8Morpheus18SharedMutableArrayC19underestimatedCountSivgTq', 
                       '_$s8Morpheus18SharedMutableArrayC19underestimatedCountSivpMV', 
                       '_$s8Morpheus18SharedMutableArrayC3addyypypKF', '_$s8Morpheus18SharedMutableArrayC3lenSiyF', 
                       '_$s8Morpheus18SharedMutableArrayC3mulyypypKF', '_$s8Morpheus18SharedMutableArrayC5arrayACyxGSayxG_tcfC', 
                       '_$s8Morpheus18SharedMutableArrayC5arrayACyxGSayxG_tcfCTj', 
                       '_$s8Morpheus18SharedMutableArrayC5arrayACyxGSayxG_tcfCTq', 
                       '_$s8Morpheus18SharedMutableArrayC5arrayACyxGSayxG_tcfc', 
                       '_$s8Morpheus18SharedMutableArrayC5arraySayxGvgTj', '_$s8Morpheus18SharedMutableArrayC5arraySayxGvgTq', 
                       '_$s8Morpheus18SharedMutableArrayC5arraySayxGvpMV', '_$s8Morpheus18SharedMutableArrayC5countSivgTj', 
                       '_$s8Morpheus18SharedMutableArrayC5countSivgTq', '_$s8Morpheus18SharedMutableArrayC5countSivpMV', 
                       '_$s8Morpheus18SharedMutableArrayC5index5afterS2i_tFTj', '_$s8Morpheus18SharedMutableArrayC5index5afterS2i_tFTq', 
                       '_$s8Morpheus18SharedMutableArrayC8endIndexSivgTj', '_$s8Morpheus18SharedMutableArrayC8endIndexSivgTq', 
                       '_$s8Morpheus18SharedMutableArrayC8endIndexSivpMV', '_$s8Morpheus18SharedMutableArrayC8iterators11AnyIteratorVyypGyF', 
                       '_$s8Morpheus18SharedMutableArrayC9__class__AA7PyClass_pvg', 
                       '_$s8Morpheus18SharedMutableArrayC9__class__AA7PyClass_pvpMV', 
                       '_$s8Morpheus18SharedMutableArrayCAASQRzlE2eeoiySbACyxG_AEtFZ', 
                       '_$s8Morpheus18SharedMutableArrayCAAypRszlE11descriptionSSvg', 
                       '_$s8Morpheus18SharedMutableArrayCAAypRszlE11descriptionSSvpMV', 
                       '_$s8Morpheus18SharedMutableArrayCAAypRszlE3getyypSgypKF', 
                       '_$s8Morpheus18SharedMutableArrayCAAypRszlE3has9attributeSbSS_tF', 
                       '_$s8Morpheus18SharedMutableArrayCAAypRszlE4isIn5valueSbyp_tF', 
                       '_$s8Morpheus18SharedMutableArrayCAAypRszlE5store3key3obj4kindyyp_ypAA15NameBindingKindOtF', 
                       '_$s8Morpheus18SharedMutableArrayCAAypRszlE9attribute3forypSgSS_tF', 
                       '_$s8Morpheus18SharedMutableArrayCMa', '_$s8Morpheus18SharedMutableArrayCMn', 
                       '_$s8Morpheus18SharedMutableArrayCMo', '_$s8Morpheus18SharedMutableArrayCMu', 
                       '_$s8Morpheus18SharedMutableArrayCfD', '_$s8Morpheus18SharedMutableArrayCfd', 
                       '_$s8Morpheus18SharedMutableArrayCyxGAA03AnyD9ContainerAAMc', 
                       '_$s8Morpheus18SharedMutableArrayCyxGAA03AnyD9ContainerAAWP', 
                       '_$s8Morpheus18SharedMutableArrayCyxGAA10TruthinessAAypRszlMc', 
                       '_$s8Morpheus18SharedMutableArrayCyxGAA10TruthinessAAypRszlWP', 
                       '_$s8Morpheus18SharedMutableArrayCyxGAA12AttributableAAypRszlMc', 
                       '_$s8Morpheus18SharedMutableArrayCyxGAA12AttributableAAypRszlWP', 
                       '_$s8Morpheus18SharedMutableArrayCyxGAA13MultiplicableAAMc', 
                       '_$s8Morpheus18SharedMutableArrayCyxGAA13MultiplicableAAWP', 
                       '_$s8Morpheus18SharedMutableArrayCyxGAA13SubscriptableAAypRszlMc', 
                       '_$s8Morpheus18SharedMutableArrayCyxGAA13SubscriptableAAypRszlWP', 
                       '_$s8Morpheus18SharedMutableArrayCyxGAA18MembershipTestableAAypRszlMc', 
                       '_$s8Morpheus18SharedMutableArrayCyxGAA18MembershipTestableAAypRszlWP', 
                       '_$s8Morpheus18SharedMutableArrayCyxGAA8LoopableAAMc', '_$s8Morpheus18SharedMutableArrayCyxGAA8LoopableAAWP', 
                       '_$s8Morpheus18SharedMutableArrayCyxGAA8PyObjectAAMc', '_$s8Morpheus18SharedMutableArrayCyxGAA8PyObjectAAWP', 
                       '_$s8Morpheus18SharedMutableArrayCyxGAA8StorableAAypRszlMc', 
                       '_$s8Morpheus18SharedMutableArrayCyxGAA8StorableAAypRszlWP', 
                       '_$s8Morpheus18SharedMutableArrayCyxGAA8SummableAAMc', '_$s8Morpheus18SharedMutableArrayCyxGAA8SummableAAWP', 
                       '_$s8Morpheus18SharedMutableArrayCyxGAA9CountableAAMc', '_$s8Morpheus18SharedMutableArrayCyxGAA9CountableAAWP', 
                       '_$s8Morpheus18SharedMutableArrayCyxGSQAASQRzlMc', '_$s8Morpheus18SharedMutableArrayCyxGSTAAMc', 
                       '_$s8Morpheus18SharedMutableArrayCyxGSlAAMc', '_$s8Morpheus18SharedMutableArrayCyxGs23CustomStringConvertibleAAypRszlMc', 
                       '_$s8Morpheus18SharedMutableArrayCyxSiciMTj', '_$s8Morpheus18SharedMutableArrayCyxSiciMTq', 
                       '_$s8Morpheus18SharedMutableArrayCyxSicigTj', '_$s8Morpheus18SharedMutableArrayCyxSicigTq', 
                       '_$s8Morpheus18SharedMutableArrayCyxSicipMV', '_$s8Morpheus18SharedMutableArrayCyxSicisTj', 
                       '_$s8Morpheus18SharedMutableArrayCyxSicisTq', '_$s8Morpheus20PyBuiltInCustomClassC12nextMROClass04fromF0AA0bF0_pSgAaF_p_tKF', 
                       '_$s8Morpheus20PyBuiltInCustomClassC3mroSaySSGvg', '_$s8Morpheus20PyBuiltInCustomClassC3mroSaySSGvpMV', 
                       '_$s8Morpheus20PyBuiltInCustomClassC4call4args8keywordsypSayypG_SDySSypGtYaKF', 
                       '_$s8Morpheus20PyBuiltInCustomClassC4call4args8keywordsypSayypG_SDySSypGtYaKFTu', 
                       '_$s8Morpheus20PyBuiltInCustomClassC5basesSayAA0bF0_pGvg', 
                       '_$s8Morpheus20PyBuiltInCustomClassC5basesSayAA0bF0_pGvpMV', 
                       '_$s8Morpheus20PyBuiltInCustomClassC6fqNameSSvg', '_$s8Morpheus20PyBuiltInCustomClassC6fqNameSSvpMV', 
                       '_$s8Morpheus20PyBuiltInCustomClassC7contextAA14LexicalContextCvg', 
                       '_$s8Morpheus20PyBuiltInCustomClassC7contextAA14LexicalContextCvpMV', 
                       '_$s8Morpheus20PyBuiltInCustomClassC9classNameSSvg', '_$s8Morpheus20PyBuiltInCustomClassC9classNameSSvpMV', 
                       '_$s8Morpheus20PyBuiltInCustomClassCAA0B6ObjectAAMc', '_$s8Morpheus20PyBuiltInCustomClassCAA0B6ObjectAAWP', 
                       '_$s8Morpheus20PyBuiltInCustomClassCAA0bF0AAMc', '_$s8Morpheus20PyBuiltInCustomClassCAA0bF0AAWP', 
                       '_$s8Morpheus20PyBuiltInCustomClassCAA12AttributableAAMc', 
                       '_$s8Morpheus20PyBuiltInCustomClassCAA12AttributableAAWP', 
                       '_$s8Morpheus20PyBuiltInCustomClassCAA8CallableAAMc', '_$s8Morpheus20PyBuiltInCustomClassCAA8CallableAAWP', 
                       '_$s8Morpheus20PyBuiltInCustomClassCAA8StorableAAMc', '_$s8Morpheus20PyBuiltInCustomClassCAA8StorableAAWP', 
                       '_$s8Morpheus20PyBuiltInCustomClassCMa', '_$s8Morpheus20PyBuiltInCustomClassCMm', 
                       '_$s8Morpheus20PyBuiltInCustomClassCMn', '_$s8Morpheus20PyBuiltInCustomClassCMo', 
                       '_$s8Morpheus20PyBuiltInCustomClassCMu', '_$s8Morpheus20PyBuiltInCustomClassCN', 
                       '_$s8Morpheus20PyBuiltInCustomClassCSQAAMc', '_$s8Morpheus20PyBuiltInCustomClassCfD', 
                       '_$s8Morpheus20PyBuiltInCustomClassCfd', '_$s8Morpheus20SequentialMLXTrainerC13evalFunctionsSayAA11MLXFunctionVGvg', 
                       '_$s8Morpheus20SequentialMLXTrainerC13evalFunctionsSayAA11MLXFunctionVGvpMV', 
                       '_$s8Morpheus20SequentialMLXTrainerC14trainFunctions04evalE022trainableWeightsLoader23additionalInputsLoaders15checkpointsTypeACSayAA11MLXFunctionVG_AkA09MLXArraysI0_pSDySSAaL_pGAA011CheckpointsN0OtYaKcfC', 
                       '_$s8Morpheus20SequentialMLXTrainerC14trainFunctions04evalE022trainableWeightsLoader23additionalInputsLoaders15checkpointsTypeACSayAA11MLXFunctionVG_AkA09MLXArraysI0_pSDySSAaL_pGAA011CheckpointsN0OtYaKcfCTj', 
                       '_$s8Morpheus20SequentialMLXTrainerC14trainFunctions04evalE022trainableWeightsLoader23additionalInputsLoaders15checkpointsTypeACSayAA11MLXFunctionVG_AkA09MLXArraysI0_pSDySSAaL_pGAA011CheckpointsN0OtYaKcfCTjTu', 
                       '_$s8Morpheus20SequentialMLXTrainerC14trainFunctions04evalE022trainableWeightsLoader23additionalInputsLoaders15checkpointsTypeACSayAA11MLXFunctionVG_AkA09MLXArraysI0_pSDySSAaL_pGAA011CheckpointsN0OtYaKcfCTq', 
                       '_$s8Morpheus20SequentialMLXTrainerC14trainFunctions04evalE022trainableWeightsLoader23additionalInputsLoaders15checkpointsTypeACSayAA11MLXFunctionVG_AkA09MLXArraysI0_pSDySSAaL_pGAA011CheckpointsN0OtYaKcfCTu', 
                       '_$s8Morpheus20SequentialMLXTrainerC14trainFunctions04evalE022trainableWeightsLoader23additionalInputsLoaders15checkpointsTypeACSayAA11MLXFunctionVG_AkA09MLXArraysI0_pSDySSAaL_pGAA011CheckpointsN0OtYaKcfc', 
                       '_$s8Morpheus20SequentialMLXTrainerC14trainFunctions04evalE022trainableWeightsLoader23additionalInputsLoaders15checkpointsTypeACSayAA11MLXFunctionVG_AkA09MLXArraysI0_pSDySSAaL_pGAA011CheckpointsN0OtYaKcfcTu', 
                       '_$s8Morpheus20SequentialMLXTrainerC14trainFunctionsSayAA11MLXFunctionVGvg', 
                       '_$s8Morpheus20SequentialMLXTrainerC14trainFunctionsSayAA11MLXFunctionVGvpMV', 
                       '_$s8Morpheus20SequentialMLXTrainerC23additionalInputsLoadersSDySSAA15MLXArraysLoader_pGvg', 
                       '_$s8Morpheus20SequentialMLXTrainerC23additionalInputsLoadersSDySSAA15MLXArraysLoader_pGvpMV', 
                       '_$s8Morpheus20SequentialMLXTrainerC8modelDir23additionalInputsLoaders15checkpointsTypeAC10Foundation3URLV_SDySSAA15MLXArraysLoader_pGSgAA011CheckpointsJ0OtYaKcfC', 
                       '_$s8Morpheus20SequentialMLXTrainerC8modelDir23additionalInputsLoaders15checkpointsTypeAC10Foundation3URLV_SDySSAA15MLXArraysLoader_pGSgAA011CheckpointsJ0OtYaKcfCTu', 
                       '_$s8Morpheus20SequentialMLXTrainerC9attribute3forypSgSS_tF', 
                       '_$s8Morpheus20SequentialMLXTrainerCAA12AttributableAAMc', 
                       '_$s8Morpheus20SequentialMLXTrainerCAA12AttributableAAWP', 
                       '_$s8Morpheus20SequentialMLXTrainerCMa', '_$s8Morpheus20SequentialMLXTrainerCMm', 
                       '_$s8Morpheus20SequentialMLXTrainerCMn', '_$s8Morpheus20SequentialMLXTrainerCMo', 
                       '_$s8Morpheus20SequentialMLXTrainerCMu', '_$s8Morpheus20SequentialMLXTrainerCN', 
                       '_$s8Morpheus20SequentialMLXTrainerCfD', '_$s8Morpheus20SequentialMLXTrainerCfd', 
                       '_$s8Morpheus20SharedImmutableTupleC10startIndexSivgTj', '_$s8Morpheus20SharedImmutableTupleC10startIndexSivgTq', 
                       '_$s8Morpheus20SharedImmutableTupleC10startIndexSivpMV', '_$s8Morpheus20SharedImmutableTupleC12makeIterators08IndexingF0VySayxGGyFTj', 
                       '_$s8Morpheus20SharedImmutableTupleC12makeIterators08IndexingF0VySayxGGyFTq', 
                       '_$s8Morpheus20SharedImmutableTupleC19underestimatedCountSivgTj', 
                       '_$s8Morpheus20SharedImmutableTupleC19underestimatedCountSivgTq', 
                       '_$s8Morpheus20SharedImmutableTupleC19underestimatedCountSivpMV', 
                       '_$s8Morpheus20SharedImmutableTupleC3addyypypKF', '_$s8Morpheus20SharedImmutableTupleC3lenSiyF', 
                       '_$s8Morpheus20SharedImmutableTupleC3mulyypypKF', '_$s8Morpheus20SharedImmutableTupleC5arrayACyxGSayxG_tcfC', 
                       '_$s8Morpheus20SharedImmutableTupleC5arrayACyxGSayxG_tcfCTj', 
                       '_$s8Morpheus20SharedImmutableTupleC5arrayACyxGSayxG_tcfCTq', 
                       '_$s8Morpheus20SharedImmutableTupleC5arrayACyxGSayxG_tcfc', 
                       '_$s8Morpheus20SharedImmutableTupleC5arraySayxGvgTj', '_$s8Morpheus20SharedImmutableTupleC5arraySayxGvgTq', 
                       '_$s8Morpheus20SharedImmutableTupleC5arraySayxGvpMV', '_$s8Morpheus20SharedImmutableTupleC5countSivgTj', 
                       '_$s8Morpheus20SharedImmutableTupleC5countSivgTq', '_$s8Morpheus20SharedImmutableTupleC5countSivpMV', 
                       '_$s8Morpheus20SharedImmutableTupleC5index5afterS2i_tFTj', 
                       '_$s8Morpheus20SharedImmutableTupleC5index5afterS2i_tFTq', 
                       '_$s8Morpheus20SharedImmutableTupleC8anyArraySayypGvg', '_$s8Morpheus20SharedImmutableTupleC8anyArraySayypGvpMV', 
                       '_$s8Morpheus20SharedImmutableTupleC8endIndexSivgTj', '_$s8Morpheus20SharedImmutableTupleC8endIndexSivgTq', 
                       '_$s8Morpheus20SharedImmutableTupleC8endIndexSivpMV', '_$s8Morpheus20SharedImmutableTupleC8iterators11AnyIteratorVyypGyF', 
                       '_$s8Morpheus20SharedImmutableTupleC9__class__AA7PyClass_pvg', 
                       '_$s8Morpheus20SharedImmutableTupleC9__class__AA7PyClass_pvpMV', 
                       '_$s8Morpheus20SharedImmutableTupleCAAypRszlE11descriptionSSvg', 
                       '_$s8Morpheus20SharedImmutableTupleCAAypRszlE11descriptionSSvpMV', 
                       '_$s8Morpheus20SharedImmutableTupleCAAypRszlE3getyypSgypKF', 
                       '_$s8Morpheus20SharedImmutableTupleCMa', '_$s8Morpheus20SharedImmutableTupleCMn', 
                       '_$s8Morpheus20SharedImmutableTupleCMo', '_$s8Morpheus20SharedImmutableTupleCMu', 
                       '_$s8Morpheus20SharedImmutableTupleCfD', '_$s8Morpheus20SharedImmutableTupleCfd', 
                       '_$s8Morpheus20SharedImmutableTupleCyxGAA13MultiplicableAAMc', 
                       '_$s8Morpheus20SharedImmutableTupleCyxGAA13MultiplicableAAWP', 
                       '_$s8Morpheus20SharedImmutableTupleCyxGAA13SubscriptableAAypRszlMc', 
                       '_$s8Morpheus20SharedImmutableTupleCyxGAA13SubscriptableAAypRszlWP', 
                       '_$s8Morpheus20SharedImmutableTupleCyxGAA17AnyArrayContainerAAMc', 
                       '_$s8Morpheus20SharedImmutableTupleCyxGAA17AnyArrayContainerAAWP', 
                       '_$s8Morpheus20SharedImmutableTupleCyxGAA8LoopableAAMc', '_$s8Morpheus20SharedImmutableTupleCyxGAA8LoopableAAWP', 
                       '_$s8Morpheus20SharedImmutableTupleCyxGAA8PyObjectAAMc', '_$s8Morpheus20SharedImmutableTupleCyxGAA8PyObjectAAWP', 
                       '_$s8Morpheus20SharedImmutableTupleCyxGAA8SummableAAMc', '_$s8Morpheus20SharedImmutableTupleCyxGAA8SummableAAWP', 
                       '_$s8Morpheus20SharedImmutableTupleCyxGAA9CountableAAMc', 
                       '_$s8Morpheus20SharedImmutableTupleCyxGAA9CountableAAWP', 
                       '_$s8Morpheus20SharedImmutableTupleCyxGSTAAMc', '_$s8Morpheus20SharedImmutableTupleCyxGSlAAMc', 
                       '_$s8Morpheus20SharedImmutableTupleCyxGs23CustomStringConvertibleAAypRszlMc', 
                       '_$s8Morpheus20SharedImmutableTupleCyxSiciMTj', '_$s8Morpheus20SharedImmutableTupleCyxSiciMTq', 
                       '_$s8Morpheus20SharedImmutableTupleCyxSicigTj', '_$s8Morpheus20SharedImmutableTupleCyxSicigTq', 
                       '_$s8Morpheus20SharedImmutableTupleCyxSicipMV', '_$s8Morpheus20SharedImmutableTupleCyxSicisTj', 
                       '_$s8Morpheus20SharedImmutableTupleCyxSicisTq', '_$s8Morpheus21PyInstanceBoundMethodC4call4args8keywordsypSayypG_SDySSypGtYaKFTj', 
                       '_$s8Morpheus21PyInstanceBoundMethodC4call4args8keywordsypSayypG_SDySSypGtYaKFTjTu', 
                       '_$s8Morpheus21PyInstanceBoundMethodC4call4args8keywordsypSayypG_SDySSypGtYaKFTq', 
                       '_$s8Morpheus21PyInstanceBoundMethodC4nameSSvgTj', '_$s8Morpheus21PyInstanceBoundMethodC4nameSSvgTq', 
                       '_$s8Morpheus21PyInstanceBoundMethodC4nameSSvpMV', '_$s8Morpheus21PyInstanceBoundMethodC8functionAA8Callable_pvg', 
                       '_$s8Morpheus21PyInstanceBoundMethodC8functionAA8Callable_pvpMV', 
                       '_$s8Morpheus21PyInstanceBoundMethodC8instance8functionAcA0bC0C_AA8Callable_ptcfC', 
                       '_$s8Morpheus21PyInstanceBoundMethodC8instance8functionAcA0bC0C_AA8Callable_ptcfCTj', 
                       '_$s8Morpheus21PyInstanceBoundMethodC8instance8functionAcA0bC0C_AA8Callable_ptcfCTq', 
                       '_$s8Morpheus21PyInstanceBoundMethodC8instance8functionAcA0bC0C_AA8Callable_ptcfc', 
                       '_$s8Morpheus21PyInstanceBoundMethodC8instanceAA0bC0Cvg', 
                       '_$s8Morpheus21PyInstanceBoundMethodC8instanceAA0bC0CvpMV', 
                       '_$s8Morpheus21PyInstanceBoundMethodC9__class__AA0B5Class_pvgTj', 
                       '_$s8Morpheus21PyInstanceBoundMethodC9__class__AA0B5Class_pvgTq', 
                       '_$s8Morpheus21PyInstanceBoundMethodC9__class__AA0B5Class_pvpMV', 
                       '_$s8Morpheus21PyInstanceBoundMethodCAA0B6ObjectAAMc', '_$s8Morpheus21PyInstanceBoundMethodCAA0B6ObjectAAWP', 
                       '_$s8Morpheus21PyInstanceBoundMethodCAA8CallableAAMc', '_$s8Morpheus21PyInstanceBoundMethodCAA8CallableAAWP', 
                       '_$s8Morpheus21PyInstanceBoundMethodCMa', '_$s8Morpheus21PyInstanceBoundMethodCMm', 
                       '_$s8Morpheus21PyInstanceBoundMethodCMn', '_$s8Morpheus21PyInstanceBoundMethodCMo', 
                       '_$s8Morpheus21PyInstanceBoundMethodCMu', '_$s8Morpheus21PyInstanceBoundMethodCN', 
                       '_$s8Morpheus21PyInstanceBoundMethodCfD', '_$s8Morpheus21PyInstanceBoundMethodCfd', 
                       '_$s8Morpheus23CombinedMLXArraysLoaderV4loadSDySSAA9MLXTensor_pGyYaKF', 
                       '_$s8Morpheus23CombinedMLXArraysLoaderV4loadSDySSAA9MLXTensor_pGyYaKFTu', 
                       '_$s8Morpheus23CombinedMLXArraysLoaderV7loadersSayAA0cD0_pGvg', 
                       '_$s8Morpheus23CombinedMLXArraysLoaderV7loadersSayAA0cD0_pGvpMV', 
                       '_$s8Morpheus23CombinedMLXArraysLoaderV9attribute3forypSgSS_tF', 
                       '_$s8Morpheus23CombinedMLXArraysLoaderVAA0cD0AAMc', '_$s8Morpheus23CombinedMLXArraysLoaderVAA0cD0AAWP', 
                       '_$s8Morpheus23CombinedMLXArraysLoaderVAA12AttributableAAMc', 
                       '_$s8Morpheus23CombinedMLXArraysLoaderVAA12AttributableAAWP', 
                       '_$s8Morpheus23CombinedMLXArraysLoaderVMa', '_$s8Morpheus23CombinedMLXArraysLoaderVMn', 
                       '_$s8Morpheus23CombinedMLXArraysLoaderVN', '_$s8Morpheus25EnumeratedShapeMLXTrainerC12evalFunctionAA0bC11MLXFunctionVvg', 
                       '_$s8Morpheus25EnumeratedShapeMLXTrainerC12evalFunctionAA0bC11MLXFunctionVvpMV', 
                       '_$s8Morpheus25EnumeratedShapeMLXTrainerC13trainFunction04evalF022trainableWeightsLoader016additionalInputsJ0AcA0bC11MLXFunctionV_AiA09MLXArraysJ0_pAaJ_pSgtYaKcfC', 
                       '_$s8Morpheus25EnumeratedShapeMLXTrainerC13trainFunction04evalF022trainableWeightsLoader016additionalInputsJ0AcA0bC11MLXFunctionV_AiA09MLXArraysJ0_pAaJ_pSgtYaKcfCTj', 
                       '_$s8Morpheus25EnumeratedShapeMLXTrainerC13trainFunction04evalF022trainableWeightsLoader016additionalInputsJ0AcA0bC11MLXFunctionV_AiA09MLXArraysJ0_pAaJ_pSgtYaKcfCTjTu', 
                       '_$s8Morpheus25EnumeratedShapeMLXTrainerC13trainFunction04evalF022trainableWeightsLoader016additionalInputsJ0AcA0bC11MLXFunctionV_AiA09MLXArraysJ0_pAaJ_pSgtYaKcfCTq', 
                       '_$s8Morpheus25EnumeratedShapeMLXTrainerC13trainFunction04evalF022trainableWeightsLoader016additionalInputsJ0AcA0bC11MLXFunctionV_AiA09MLXArraysJ0_pAaJ_pSgtYaKcfCTu', 
                       '_$s8Morpheus25EnumeratedShapeMLXTrainerC13trainFunction04evalF022trainableWeightsLoader016additionalInputsJ0AcA0bC11MLXFunctionV_AiA09MLXArraysJ0_pAaJ_pSgtYaKcfc', 
                       '_$s8Morpheus25EnumeratedShapeMLXTrainerC13trainFunction04evalF022trainableWeightsLoader016additionalInputsJ0AcA0bC11MLXFunctionV_AiA09MLXArraysJ0_pAaJ_pSgtYaKcfcTu', 
                       '_$s8Morpheus25EnumeratedShapeMLXTrainerC13trainFunctionAA0bC11MLXFunctionVvg', 
                       '_$s8Morpheus25EnumeratedShapeMLXTrainerC13trainFunctionAA0bC11MLXFunctionVvpMV', 
                       '_$s8Morpheus25EnumeratedShapeMLXTrainerC8modelDirAC10Foundation3URLV_tYaKcfC', 
                       '_$s8Morpheus25EnumeratedShapeMLXTrainerC8modelDirAC10Foundation3URLV_tYaKcfCTu', 
                       '_$s8Morpheus25EnumeratedShapeMLXTrainerC9attribute3forypSgSS_tF', 
                       '_$s8Morpheus25EnumeratedShapeMLXTrainerCAA12AttributableAAMc', 
                       '_$s8Morpheus25EnumeratedShapeMLXTrainerCAA12AttributableAAWP', 
                       '_$s8Morpheus25EnumeratedShapeMLXTrainerCMa', '_$s8Morpheus25EnumeratedShapeMLXTrainerCMm', 
                       '_$s8Morpheus25EnumeratedShapeMLXTrainerCMn', '_$s8Morpheus25EnumeratedShapeMLXTrainerCMo', 
                       '_$s8Morpheus25EnumeratedShapeMLXTrainerCMu', '_$s8Morpheus25EnumeratedShapeMLXTrainerCN', 
                       '_$s8Morpheus25EnumeratedShapeMLXTrainerCfD', '_$s8Morpheus25EnumeratedShapeMLXTrainerCfd', 
                       '_$s8Morpheus25FunctionalMLXArraysLoaderV4argsSayypGvg', '_$s8Morpheus25FunctionalMLXArraysLoaderV4argsSayypGvpMV', 
                       '_$s8Morpheus25FunctionalMLXArraysLoaderV4loadSDySSAA9MLXTensor_pGyYaKF', 
                       '_$s8Morpheus25FunctionalMLXArraysLoaderV4loadSDySSAA9MLXTensor_pGyYaKFTu', 
                       '_$s8Morpheus25FunctionalMLXArraysLoaderV8functionAA8FunctionCvg', 
                       '_$s8Morpheus25FunctionalMLXArraysLoaderV8functionAA8FunctionCvpMV', 
                       '_$s8Morpheus25FunctionalMLXArraysLoaderV8keywordsSDySSypGvg', 
                       '_$s8Morpheus25FunctionalMLXArraysLoaderV8keywordsSDySSypGvpMV', 
                       '_$s8Morpheus25FunctionalMLXArraysLoaderV9attribute3forypSgSS_tF', 
                       '_$s8Morpheus25FunctionalMLXArraysLoaderVAA0cD0AAMc', '_$s8Morpheus25FunctionalMLXArraysLoaderVAA0cD0AAWP', 
                       '_$s8Morpheus25FunctionalMLXArraysLoaderVAA12AttributableAAMc', 
                       '_$s8Morpheus25FunctionalMLXArraysLoaderVAA12AttributableAAWP', 
                       '_$s8Morpheus25FunctionalMLXArraysLoaderVMa', '_$s8Morpheus25FunctionalMLXArraysLoaderVMn', 
                       '_$s8Morpheus25FunctionalMLXArraysLoaderVN', '_$s8Morpheus25PyBuiltInFunctionOrMethodC4name9arguments5attrs4bodyACSS_AA9ArgumentsVSDySSypGypSgAJKcSgtcfC', 
                       '_$s8Morpheus25PyBuiltInFunctionOrMethodC4name9arguments5attrs4bodyACSS_AA9ArgumentsVSDySSypGypSgAJKcSgtcfc', 
                       '_$s8Morpheus25PyBuiltInFunctionOrMethodC4name9arguments5attrs4bodyACSS_AA9ArgumentsVSDySSypGypSgAJYaKcSgtcfC', 
                       '_$s8Morpheus25PyBuiltInFunctionOrMethodC4name9arguments5attrs4bodyACSS_AA9ArgumentsVSDySSypGypSgAJYaKcSgtcfc', 
                       '_$s8Morpheus25PyBuiltInFunctionOrMethodC9__class__AA0B5Class_pvgTj', 
                       '_$s8Morpheus25PyBuiltInFunctionOrMethodC9__class__AA0B5Class_pvgTq', 
                       '_$s8Morpheus25PyBuiltInFunctionOrMethodC9__class__AA0B5Class_pvpMV', 
                       '_$s8Morpheus25PyBuiltInFunctionOrMethodCAA0B6ObjectAAMc', 
                       '_$s8Morpheus25PyBuiltInFunctionOrMethodCAA0B6ObjectAAWP', 
                       '_$s8Morpheus25PyBuiltInFunctionOrMethodCMa', '_$s8Morpheus25PyBuiltInFunctionOrMethodCMm', 
                       '_$s8Morpheus25PyBuiltInFunctionOrMethodCMn', '_$s8Morpheus25PyBuiltInFunctionOrMethodCMo', 
                       '_$s8Morpheus25PyBuiltInFunctionOrMethodCMu', '_$s8Morpheus25PyBuiltInFunctionOrMethodCN', 
                       '_$s8Morpheus25PyBuiltInFunctionOrMethodCfD', '_$s8Morpheus25PyBuiltInFunctionOrMethodCfd', 
                       '_$s8Morpheus26EnumeratedShapeMLXFunctionV0bC0V2eeoiySbAE_AEtFZ', 
                       '_$s8Morpheus26EnumeratedShapeMLXFunctionV0bC0V4hash4intoys6HasherVz_tF', 
                       '_$s8Morpheus26EnumeratedShapeMLXFunctionV0bC0V6shapesSaySaySiGGvg', 
                       '_$s8Morpheus26EnumeratedShapeMLXFunctionV0bC0V6shapesSaySaySiGGvpMV', 
                       '_$s8Morpheus26EnumeratedShapeMLXFunctionV0bC0V9hashValueSivg', 
                       '_$s8Morpheus26EnumeratedShapeMLXFunctionV0bC0V9hashValueSivpMV', 
                       '_$s8Morpheus26EnumeratedShapeMLXFunctionV0bC0VMa', '_$s8Morpheus26EnumeratedShapeMLXFunctionV0bC0VMn', 
                       '_$s8Morpheus26EnumeratedShapeMLXFunctionV0bC0VN', '_$s8Morpheus26EnumeratedShapeMLXFunctionV0bC0VSHAAMc', 
                       '_$s8Morpheus26EnumeratedShapeMLXFunctionV0bC0VSQAAMc', '_$s8Morpheus26EnumeratedShapeMLXFunctionV0bC0VyAEST_pSaySiG7ElementSTRts_XPcfC', 
                       '_$s8Morpheus26EnumeratedShapeMLXFunctionV8fromJSONyAC10Foundation3URLVKFZ', 
                       '_$s8Morpheus26EnumeratedShapeMLXFunctionV9functionsSDyAC0bC0VAA0D0VGvg', 
                       '_$s8Morpheus26EnumeratedShapeMLXFunctionV9functionsSDyAC0bC0VAA0D0VGvpMV', 
                       '_$s8Morpheus26EnumeratedShapeMLXFunctionVMa', '_$s8Morpheus26EnumeratedShapeMLXFunctionVMn', 
                       '_$s8Morpheus26EnumeratedShapeMLXFunctionVN', '_$s8Morpheus5FrameC5store3key3obj4kindyyp_ypAA15NameBindingKindOtKF', 
                       '_$s8Morpheus5FrameCAA8StorableAAMc', '_$s8Morpheus5FrameCAA8StorableAAWP', 
                       '_$s8Morpheus5FrameCMa', '_$s8Morpheus5FrameCMm', '_$s8Morpheus5FrameCMn', 
                       '_$s8Morpheus5FrameCMo', '_$s8Morpheus5FrameCMu', '_$s8Morpheus5FrameCN', 
                       '_$s8Morpheus5FrameCfD', '_$s8Morpheus5FrameCfd', '_$s8Morpheus5NumpyO14tryGetIntArrayySaySiGSgSDySSypG_SStFZ', 
                       '_$s8Morpheus5NumpyO9tryGetIntySiSgSDySSypG_SStFZ', '_$s8Morpheus5NumpyOMa', 
                       '_$s8Morpheus5NumpyOMn', '_$s8Morpheus5NumpyON', '_$s8Morpheus6ScalarMp', 
                       '_$s8Morpheus7AnyDateMp', '_$s8Morpheus7AnyDateP4date10Foundation0C0VvgTj', 
                       '_$s8Morpheus7AnyDateP4date10Foundation0C0VvgTq', '_$s8Morpheus7AnyDateTL', 
                       '_$s8Morpheus7PyClassMp', '_$s8Morpheus7PyClassP12nextMROClass04fromC0AaB_pSgAaB_p_tKFTj', 
                       '_$s8Morpheus7PyClassP12nextMROClass04fromC0AaB_pSgAaB_p_tKFTq', 
                       '_$s8Morpheus7PyClassP3mroSaySSGvgTj', '_$s8Morpheus7PyClassP3mroSaySSGvgTq', 
                       '_$s8Morpheus7PyClassP5basesSayAaB_pGvgTj', '_$s8Morpheus7PyClassP5basesSayAaB_pGvgTq', 
                       '_$s8Morpheus7PyClassP6fqNameSSvgTj', '_$s8Morpheus7PyClassP6fqNameSSvgTq', 
                       '_$s8Morpheus7PyClassP7contextAA14LexicalContextCvgTj', '_$s8Morpheus7PyClassP7contextAA14LexicalContextCvgTq', 
                       '_$s8Morpheus7PyClassP9classNameSSvgTj', '_$s8Morpheus7PyClassP9classNameSSvgTq', 
                       '_$s8Morpheus7PyClassPAA0B6ObjectTb', '_$s8Morpheus7PyClassPAA12AttributableTb', 
                       '_$s8Morpheus7PyClassPAA8CallableTb', '_$s8Morpheus7PyClassPAA8StorableTb', 
                       '_$s8Morpheus7PyClassPAAE04baseC7ForNameyAaB_pSgSSF', '_$s8Morpheus7PyClassPAAE2eeoiySbx_xtFZ', 
                       '_$s8Morpheus7PyClassPAAE3has9attributeSbSS_tF', '_$s8Morpheus7PyClassPAAE4nameSSvg', 
                       '_$s8Morpheus7PyClassPAAE4nameSSvpMV', '_$s8Morpheus7PyClassPAAE5store3key3obj4kindyyp_ypAA15NameBindingKindOtF', 
                       '_$s8Morpheus7PyClassPAAE9__class__AaB_pvg', '_$s8Morpheus7PyClassPAAE9__class__AaB_pvpMV', 
                       '_$s8Morpheus7PyClassPAAE9attribute3forypSgSS_tF', '_$s8Morpheus7PyClassPSQTb', 
                       '_$s8Morpheus7PyClassTL', '_$s8Morpheus7resolve4axis4ndimS2i_SitF', 
                       '_$s8Morpheus8CallableMp', '_$s8Morpheus8CallableP4call4args8keywordsypSayypG_SDySSypGtYaKFTj', 
                       '_$s8Morpheus8CallableP4call4args8keywordsypSayypG_SDySSypGtYaKFTjTu', 
                       '_$s8Morpheus8CallableP4call4args8keywordsypSayypG_SDySSypGtYaKFTq', 
                       '_$s8Morpheus8CallableP4nameSSvgTj', '_$s8Morpheus8CallableP4nameSSvgTq', 
                       '_$s8Morpheus8CallableTL', '_$s8Morpheus8EllipsisVMa', '_$s8Morpheus8EllipsisVMn', 
                       '_$s8Morpheus8EllipsisVN', '_$s8Morpheus8EnumCaseC11constructorAA8FunctionCvg', 
                       '_$s8Morpheus8EnumCaseC11constructorAA8FunctionCvpMV', '_$s8Morpheus8EnumCaseC3has9attributeSbSS_tF', 
                       '_$s8Morpheus8EnumCaseC4call4args8keywordsypSayypG_SDySSypGtYaKF', 
                       '_$s8Morpheus8EnumCaseC4call4args8keywordsypSayypG_SDySSypGtYaKFTu', 
                       '_$s8Morpheus8EnumCaseC4nameSSvg', '_$s8Morpheus8EnumCaseC4nameSSvpMV', 
                       '_$s8Morpheus8EnumCaseC8caseName11constructorACyxGSS_AA8FunctionCtcfC', 
                       '_$s8Morpheus8EnumCaseC8caseName11constructorACyxGSS_AA8FunctionCtcfCTj', 
                       '_$s8Morpheus8EnumCaseC8caseName11constructorACyxGSS_AA8FunctionCtcfCTq', 
                       '_$s8Morpheus8EnumCaseC8caseName11constructorACyxGSS_AA8FunctionCtcfc', 
                       '_$s8Morpheus8EnumCaseC8caseName9arguments4bodyACyxGSS_AA9ArgumentsVxSDySSypGKctcfC', 
                       '_$s8Morpheus8EnumCaseC8caseNameSSvg', '_$s8Morpheus8EnumCaseC8caseNameSSvpMV', 
                       '_$s8Morpheus8EnumCaseC9attribute3forypSgSS_tF', '_$s8Morpheus8EnumCaseCMa', 
                       '_$s8Morpheus8EnumCaseCMn', '_$s8Morpheus8EnumCaseCMo', '_$s8Morpheus8EnumCaseCMu', 
                       '_$s8Morpheus8EnumCaseCfD', '_$s8Morpheus8EnumCaseCfd', '_$s8Morpheus8EnumCaseCyxGAA12AttributableAAMc', 
                       '_$s8Morpheus8EnumCaseCyxGAA12AttributableAAWP', '_$s8Morpheus8EnumCaseCyxGAA8CallableAAMc', 
                       '_$s8Morpheus8EnumCaseCyxGAA8CallableAAWP', '_$s8Morpheus8FunctionC3has9attributeSbSS_tFTj', 
                       '_$s8Morpheus8FunctionC3has9attributeSbSS_tFTq', '_$s8Morpheus8FunctionC4call4args8keywordsypSayypG_SDySSypGtYaKFTj', 
                       '_$s8Morpheus8FunctionC4call4args8keywordsypSayypG_SDySSypGtYaKFTjTu', 
                       '_$s8Morpheus8FunctionC4call4args8keywordsypSayypG_SDySSypGtYaKFTq', 
                       '_$s8Morpheus8FunctionC4name9arguments5attrs4bodyACSS_AA9ArgumentsVSDySSypGypSgAJKcSgtcfC', 
                       '_$s8Morpheus8FunctionC4name9arguments5attrs4bodyACSS_AA9ArgumentsVSDySSypGypSgAJKcSgtcfCTj', 
                       '_$s8Morpheus8FunctionC4name9arguments5attrs4bodyACSS_AA9ArgumentsVSDySSypGypSgAJKcSgtcfCTq', 
                       '_$s8Morpheus8FunctionC4name9arguments5attrs4bodyACSS_AA9ArgumentsVSDySSypGypSgAJKcSgtcfc', 
                       '_$s8Morpheus8FunctionC4name9arguments5attrs4bodyACSS_AA9ArgumentsVSDySSypGypSgAJYaKcSgtcfC', 
                       '_$s8Morpheus8FunctionC4name9arguments5attrs4bodyACSS_AA9ArgumentsVSDySSypGypSgAJYaKcSgtcfCTj', 
                       '_$s8Morpheus8FunctionC4name9arguments5attrs4bodyACSS_AA9ArgumentsVSDySSypGypSgAJYaKcSgtcfCTq', 
                       '_$s8Morpheus8FunctionC4name9arguments5attrs4bodyACSS_AA9ArgumentsVSDySSypGypSgAJYaKcSgtcfc', 
                       '_$s8Morpheus8FunctionC4nameSSvg', '_$s8Morpheus8FunctionC4nameSSvpMV', 
                       '_$s8Morpheus8FunctionC5store3key3obj4kindyyp_ypAA15NameBindingKindOtFTj', 
                       '_$s8Morpheus8FunctionC5store3key3obj4kindyyp_ypAA15NameBindingKindOtFTq', 
                       '_$s8Morpheus8FunctionC9attribute3forypSgSS_tFTj', '_$s8Morpheus8FunctionC9attribute3forypSgSS_tFTq', 
                       '_$s8Morpheus8FunctionCAA12AttributableAAMc', '_$s8Morpheus8FunctionCAA12AttributableAAWP', 
                       '_$s8Morpheus8FunctionCAA8CallableAAMc', '_$s8Morpheus8FunctionCAA8CallableAAWP', 
                       '_$s8Morpheus8FunctionCAA8StorableAAMc', '_$s8Morpheus8FunctionCAA8StorableAAWP', 
                       '_$s8Morpheus8FunctionCMa', '_$s8Morpheus8FunctionCMm', '_$s8Morpheus8FunctionCMn', 
                       '_$s8Morpheus8FunctionCMo', '_$s8Morpheus8FunctionCMu', '_$s8Morpheus8FunctionCN', 
                       '_$s8Morpheus8FunctionCfD', '_$s8Morpheus8FunctionCfd', '_$s8Morpheus8LoopableMp', 
                       '_$s8Morpheus8LoopableP5countSivgTj', '_$s8Morpheus8LoopableP5countSivgTq', 
                       '_$s8Morpheus8LoopableP8iterators11AnyIteratorVyypGyFTj', 
                       '_$s8Morpheus8LoopableP8iterators11AnyIteratorVyypGyFTq', 
                       '_$s8Morpheus8LoopablePAA9CountableTb', '_$s8Morpheus8LoopablePAAE3lenSiyF', 
                       '_$s8Morpheus8LoopableTL', '_$s8Morpheus8MLXUtilsO06extendA0yyKFZ', 
                       '_$s8Morpheus8MLXUtilsO13clearGPUCacheyyFZ', '_$s8Morpheus8MLXUtilsO14getGPUPrioritySo14MTLGPUPriorityVSgyFZ', 
                       '_$s8Morpheus8MLXUtilsO14setGPUPriorityyySo14MTLGPUPriorityVFZ', 
                       '_$s8Morpheus8MLXUtilsO16setDefaultDeviceyyAA9MLXDeviceOKFZ', 
                       '_$s8Morpheus8MLXUtilsO16setGPUCacheLimityySiFZ', '_$s8Morpheus8MLXUtilsO17setGPUMemoryLimityySiFZ', 
                       '_$s8Morpheus8MLXUtilsO18getMTLCommandQueueSo0dE0_pSgyFZ', 
                       '_$s8Morpheus8MLXUtilsO20currentDefaultDeviceAA9MLXDeviceOyFZ', 
                       '_$s8Morpheus8MLXUtilsO24getGPUBackgroundPrioritySo14MTLGPUPriorityVSgyFZ', 
                       '_$s8Morpheus8MLXUtilsO24setGPUBackgroundPriorityyySo14MTLGPUPriorityVFZ', 
                       '_$s8Morpheus8MLXUtilsOMa', '_$s8Morpheus8MLXUtilsOMn', '_$s8Morpheus8MLXUtilsON', 
                       '_$s8Morpheus8PyObjectMp', '_$s8Morpheus8PyObjectP9__class__AA0B5Class_pvgTj', 
                       '_$s8Morpheus8PyObjectP9__class__AA0B5Class_pvgTq', '_$s8Morpheus8PyObjectTL', 
                       '_$s8Morpheus8StorableMp', '_$s8Morpheus8StorableP5store3key3obj4kindyyp_ypAA15NameBindingKindOtKFTj', 
                       '_$s8Morpheus8StorableP5store3key3obj4kindyyp_ypAA15NameBindingKindOtKFTq', 
                       '_$s8Morpheus8StorableTL', '_$s8Morpheus8SummableMp', '_$s8Morpheus8SummableP3addyypypKFTj', 
                       '_$s8Morpheus8SummableP3addyypypKFTq', '_$s8Morpheus8SummableTL', 
                       '_$s8Morpheus9ArgumentsV4args11posonlyargs10kwonlyargs10kwDefaults8defaults6vaargs6kwargsACSaySSG_A2KSayypSgGAMSSSgANtcfC', 
                       '_$s8Morpheus9ArgumentsVMa', '_$s8Morpheus9ArgumentsVMn', 
                       '_$s8Morpheus9ArgumentsVN', '_$s8Morpheus9CountableMp', '_$s8Morpheus9CountableP3lenSiyFTj', 
                       '_$s8Morpheus9CountableP3lenSiyFTq', '_$s8Morpheus9CountableTL', 
                       '_$s8Morpheus9DivisibleMp', '_$s8Morpheus9DivisibleP6divideyypypKFTj', 
                       '_$s8Morpheus9DivisibleP6divideyypypKFTq', '_$s8Morpheus9DivisibleTL', 
                       '_$s8Morpheus9MLXDeviceO1loiySbAC_ACtFZ', '_$s8Morpheus9MLXDeviceO2eeoiySbAC_ACtFZ', 
                       '_$s8Morpheus9MLXDeviceO3cpuyA2CmFWC', '_$s8Morpheus9MLXDeviceO3gpuyA2CmFWC', 
                       '_$s8Morpheus9MLXDeviceO4hash4intoys6HasherVz_tF', '_$s8Morpheus9MLXDeviceO9hashValueSivg', 
                       '_$s8Morpheus9MLXDeviceO9hashValueSivpMV', '_$s8Morpheus9MLXDeviceOMa', 
                       '_$s8Morpheus9MLXDeviceOMn', '_$s8Morpheus9MLXDeviceON', '_$s8Morpheus9MLXDeviceOSHAAMc', 
                       '_$s8Morpheus9MLXDeviceOSLAAMc', '_$s8Morpheus9MLXDeviceOSQAAMc', 
                       '_$s8Morpheus9MLXTensorMp', '_$s8Morpheus9MLXTensorP10toMLTensor6CoreML0D0VyKFTj', 
                       '_$s8Morpheus9MLXTensorP10toMLTensor6CoreML0D0VyKFTq', '_$s8Morpheus9MLXTensorP4ndimSivgTj', 
                       '_$s8Morpheus9MLXTensorP4ndimSivgTq', '_$s8Morpheus9MLXTensorP4sizeSivgTj', 
                       '_$s8Morpheus9MLXTensorP4sizeSivgTq', '_$s8Morpheus9MLXTensorP5shapeSaySiGvgTj', 
                       '_$s8Morpheus9MLXTensorP5shapeSaySiGvgTq', '_$s8Morpheus9MLXTensorP7toArrayySayqd__Gqd__mKlFTj', 
                       '_$s8Morpheus9MLXTensorP7toArrayySayqd__Gqd__mKlFTq', '_$s8Morpheus9MLXTensorTL', 
                       '_$s8Morpheus9ModulableMp', '_$s8Morpheus9ModulableP3modyypypKFTj', 
                       '_$s8Morpheus9ModulableP3modyypypKFTq', '_$s8Morpheus9ModulableTL', 
                       '_$s8Morpheus9NegatableMp', '_$s8Morpheus9NegatableP8negationxyFTj', 
                       '_$s8Morpheus9NegatableP8negationxyFTq', '_$s8Morpheus9NegatablePAAs13SignedNumericRzrlE8negationxyF', 
                       '_$s8Morpheus9NegatableTL', '_$s8Morpheus9PerfClockO10nowSecondsSdyFZ', 
                       '_$s8Morpheus9PerfClockO8nowNanoss6UInt64VyFZ', '_$s8Morpheus9PerfClockOMa', 
                       '_$s8Morpheus9PerfClockOMn', '_$s8Morpheus9PerfClockON', '_$s8Morpheus9PyBuiltInO05builtD21FunctionOrMethodClassAA0bcdI0CvgZ', 
                       '_$s8Morpheus9PyBuiltInO05builtD21FunctionOrMethodClassAA0bcdI0CvpZMV', 
                       '_$s8Morpheus9PyBuiltInO11methodClassAA0bcdF0CvgZ', '_$s8Morpheus9PyBuiltInO11methodClassAA0bcdF0CvpZMV', 
                       '_$s8Morpheus9PyBuiltInO11moduleClassAA0bcdF0CvgZ', '_$s8Morpheus9PyBuiltInO11moduleClassAA0bcdF0CvpZMV', 
                       '_$s8Morpheus9PyBuiltInO11objectClassAA0bcdF0CvgZ', '_$s8Morpheus9PyBuiltInO11objectClassAA0bcdF0CvpZMV', 
                       '_$s8Morpheus9PyBuiltInO13functionClassAA0bcdF0CvgZ', '_$s8Morpheus9PyBuiltInO13functionClassAA0bcdF0CvpZMV', 
                       '_$s8Morpheus9PyBuiltInO15numpyArrayClassAA0bcdG0CvgZ', '_$s8Morpheus9PyBuiltInO15numpyArrayClassAA0bcdG0CvpZMV', 
                       '_$s8Morpheus9PyBuiltInO16classMethodClassAA0bcdG0CvgZ', '_$s8Morpheus9PyBuiltInO16classMethodClassAA0bcdG0CvpZMV', 
                       '_$s8Morpheus9PyBuiltInO16ignoredInterfaceAA0bcD5ClassCvgZ', 
                       '_$s8Morpheus9PyBuiltInO16ignoredInterfaceAA0bcD5ClassCvpZMV', 
                       '_$s8Morpheus9PyBuiltInO17staticMethodClassAA0bcdG0CvgZ', 
                       '_$s8Morpheus9PyBuiltInO17staticMethodClassAA0bcdG0CvpZMV', 
                       '_$s8Morpheus9PyBuiltInO9typeClassAA0bcdF0CvgZ', '_$s8Morpheus9PyBuiltInO9typeClassAA0bcdF0CvpZMV', 
                       '_$s8Morpheus9PyBuiltInOMa', '_$s8Morpheus9PyBuiltInOMn', 
                       '_$s8Morpheus9PyBuiltInON', '_$s8Morpheus9TimedeltaC3addyypypKF', 
                       '_$s8Morpheus9TimedeltaC3has9attributeSbSS_tF', '_$s8Morpheus9TimedeltaC4days5hours7seconds12microsecondsACSd_S3dtcfC', 
                       '_$s8Morpheus9TimedeltaC7secondsACSd_tcfC', '_$s8Morpheus9TimedeltaC7secondsACSd_tcfCTj', 
                       '_$s8Morpheus9TimedeltaC7secondsACSd_tcfCTq', '_$s8Morpheus9TimedeltaC7secondsACSd_tcfc', 
                       '_$s8Morpheus9TimedeltaC7secondsSdvg', '_$s8Morpheus9TimedeltaC7secondsSdvpMV', 
                       '_$s8Morpheus9TimedeltaC8subtractyypypKF', '_$s8Morpheus9TimedeltaC9attribute3forypSgSS_tF', 
                       '_$s8Morpheus9TimedeltaCAA12AttributableAAMc', '_$s8Morpheus9TimedeltaCAA12AttributableAAWP', 
                       '_$s8Morpheus9TimedeltaCAA12SubtractableAAMc', '_$s8Morpheus9TimedeltaCAA12SubtractableAAWP', 
                       '_$s8Morpheus9TimedeltaCAA8SummableAAMc', '_$s8Morpheus9TimedeltaCAA8SummableAAWP', 
                       '_$s8Morpheus9TimedeltaCMa', '_$s8Morpheus9TimedeltaCMm', 
                       '_$s8Morpheus9TimedeltaCMn', '_$s8Morpheus9TimedeltaCMo', 
                       '_$s8Morpheus9TimedeltaCMu', '_$s8Morpheus9TimedeltaCN', '_$s8Morpheus9TimedeltaCfD', 
                       '_$s8Morpheus9TimedeltaCfd', '_$sSD8MorpheusE3getyypSgypKF', 
                       '_$sSD8MorpheusE3has9attributeSbSS_tF', '_$sSD8MorpheusE3lenSiyF', 
                       '_$sSD8MorpheusE4isIn5valueSbyp_tF', '_$sSD8MorpheusE7anyDictSDys11AnyHashableVypGvg', 
                       '_$sSD8MorpheusE7anyDictSDys11AnyHashableVypGvpMV', '_$sSD8MorpheusE8iterators11AnyIteratorVyypGyF', 
                       '_$sSD8MorpheusE9__class__AA7PyClass_pvg', '_$sSD8MorpheusE9__class__AA7PyClass_pvpMV', 
                       '_$sSD8MorpheusE9attribute3forypSgSS_tF', '_$sSDyxq_G8Morpheus10TruthinessABMc', 
                       '_$sSDyxq_G8Morpheus10TruthinessABWP', '_$sSDyxq_G8Morpheus12AttributableABMc', 
                       '_$sSDyxq_G8Morpheus12AttributableABWP', '_$sSDyxq_G8Morpheus13SubscriptableABMc', 
                       '_$sSDyxq_G8Morpheus13SubscriptableABWP', '_$sSDyxq_G8Morpheus16AnyDictContainerABMc', 
                       '_$sSDyxq_G8Morpheus16AnyDictContainerABWP', '_$sSDyxq_G8Morpheus18MembershipTestableABMc', 
                       '_$sSDyxq_G8Morpheus18MembershipTestableABWP', '_$sSDyxq_G8Morpheus8LoopableABMc', 
                       '_$sSDyxq_G8Morpheus8LoopableABWP', '_$sSDyxq_G8Morpheus8PyObjectABMc', 
                       '_$sSDyxq_G8Morpheus8PyObjectABWP', '_$sSDyxq_G8Morpheus9CountableABMc', 
                       '_$sSDyxq_G8Morpheus9CountableABWP', '_$sSS8Morpheus12AttributableAAMc', 
                       '_$sSS8Morpheus12AttributableAAWP', '_$sSS8Morpheus13MultiplicableAAMc', 
                       '_$sSS8Morpheus13MultiplicableAAWP', '_$sSS8Morpheus13SubscriptableAAMc', 
                       '_$sSS8Morpheus13SubscriptableAAWP', '_$sSS8Morpheus17AnyArrayContainerAAMc', 
                       '_$sSS8Morpheus17AnyArrayContainerAAWP', '_$sSS8Morpheus18MembershipTestableAAMc', 
                       '_$sSS8Morpheus18MembershipTestableAAWP', '_$sSS8Morpheus8LoopableAAMc', 
                       '_$sSS8Morpheus8LoopableAAWP', '_$sSS8Morpheus8PyObjectAAMc', 
                       '_$sSS8Morpheus8PyObjectAAWP', '_$sSS8Morpheus8SummableAAMc', 
                       '_$sSS8Morpheus8SummableAAWP', '_$sSS8Morpheus9CountableAAMc', 
                       '_$sSS8Morpheus9CountableAAWP', '_$sSS8MorpheusE3addyypypKF', 
                       '_$sSS8MorpheusE3getyypSgypKF', '_$sSS8MorpheusE3has9attributeSbSS_tF', 
                       '_$sSS8MorpheusE3lenSiyF', '_$sSS8MorpheusE3mulyypypKF', '_$sSS8MorpheusE4isIn5valueSbyp_tF', 
                       '_$sSS8MorpheusE8anyArraySayypGvg', '_$sSS8MorpheusE8anyArraySayypGvpMV', 
                       '_$sSS8MorpheusE8iterators11AnyIteratorVyypGyF', '_$sSS8MorpheusE9__class__AA7PyClass_pvg', 
                       '_$sSS8MorpheusE9__class__AA7PyClass_pvpMV', '_$sSS8MorpheusE9attribute3forypSgSS_tF', 
                       '_$sSSs5Error8MorpheusMc', '_$sST8MorpheusE11asyncReduce4into_qd__qd___yqd__z_7ElementQztYaKXEtYaKlF', 
                       '_$sST8MorpheusE11asyncReduce4into_qd__qd___yqd__z_7ElementQztYaKXEtYaKlFTu', 
                       '_$sST8MorpheusE20concurrentAllSatisfy11concurrency_SbSi_Sb7ElementQzYaKctYaKF', 
                       '_$sST8MorpheusE20concurrentAllSatisfy11concurrency_SbSi_Sb7ElementQzYaKctYaKFTu', 
                       '_$sST8MorpheusSi7ElementRtzrlE7asInt32Says0D0VGvg', '_$sST8MorpheusSi7ElementRtzrlE7asInt32Says0D0VGvpMV', 
                       '_$sST8MorpheusSi7ElementRtzrlE7asInt64Says0D0VGvg', '_$sST8MorpheusSi7ElementRtzrlE7asInt64Says0D0VGvpMV', 
                       '_$sSa8MorpheusE3addyypypKF', '_$sSa8MorpheusE3getyypSgypKF', 
                       '_$sSa8MorpheusE3lenSiyF', '_$sSa8MorpheusE3mulyypypKF', '_$sSa8MorpheusE4isIn5valueSbyp_tF', 
                       '_$sSa8MorpheusE8anyArraySayypGvg', '_$sSa8MorpheusE8anyArraySayypGvpMV', 
                       '_$sSa8MorpheusE8iterators11AnyIteratorVyypGyF', '_$sSa8MorpheusE9__class__AA7PyClass_pvg', 
                       '_$sSa8MorpheusE9__class__AA7PyClass_pvpMV', '_$sSa8MorpheusSLRzlE1loiySbSayxG_ACtFZ', 
                       '_$sSa8MorpheusSiRszlE7asInt32Says0C0VGvg', '_$sSa8MorpheusSiRszlE7asInt32Says0C0VGvpMV', 
                       '_$sSa8MorpheusSiRszlE7asInt64Says0C0VGvg', '_$sSa8MorpheusSiRszlE7asInt64Says0C0VGvpMV', 
                       '_$sSayxG8Morpheus10TruthinessABMc', '_$sSayxG8Morpheus10TruthinessABWP', 
                       '_$sSayxG8Morpheus13MultiplicableABMc', '_$sSayxG8Morpheus13MultiplicableABWP', 
                       '_$sSayxG8Morpheus13SubscriptableABMc', '_$sSayxG8Morpheus13SubscriptableABWP', 
                       '_$sSayxG8Morpheus17AnyArrayContainerABMc', '_$sSayxG8Morpheus17AnyArrayContainerABWP', 
                       '_$sSayxG8Morpheus18MembershipTestableABMc', '_$sSayxG8Morpheus18MembershipTestableABWP', 
                       '_$sSayxG8Morpheus8LoopableABMc', '_$sSayxG8Morpheus8LoopableABWP', 
                       '_$sSayxG8Morpheus8PyObjectABMc', '_$sSayxG8Morpheus8PyObjectABWP', 
                       '_$sSayxG8Morpheus8SummableABMc', '_$sSayxG8Morpheus8SummableABWP', 
                       '_$sSayxG8Morpheus9CountableABMc', '_$sSayxG8Morpheus9CountableABWP', 
                       '_$sSayxGSL8MorpheusSLRzlMc', '_$sSb8Morpheus10TruthinessAAMc', 
                       '_$sSb8Morpheus10TruthinessAAWP', '_$sSb8Morpheus6ScalarAAMc', 
                       '_$sSb8Morpheus6ScalarAAWP', '_$sSb8Morpheus8PyObjectAAMc', 
                       '_$sSb8Morpheus8PyObjectAAWP', '_$sSb8Morpheus9NegatableAAMc', 
                       '_$sSb8Morpheus9NegatableAAWP', '_$sSb8MorpheusE8isTruthySbvg', 
                       '_$sSb8MorpheusE8isTruthySbvpMV', '_$sSb8MorpheusE8negationSbyF', 
                       '_$sSb8MorpheusE9__class__AA7PyClass_pvg', '_$sSb8MorpheusE9__class__AA7PyClass_pvpMV', 
                       '_$sSd8Morpheus10TruthinessAAMc', '_$sSd8Morpheus10TruthinessAAWP', 
                       '_$sSd8Morpheus12SubtractableAAMc', '_$sSd8Morpheus12SubtractableAAWP', 
                       '_$sSd8Morpheus13ExponentiableAAMc', '_$sSd8Morpheus13ExponentiableAAWP', 
                       '_$sSd8Morpheus13MultiplicableAAMc', '_$sSd8Morpheus13MultiplicableAAWP', 
                       '_$sSd8Morpheus14FloorDivisibleAAMc', '_$sSd8Morpheus14FloorDivisibleAAWP', 
                       '_$sSd8Morpheus6ScalarAAMc', '_$sSd8Morpheus6ScalarAAWP', 
                       '_$sSd8Morpheus8PyObjectAAMc', '_$sSd8Morpheus8PyObjectAAWP', 
                       '_$sSd8Morpheus8SummableAAMc', '_$sSd8Morpheus8SummableAAWP', 
                       '_$sSd8Morpheus9DivisibleAAMc', '_$sSd8Morpheus9DivisibleAAWP', 
                       '_$sSd8Morpheus9ModulableAAMc', '_$sSd8Morpheus9ModulableAAWP', 
                       '_$sSd8Morpheus9NegatableAAMc', '_$sSd8Morpheus9NegatableAAWP', 
                       '_$sSd8MorpheusE11floorDivideyypypKF', '_$sSd8MorpheusE3addyypypKF', 
                       '_$sSd8MorpheusE3modyypypKF', '_$sSd8MorpheusE3mulyypypKF', 
                       '_$sSd8MorpheusE3powyypypKF', '_$sSd8MorpheusE6divideyypypKF', 
                       '_$sSd8MorpheusE8subtractyypypKF', '_$sSd8MorpheusE9__class__AA7PyClass_pvg', 
                       '_$sSd8MorpheusE9__class__AA7PyClass_pvpMV', '_$sSf8Morpheus10TruthinessAAMc', 
                       '_$sSf8Morpheus10TruthinessAAWP', '_$sSf8Morpheus12SubtractableAAMc', 
                       '_$sSf8Morpheus12SubtractableAAWP', '_$sSf8Morpheus13ExponentiableAAMc', 
                       '_$sSf8Morpheus13ExponentiableAAWP', '_$sSf8Morpheus13MultiplicableAAMc', 
                       '_$sSf8Morpheus13MultiplicableAAWP', '_$sSf8Morpheus14FloorDivisibleAAMc', 
                       '_$sSf8Morpheus14FloorDivisibleAAWP', '_$sSf8Morpheus6ScalarAAMc', 
                       '_$sSf8Morpheus6ScalarAAWP', '_$sSf8Morpheus8PyObjectAAMc', 
                       '_$sSf8Morpheus8PyObjectAAWP', '_$sSf8Morpheus8SummableAAMc', 
                       '_$sSf8Morpheus8SummableAAWP', '_$sSf8Morpheus9DivisibleAAMc', 
                       '_$sSf8Morpheus9DivisibleAAWP', '_$sSf8Morpheus9ModulableAAMc', 
                       '_$sSf8Morpheus9ModulableAAWP', '_$sSf8Morpheus9NegatableAAMc', 
                       '_$sSf8Morpheus9NegatableAAWP', '_$sSf8MorpheusE11floorDivideyypypKF', 
                       '_$sSf8MorpheusE3addyypypKF', '_$sSf8MorpheusE3modyypypKF', 
                       '_$sSf8MorpheusE3mulyypypKF', '_$sSf8MorpheusE3powyypypKF', 
                       '_$sSf8MorpheusE6divideyypypKF', '_$sSf8MorpheusE8subtractyypypKF', 
                       '_$sSf8MorpheusE9__class__AA7PyClass_pvg', '_$sSf8MorpheusE9__class__AA7PyClass_pvpMV', 
                       '_$sSh8MorpheusE4isIn5valueSbyp_tF', '_$sSh8MorpheusE6anySetShys11AnyHashableVGvg', 
                       '_$sSh8MorpheusE6anySetShys11AnyHashableVGvpMV', '_$sShyxG8Morpheus15AnySetContainerABMc', 
                       '_$sShyxG8Morpheus15AnySetContainerABWP', '_$sShyxG8Morpheus18MembershipTestableABMc', 
                       '_$sShyxG8Morpheus18MembershipTestableABWP', '_$sSi8Morpheus10SliceIndexAAMc', 
                       '_$sSi8Morpheus10SliceIndexAAWP', '_$sSi8Morpheus10TruthinessAAMc', 
                       '_$sSi8Morpheus10TruthinessAAWP', '_$sSi8Morpheus12SubtractableAAMc', 
                       '_$sSi8Morpheus12SubtractableAAWP', '_$sSi8Morpheus13ExponentiableAAMc', 
                       '_$sSi8Morpheus13ExponentiableAAWP', '_$sSi8Morpheus13MultiplicableAAMc', 
                       '_$sSi8Morpheus13MultiplicableAAWP', '_$sSi8Morpheus14FloorDivisibleAAMc', 
                       '_$sSi8Morpheus14FloorDivisibleAAWP', '_$sSi8Morpheus6ScalarAAMc', 
                       '_$sSi8Morpheus6ScalarAAWP', '_$sSi8Morpheus8PyObjectAAMc', 
                       '_$sSi8Morpheus8PyObjectAAWP', '_$sSi8Morpheus8SummableAAMc', 
                       '_$sSi8Morpheus8SummableAAWP', '_$sSi8Morpheus9DivisibleAAMc', 
                       '_$sSi8Morpheus9DivisibleAAWP', '_$sSi8Morpheus9ModulableAAMc', 
                       '_$sSi8Morpheus9ModulableAAWP', '_$sSi8Morpheus9NegatableAAMc', 
                       '_$sSi8Morpheus9NegatableAAWP', '_$sSi8MorpheusE11floorDivideyypypKF', 
                       '_$sSi8MorpheusE3addyypypKF', '_$sSi8MorpheusE3modyypypKF', 
                       '_$sSi8MorpheusE3mulyypypKF', '_$sSi8MorpheusE3powyypypKF', 
                       '_$sSi8MorpheusE5int32s5Int32Vvg', '_$sSi8MorpheusE5int32s5Int32VvpMV', 
                       '_$sSi8MorpheusE5int64s5Int64Vvg', '_$sSi8MorpheusE5int64s5Int64VvpMV', 
                       '_$sSi8MorpheusE5values5Int32VyF', '_$sSi8MorpheusE6divideyypypKF', 
                       '_$sSi8MorpheusE8subtractyypypKF', '_$sSi8MorpheusE9__class__AA7PyClass_pvg', 
                       '_$sSi8MorpheusE9__class__AA7PyClass_pvpMV', '_$sSl8MorpheusE10asyncFirst5where7ElementQzSgSbAEYaKXE_tYaKF', 
                       '_$sSl8MorpheusE10asyncFirst5where7ElementQzSgSbAEYaKXE_tYaKFTu', 
                       '_$sSl8MorpheusE11asyncReduce4into_qd__qd___yqd__z_7ElementQztYaKXEtYaKlF', 
                       '_$sSl8MorpheusE11asyncReduce4into_qd__qd___yqd__z_7ElementQztYaKXEtYaKlFTu', 
                       '_$sSl8MorpheusE11asyncReduceyqd__qd___qd__qd___7ElementQztYaKXEtYaKlF', 
                       '_$sSl8MorpheusE11asyncReduceyqd__qd___qd__qd___7ElementQztYaKXEtYaKlFTu', 
                       '_$sSl8MorpheusE11asyncSorted2bySay7ElementQzGSbAE_AEtYaKc_tYaKF', 
                       '_$sSl8MorpheusE11asyncSorted2bySay7ElementQzGSbAE_AEtYaKc_tYaKFTu', 
                       '_$sSl8MorpheusE13concurrentMap11concurrency_Sayqd__GSi_qd__7ElementQzYaKctYaKlF', 
                       '_$sSl8MorpheusE13concurrentMap11concurrency_Sayqd__GSi_qd__7ElementQzYaKctYaKlFTu', 
                       '_$sSl8MorpheusE16concurrentFilter11concurrency_Say7ElementQzGSi_SbAEYaKctYaKF', 
                       '_$sSl8MorpheusE16concurrentFilter11concurrency_Say7ElementQzGSi_SbAEYaKctYaKFTu', 
                       '_$sSl8MorpheusE20concurrentAllSatisfy11concurrency_SbSi_Sb7ElementQzYaKctYaKF', 
                       '_$sSl8MorpheusE20concurrentAllSatisfy11concurrency_SbSi_Sb7ElementQzYaKctYaKFTu', 
                       '_$sSl8MorpheusE8asyncMapySayqd__Gqd__7ElementQzYaYbKXEYaKlF', 
                       '_$sSl8MorpheusE8asyncMapySayqd__Gqd__7ElementQzYaYbKXEYaKlFTu', 
                       '_$sSl8MorpheusE8asyncMax2by7ElementQzSgSbAE_AEtYaYbKXE_tYaKF', 
                       '_$sSl8MorpheusE8asyncMax2by7ElementQzSgSbAE_AEtYaYbKXE_tYaKFTu', 
                       '_$sSl8MorpheusE8asyncMin2by7ElementQzSgSbAE_AEtYaYbKXE_tYaKF', 
                       '_$sSl8MorpheusE8asyncMin2by7ElementQzSgSbAE_AEtYaYbKXE_tYaKFTu', 
                       '_$sSo10CGImageRefa8MorpheusE02asA0yABSgypFZ', '_$sSo10CGImageRefa8MorpheusE12getPixelDataSays5UInt8VGyKF', 
                       '_$sSo12NSDictionaryC8Morpheus8PyObjectACMc', '_$sSo12NSDictionaryC8Morpheus8PyObjectACWP', 
                       '_$sSo12NSDictionaryC8MorpheusE9__class__AC7PyClass_pvg', 
                       '_$sSo12NSDictionaryC8MorpheusE9__class__AC7PyClass_pvpMV', 
                       '_$sSo14MTLGPUPriorityV8MorpheusE1loiySbAB_ABtFZ', '_$sSo14MTLGPUPriorityVSL8MorpheusMc', 
                       '_$sSo7NSArrayC8Morpheus8PyObjectACMc', '_$sSo7NSArrayC8Morpheus8PyObjectACWP', 
                       '_$sSo7NSArrayC8MorpheusE9__class__AC7PyClass_pvg', '_$sSo7NSArrayC8MorpheusE9__class__AC7PyClass_pvpMV', 
                       '_$sSo8NSNumberC8Morpheus12AttributableACMc', '_$sSo8NSNumberC8Morpheus12AttributableACWP', 
                       '_$sSo8NSNumberC8MorpheusE10swiftValueypvg', '_$sSo8NSNumberC8MorpheusE10swiftValueypvpMV', 
                       '_$sSo8NSNumberC8MorpheusE1loiySbAB_ABtFZ', '_$sSo8NSNumberC8MorpheusE3has9attributeSbSS_tF', 
                       '_$sSo8NSNumberC8MorpheusE9attribute3forypSgSS_tF', '_$sSo8NSNumberCSL8MorpheusMc', 
                       '_$sSo8NSStringC8MorpheusE1loiySbAB_ABtFZ', '_$sSo8NSStringCSL8MorpheusMc', 
                       '_$sSq8MorpheusE8isTruthySbvg', '_$sSq8MorpheusE8isTruthySbvpMV', 
                       '_$sSu8Morpheus10SliceIndexAAMc', '_$sSu8Morpheus10SliceIndexAAWP', 
                       '_$sSu8MorpheusE5values5Int32VyF', '_$ss18EnumeratedSequenceV8MorpheusE5countSivg', 
                       '_$ss18EnumeratedSequenceV8MorpheusE5countSivpMV', '_$ss18EnumeratedSequenceV8MorpheusE8iterators11AnyIteratorVyypGyF', 
                       '_$ss18EnumeratedSequenceVyxG8Morpheus8LoopableADMc', '_$ss18EnumeratedSequenceVyxG8Morpheus8LoopableADWP', 
                       '_$ss18EnumeratedSequenceVyxG8Morpheus9CountableADMc', '_$ss18EnumeratedSequenceVyxG8Morpheus9CountableADWP', 
                       '_$ss4Int8V8Morpheus6ScalarACMc', '_$ss4Int8V8Morpheus6ScalarACWP', 
                       '_$ss4Int8V8Morpheus8PyObjectACMc', '_$ss4Int8V8Morpheus8PyObjectACWP', 
                       '_$ss4Int8V8MorpheusE9__class__AC7PyClass_pvg', '_$ss4Int8V8MorpheusE9__class__AC7PyClass_pvpMV', 
                       '_$ss5Int16V8Morpheus6ScalarACMc', '_$ss5Int16V8Morpheus6ScalarACWP', 
                       '_$ss5Int16V8Morpheus8PyObjectACMc', '_$ss5Int16V8Morpheus8PyObjectACWP', 
                       '_$ss5Int16V8MorpheusE9__class__AC7PyClass_pvg', '_$ss5Int16V8MorpheusE9__class__AC7PyClass_pvpMV', 
                       '_$ss5Int32V8Morpheus10SliceIndexACMc', '_$ss5Int32V8Morpheus10SliceIndexACWP', 
                       '_$ss5Int32V8Morpheus10TruthinessACMc', '_$ss5Int32V8Morpheus10TruthinessACWP', 
                       '_$ss5Int32V8Morpheus12SubtractableACMc', '_$ss5Int32V8Morpheus12SubtractableACWP', 
                       '_$ss5Int32V8Morpheus13ExponentiableACMc', '_$ss5Int32V8Morpheus13ExponentiableACWP', 
                       '_$ss5Int32V8Morpheus13MultiplicableACMc', '_$ss5Int32V8Morpheus13MultiplicableACWP', 
                       '_$ss5Int32V8Morpheus14FloorDivisibleACMc', '_$ss5Int32V8Morpheus14FloorDivisibleACWP', 
                       '_$ss5Int32V8Morpheus6ScalarACMc', '_$ss5Int32V8Morpheus6ScalarACWP', 
                       '_$ss5Int32V8Morpheus8PyObjectACMc', '_$ss5Int32V8Morpheus8PyObjectACWP', 
                       '_$ss5Int32V8Morpheus8SummableACMc', '_$ss5Int32V8Morpheus8SummableACWP', 
                       '_$ss5Int32V8Morpheus9DivisibleACMc', '_$ss5Int32V8Morpheus9DivisibleACWP', 
                       '_$ss5Int32V8Morpheus9ModulableACMc', '_$ss5Int32V8Morpheus9ModulableACWP', 
                       '_$ss5Int32V8Morpheus9NegatableACMc', '_$ss5Int32V8Morpheus9NegatableACWP', 
                       '_$ss5Int32V8MorpheusE11floorDivideyypypKF', '_$ss5Int32V8MorpheusE3addyypypKF', 
                       '_$ss5Int32V8MorpheusE3modyypypKF', '_$ss5Int32V8MorpheusE3mulyypypKF', 
                       '_$ss5Int32V8MorpheusE3powyypypKF', '_$ss5Int32V8MorpheusE5valueAByF', 
                       '_$ss5Int32V8MorpheusE6divideyypypKF', '_$ss5Int32V8MorpheusE8subtractyypypKF', 
                       '_$ss5Int32V8MorpheusE9__class__AC7PyClass_pvg', '_$ss5Int32V8MorpheusE9__class__AC7PyClass_pvpMV', 
                       '_$ss5Int64V8Morpheus10SliceIndexACMc', '_$ss5Int64V8Morpheus10SliceIndexACWP', 
                       '_$ss5Int64V8Morpheus12SubtractableACMc', '_$ss5Int64V8Morpheus12SubtractableACWP', 
                       '_$ss5Int64V8Morpheus13MultiplicableACMc', '_$ss5Int64V8Morpheus13MultiplicableACWP', 
                       '_$ss5Int64V8Morpheus14FloorDivisibleACMc', '_$ss5Int64V8Morpheus14FloorDivisibleACWP', 
                       '_$ss5Int64V8Morpheus6ScalarACMc', '_$ss5Int64V8Morpheus6ScalarACWP', 
                       '_$ss5Int64V8Morpheus8PyObjectACMc', '_$ss5Int64V8Morpheus8PyObjectACWP', 
                       '_$ss5Int64V8Morpheus8SummableACMc', '_$ss5Int64V8Morpheus8SummableACWP', 
                       '_$ss5Int64V8Morpheus9DivisibleACMc', '_$ss5Int64V8Morpheus9DivisibleACWP', 
                       '_$ss5Int64V8Morpheus9ModulableACMc', '_$ss5Int64V8Morpheus9ModulableACWP', 
                       '_$ss5Int64V8Morpheus9NegatableACMc', '_$ss5Int64V8Morpheus9NegatableACWP', 
                       '_$ss5Int64V8MorpheusE11floorDivideyypypKF', '_$ss5Int64V8MorpheusE3addyypypKF', 
                       '_$ss5Int64V8MorpheusE3modyypypKF', '_$ss5Int64V8MorpheusE3mulyypypKF', 
                       '_$ss5Int64V8MorpheusE5values5Int32VyF', '_$ss5Int64V8MorpheusE6divideyypypKF', 
                       '_$ss5Int64V8MorpheusE8subtractyypypKF', '_$ss5Int64V8MorpheusE9__class__AC7PyClass_pvg', 
                       '_$ss5Int64V8MorpheusE9__class__AC7PyClass_pvpMV', '_$ss5UInt8V8Morpheus6ScalarACMc', 
                       '_$ss5UInt8V8Morpheus6ScalarACWP', '_$ss5UInt8V8Morpheus8PyObjectACMc', 
                       '_$ss5UInt8V8Morpheus8PyObjectACWP', '_$ss5UInt8V8MorpheusE9__class__AC7PyClass_pvg', 
                       '_$ss5UInt8V8MorpheusE9__class__AC7PyClass_pvpMV', '_$ss6UInt16V8Morpheus6ScalarACMc', 
                       '_$ss6UInt16V8Morpheus6ScalarACWP', '_$ss6UInt16V8Morpheus8PyObjectACMc', 
                       '_$ss6UInt16V8Morpheus8PyObjectACWP', '_$ss6UInt16V8MorpheusE9__class__AC7PyClass_pvg', 
                       '_$ss6UInt16V8MorpheusE9__class__AC7PyClass_pvpMV', '_$ss6UInt32V8Morpheus10SliceIndexACMc', 
                       '_$ss6UInt32V8Morpheus10SliceIndexACWP', '_$ss6UInt32V8Morpheus12SubtractableACMc', 
                       '_$ss6UInt32V8Morpheus12SubtractableACWP', '_$ss6UInt32V8Morpheus13ExponentiableACMc', 
                       '_$ss6UInt32V8Morpheus13ExponentiableACWP', '_$ss6UInt32V8Morpheus13MultiplicableACMc', 
                       '_$ss6UInt32V8Morpheus13MultiplicableACWP', '_$ss6UInt32V8Morpheus14FloorDivisibleACMc', 
                       '_$ss6UInt32V8Morpheus14FloorDivisibleACWP', '_$ss6UInt32V8Morpheus6ScalarACMc', 
                       '_$ss6UInt32V8Morpheus6ScalarACWP', '_$ss6UInt32V8Morpheus8PyObjectACMc', 
                       '_$ss6UInt32V8Morpheus8PyObjectACWP', '_$ss6UInt32V8Morpheus8SummableACMc', 
                       '_$ss6UInt32V8Morpheus8SummableACWP', '_$ss6UInt32V8Morpheus9DivisibleACMc', 
                       '_$ss6UInt32V8Morpheus9DivisibleACWP', '_$ss6UInt32V8Morpheus9ModulableACMc', 
                       '_$ss6UInt32V8Morpheus9ModulableACWP', '_$ss6UInt32V8MorpheusE11floorDivideyypypKF', 
                       '_$ss6UInt32V8MorpheusE3addyypypKF', '_$ss6UInt32V8MorpheusE3modyypypKF', 
                       '_$ss6UInt32V8MorpheusE3mulyypypKF', '_$ss6UInt32V8MorpheusE3powyypypKF', 
                       '_$ss6UInt32V8MorpheusE5values5Int32VyF', '_$ss6UInt32V8MorpheusE6divideyypypKF', 
                       '_$ss6UInt32V8MorpheusE8subtractyypypKF', '_$ss6UInt32V8MorpheusE9__class__AC7PyClass_pvg', 
                       '_$ss6UInt32V8MorpheusE9__class__AC7PyClass_pvpMV', '_$ss6UInt64V8Morpheus10SliceIndexACMc', 
                       '_$ss6UInt64V8Morpheus10SliceIndexACWP', '_$ss6UInt64V8Morpheus12SubtractableACMc', 
                       '_$ss6UInt64V8Morpheus12SubtractableACWP', '_$ss6UInt64V8Morpheus6ScalarACMc', 
                       '_$ss6UInt64V8Morpheus6ScalarACWP', '_$ss6UInt64V8Morpheus8PyObjectACMc', 
                       '_$ss6UInt64V8Morpheus8PyObjectACWP', '_$ss6UInt64V8MorpheusE5values5Int32VyF', 
                       '_$ss6UInt64V8MorpheusE8subtractyypypKF', '_$ss6UInt64V8MorpheusE9__class__AC7PyClass_pvg', 
                       '_$ss6UInt64V8MorpheusE9__class__AC7PyClass_pvpMV', '_$sxSg8Morpheus10TruthinessABMc', 
                       '_$sxSg8Morpheus10TruthinessABWP', _MorpheusVersionNumber, 
                       _MorpheusVersionString, __Z13is_big_endianv, __Z19get_kernel_preamblev, 
                       __Z24convert_slice_descriptorRK21mlx_slice_descriptor_, __Z25convert_tensor_slice_infoRK22mlx_tensor_slice_info_, 
                       __ZN2NS7Private5Class10s_kNSArrayEv, __ZN2NS7Private5Class10s_kNSErrorEv, 
                       __ZN2NS7Private5Class10s_kNSValueEv, __ZN2NS7Private5Class11s_kNSBundleEv, 
                       __ZN2NS7Private5Class11s_kNSNumberEv, __ZN2NS7Private5Class11s_kNSObjectEv, 
                       __ZN2NS7Private5Class11s_kNSStringEv, __ZN2NS7Private5Class14s_kNSConditionEv, 
                       __ZN2NS7Private5Class15s_kNSDictionaryEv, __ZN2NS7Private5Class16s_kNSProcessInfoEv, 
                       __ZN2NS7Private5Class20s_kNSAutoreleasePoolEv, __ZN2NS7Private5Class23s_kNSNotificationCenterEv, 
                       __ZN2NS7Private5Class8s_kNSSetEv, __ZN2NS7Private5Class8s_kNSURLEv, 
                       __ZN2NS7Private5Class9s_kNSDateEv, __ZN2NS7Private8Selector10s_kreleaseEv, 
                       __ZN2NS7Private8Selector11s_kcompare_Ev, __ZN2NS7Private8Selector11s_khostNameEv, 
                       __ZN2NS7Private8Selector11s_kintValueEv, __ZN2NS7Private8Selector11s_kisEqual_Ev, 
                       __ZN2NS7Private8Selector11s_kisLoadedEv, __ZN2NS7Private8Selector11s_kobjCTypeEv, 
                       __ZN2NS7Private8Selector11s_kuserInfoEv, __ZN2NS7Private8Selector11s_kuserNameEv, 
                       __ZN2NS7Private8Selector12s_kargumentsEv, __ZN2NS7Private8Selector12s_kboolValueEv, 
                       __ZN2NS7Private8Selector12s_kbroadcastEv, __ZN2NS7Private8Selector12s_kbundleURLEv, 
                       __ZN2NS7Private8Selector12s_kcharValueEv, __ZN2NS7Private8Selector12s_klongValueEv, 
                       __ZN2NS7Private8Selector12s_kshowPoolsEv, __ZN2NS7Private8Selector13s_kUTF8StringEv, 
                       __ZN2NS7Private8Selector13s_kaddObject_Ev, __ZN2NS7Private8Selector13s_kallBundlesEv, 
                       __ZN2NS7Private8Selector13s_kallObjectsEv, __ZN2NS7Private8Selector13s_kbundlePathEv, 
                       __ZN2NS7Private8Selector13s_kdictionaryEv, __ZN2NS7Private8Selector13s_kfloatValueEv, 
                       __ZN2NS7Private8Selector13s_kmainBundleEv, __ZN2NS7Private8Selector13s_knextObjectEv, 
                       __ZN2NS7Private8Selector13s_kshortValueEv, __ZN2NS7Private8Selector14s_kautoreleaseEv, 
                       __ZN2NS7Private8Selector14s_kdescriptionEv, __ZN2NS7Private8Selector14s_kdoubleValueEv, 
                       __ZN2NS7Private8Selector14s_kenvironmentEv, __ZN2NS7Private8Selector14s_kprocessInfoEv, 
                       __ZN2NS7Private8Selector14s_kprocessNameEv, __ZN2NS7Private8Selector14s_kresourceURLEv, 
                       __ZN2NS7Private8Selector14s_kretainCountEv, __ZN2NS7Private8Selector14s_kstringValueEv, 
                       __ZN2NS7Private8Selector15s_kendActivity_Ev, __ZN2NS7Private8Selector15s_kfullUserNameEv, 
                       __ZN2NS7Private8Selector15s_kinitWithInt_Ev, __ZN2NS7Private8Selector15s_kinitWithURL_Ev, 
                       __ZN2NS7Private8Selector15s_kintegerValueEv, __ZN2NS7Private8Selector15s_kmutableBytesEv, 
                       __ZN2NS7Private8Selector15s_kpointerValueEv, __ZN2NS7Private8Selector15s_kresourcePathEv, 
                       __ZN2NS7Private8Selector15s_ksystemUptimeEv, __ZN2NS7Private8Selector15s_kthermalStateEv, 
                       __ZN2NS7Private8Selector16s_kallFrameworksEv, __ZN2NS7Private8Selector16s_kdefaultCenterEv, 
                       __ZN2NS7Private8Selector16s_kexecutableURLEv, __ZN2NS7Private8Selector16s_kinitWithBool_Ev, 
                       __ZN2NS7Private8Selector16s_kinitWithChar_Ev, __ZN2NS7Private8Selector16s_kinitWithLong_Ev, 
                       __ZN2NS7Private8Selector16s_kinitWithPath_Ev, __ZN2NS7Private8Selector16s_kisiOSAppOnMacEv, 
                       __ZN2NS7Private8Selector16s_kkeyEnumeratorEv, __ZN2NS7Private8Selector16s_klongLongValueEv, 
                       __ZN2NS7Private8Selector16s_kobjectForKey_Ev, __ZN2NS7Private8Selector17s_kbundleWithURL_Ev, 
                       __ZN2NS7Private8Selector17s_kexecutablePathEv, __ZN2NS7Private8Selector17s_kgetValue_size_Ev, 
                       __ZN2NS7Private8Selector17s_kinfoDictionaryEv, __ZN2NS7Private8Selector17s_kinitWithCoder_Ev, 
                       __ZN2NS7Private8Selector17s_kinitWithFloat_Ev, __ZN2NS7Private8Selector17s_kinitWithShort_Ev, 
                       __ZN2NS7Private8Selector17s_knumberWithInt_Ev, __ZN2NS7Private8Selector17s_kobjectAtIndex_Ev, 
                       __ZN2NS7Private8Selector17s_kphysicalMemoryEv, __ZN2NS7Private8Selector17s_kprocessorCountEv, 
                       __ZN2NS7Private8Selector17s_kwaitUntilDate_Ev, __ZN2NS7Private8Selector18s_kbundleWithPath_Ev, 
                       __ZN2NS7Private8Selector18s_kinitWithDouble_Ev, __ZN2NS7Private8Selector18s_kinitWithString_Ev, 
                       __ZN2NS7Private8Selector18s_kisEqualToValue_Ev, __ZN2NS7Private8Selector18s_knumberWithBool_Ev, 
                       __ZN2NS7Private8Selector18s_knumberWithChar_Ev, __ZN2NS7Private8Selector18s_knumberWithLong_Ev, 
                       __ZN2NS7Private8Selector18s_koperatingSystemEv, __ZN2NS7Private8Selector18s_kremoveObserver_Ev, 
                       __ZN2NS7Private8Selector18s_ksetProcessName_Ev, __ZN2NS7Private8Selector19s_karrayWithObject_Ev, 
                       __ZN2NS7Private8Selector19s_kbundleIdentifierEv, __ZN2NS7Private8Selector19s_kdebugDescriptionEv, 
                       __ZN2NS7Private8Selector19s_kfileURLWithPath_Ev, __ZN2NS7Private8Selector19s_kisEqualToNumber_Ev, 
                       __ZN2NS7Private8Selector19s_kisEqualToString_Ev, __ZN2NS7Private8Selector19s_kisMacCatalystAppEv, 
                       __ZN2NS7Private8Selector19s_knumberWithFloat_Ev, __ZN2NS7Private8Selector19s_knumberWithShort_Ev, 
                       __ZN2NS7Private8Selector19s_kobjectEnumeratorEv, __ZN2NS7Private8Selector19s_ksharedSupportURLEv, 
                       __ZN2NS7Private8Selector19s_kunsignedIntValueEv, __ZN2NS7Private8Selector20s_kbuiltInPlugInsURLEv, 
                       __ZN2NS7Private8Selector20s_kcharacterAtIndex_Ev, __ZN2NS7Private8Selector20s_kinitWithLongLong_Ev, 
                       __ZN2NS7Private8Selector20s_knumberWithDouble_Ev, __ZN2NS7Private8Selector20s_kprocessIdentifierEv, 
                       __ZN2NS7Private8Selector20s_ksharedSupportPathEv, __ZN2NS7Private8Selector20s_kstringWithString_Ev, 
                       __ZN2NS7Private8Selector20s_kunsignedCharValueEv, __ZN2NS7Private8Selector20s_kunsignedLongValueEv, 
                       __ZN2NS7Private8Selector20s_kvalueWithPointer_Ev, __ZN2NS7Private8Selector21s_kappStoreReceiptURLEv, 
                       __ZN2NS7Private8Selector21s_kbuiltInPlugInsPathEv, __ZN2NS7Private8Selector21s_kisDeviceCertified_Ev, 
                       __ZN2NS7Private8Selector21s_kunsignedShortValueEv, __ZN2NS7Private8Selector22s_kloadAndReturnError_Ev, 
                       __ZN2NS7Private8Selector22s_knumberWithLongLong_Ev, __ZN2NS7Private8Selector22s_krespondsToSelector_Ev, 
                       __ZN2NS7Private8Selector22s_ksharedFrameworksURLEv, __ZN2NS7Private8Selector23s_kactiveProcessorCountEv, 
                       __ZN2NS7Private8Selector23s_kgloballyUniqueStringEv, __ZN2NS7Private8Selector23s_kinitFileURLWithPath_Ev, 
                       __ZN2NS7Private8Selector23s_kinitWithUnsignedInt_Ev, __ZN2NS7Private8Selector23s_klocalizedDescriptionEv, 
                       __ZN2NS7Private8Selector23s_kprivateFrameworksURLEv, __ZN2NS7Private8Selector23s_ksharedFrameworksPathEv, 
                       __ZN2NS7Private8Selector23s_kunsignedIntegerValueEv, __ZN2NS7Private8Selector24s_kcStringUsingEncoding_Ev, 
                       __ZN2NS7Private8Selector24s_kinitWithUnsignedChar_Ev, __ZN2NS7Private8Selector24s_kinitWithUnsignedLong_Ev, 
                       __ZN2NS7Private8Selector24s_kisLowPowerModeEnabledEv, __ZN2NS7Private8Selector24s_kprivateFrameworksPathEv, 
                       __ZN2NS7Private8Selector24s_kunsignedLongLongValueEv, __ZN2NS7Private8Selector25s_kdescriptionWithLocale_Ev, 
                       __ZN2NS7Private8Selector25s_khasPerformanceProfile_Ev, __ZN2NS7Private8Selector25s_kinitWithObjects_count_Ev, 
                       __ZN2NS7Private8Selector25s_kinitWithUnsignedShort_Ev, __ZN2NS7Private8Selector25s_klocalizedFailureReasonEv, 
                       __ZN2NS7Private8Selector25s_knumberWithUnsignedInt_Ev, __ZN2NS7Private8Selector25s_koperatingSystemVersionEv, 
                       __ZN2NS7Private8Selector25s_krangeOfString_options_Ev, __ZN2NS7Private8Selector26s_karrayWithObjects_count_Ev, 
                       __ZN2NS7Private8Selector26s_kcaseInsensitiveCompare_Ev, __ZN2NS7Private8Selector26s_kenableSuddenTerminationEv, 
                       __ZN2NS7Private8Selector26s_kinitWithBytes_objCType_Ev, __ZN2NS7Private8Selector26s_klocalizedInfoDictionaryEv, 
                       __ZN2NS7Private8Selector26s_knumberWithUnsignedChar_Ev, __ZN2NS7Private8Selector26s_knumberWithUnsignedLong_Ev, 
                       __ZN2NS7Private8Selector27s_kdisableSuddenTerminationEv, __ZN2NS7Private8Selector27s_kfileSystemRepresentationEv, 
                       __ZN2NS7Private8Selector27s_klocalizedRecoveryOptionsEv, __ZN2NS7Private8Selector27s_knumberWithUnsignedShort_Ev, 
                       __ZN2NS7Private8Selector27s_kpreflightAndReturnError_Ev, __ZN2NS7Private8Selector27s_kstringByAppendingString_Ev, 
                       __ZN2NS7Private8Selector27s_kvalueWithBytes_objCType_Ev, __ZN2NS7Private8Selector28s_kinitWithCString_encoding_Ev, 
                       __ZN2NS7Private8Selector28s_kinitWithUnsignedLongLong_Ev, 
                       __ZN2NS7Private8Selector29s_kURLForAuxiliaryExecutable_Ev, 
                       __ZN2NS7Private8Selector30s_kenableAutomaticTermination_Ev, 
                       __ZN2NS7Private8Selector30s_klengthOfBytesUsingEncoding_Ev, 
                       __ZN2NS7Private8Selector30s_klocalizedRecoverySuggestionEv, 
                       __ZN2NS7Private8Selector30s_kmethodSignatureForSelector_Ev, 
                       __ZN2NS7Private8Selector30s_knumberWithUnsignedLongLong_Ev, 
                       __ZN2NS7Private8Selector30s_kobjectForInfoDictionaryKey_Ev, 
                       __ZN2NS7Private8Selector30s_kpathForAuxiliaryExecutable_Ev, 
                       __ZN2NS7Private8Selector30s_kstringWithCString_encoding_Ev, 
                       __ZN2NS7Private8Selector31s_kdictionaryWithObject_forKey_Ev, 
                       __ZN2NS7Private8Selector31s_kdisableAutomaticTermination_Ev, 
                       __ZN2NS7Private8Selector31s_koperatingSystemVersionStringEv, 
                       __ZN2NS7Private8Selector32s_kdateWithTimeIntervalSinceNow_Ev, 
                       __ZN2NS7Private8Selector32s_kinitWithDomain_code_userInfo_Ev, 
                       __ZN2NS7Private8Selector33s_kerrorWithDomain_code_userInfo_Ev, 
                       __ZN2NS7Private8Selector33s_kinitWithObjects_forKeys_count_Ev, 
                       __ZN2NS7Private8Selector35s_kbeginActivityWithOptions_reason_Ev, 
                       __ZN2NS7Private8Selector35s_kisOperatingSystemAtLeastVersion_Ev, 
                       __ZN2NS7Private8Selector37s_kautomaticTerminationSupportEnabledEv, 
                       __ZN2NS7Private8Selector37s_klocalizedStringForKey_value_table_Ev, 
                       __ZN2NS7Private8Selector37s_kmaximumLengthOfBytesUsingEncoding_Ev, 
                       __ZN2NS7Private8Selector38s_kaddObserverName_object_queue_block_Ev, 
                       __ZN2NS7Private8Selector39s_kdictionaryWithObjects_forKeys_count_Ev, 
                       __ZN2NS7Private8Selector41s_ksetAutomaticTerminationSupportEnabled_Ev, 
                       __ZN2NS7Private8Selector45s_kcountByEnumeratingWithState_objects_count_Ev, 
                       __ZN2NS7Private8Selector48s_kperformActivityWithOptions_reason_usingBlock_Ev, 
                       __ZN2NS7Private8Selector48s_kperformExpiringActivityWithReason_usingBlock_Ev, 
                       __ZN2NS7Private8Selector52s_kinitWithBytesNoCopy_length_encoding_freeWhenDone_Ev, 
                       __ZN2NS7Private8Selector7s_kcodeEv, __ZN2NS7Private8Selector7s_kcopyEv, 
                       __ZN2NS7Private8Selector7s_khashEv, __ZN2NS7Private8Selector7s_kinitEv, 
                       __ZN2NS7Private8Selector7s_kloadEv, __ZN2NS7Private8Selector7s_klockEv, 
                       __ZN2NS7Private8Selector7s_knameEv, __ZN2NS7Private8Selector7s_kwaitEv, 
                       __ZN2NS7Private8Selector8s_kallocEv, __ZN2NS7Private8Selector8s_karrayEv, 
                       __ZN2NS7Private8Selector8s_kcountEv, __ZN2NS7Private8Selector8s_kdrainEv, 
                       __ZN2NS7Private8Selector9s_kdomainEv, __ZN2NS7Private8Selector9s_klengthEv, 
                       __ZN2NS7Private8Selector9s_kobjectEv, __ZN2NS7Private8Selector9s_kretainEv, 
                       __ZN2NS7Private8Selector9s_ksignalEv, __ZN2NS7Private8Selector9s_kstringEv, 
                       __ZN2NS7Private8Selector9s_kunloadEv, __ZN2NS7Private8Selector9s_kunlockEv, 
                       __ZN3MTL14CopyAllDevicesEv, __ZN3MTL20RemoveDeviceObserverEPKN2NS6ObjectE, 
                       __ZN3MTL25CreateSystemDefaultDeviceEv, __ZN3MTL26CopyAllDevicesWithObserverEPPN2NS6ObjectERKNSt3__18functionIFvPNS_6DeviceEPNS0_6StringEEEE, 
                       __ZN3MTL26CopyAllDevicesWithObserverEPPN2NS6ObjectEU13block_pointerFvPNS_6DeviceEPNS0_6StringEE, 
                       __ZN3MTL7Private5Class10s_kMTLTypeEv, __ZN3MTL7Private5Class14s_kMTLArgumentEv, 
                       __ZN3MTL7Private5Class15s_kMTLArrayTypeEv, __ZN3MTL7Private5Class15s_kMTLAttributeEv, 
                       __ZN3MTL7Private5Class16s_kMTLStructTypeEv, __ZN3MTL7Private5Class17s_kMTLPointerTypeEv, 
                       __ZN3MTL7Private5Class18s_kMTLArchitectureEv, __ZN3MTL7Private5Class18s_kMTLStructMemberEv, 
                       __ZN3MTL7Private5Class20s_kMTLCaptureManagerEv, __ZN3MTL7Private5Class20s_kMTLCompileOptionsEv, 
                       __ZN3MTL7Private5Class20s_kMTLHeapDescriptorEv, __ZN3MTL7Private5Class21s_kMTLLinkedFunctionsEv, 
                       __ZN3MTL7Private5Class21s_kMTLVertexAttributeEv, __ZN3MTL7Private5Class22s_kMTLFunctionConstantEv, 
                       __ZN3MTL7Private5Class22s_kMTLVertexDescriptorEv, __ZN3MTL7Private5Class23s_kMTLCaptureDescriptorEv, 
                       __ZN3MTL7Private5Class23s_kMTLSamplerDescriptorEv, __ZN3MTL7Private5Class23s_kMTLSharedEventHandleEv, 
                       __ZN3MTL7Private5Class23s_kMTLStencilDescriptorEv, __ZN3MTL7Private5Class23s_kMTLTextureDescriptorEv, 
                       __ZN3MTL7Private5Class24s_kMTLArgumentDescriptorEv, __ZN3MTL7Private5Class24s_kMTLBlitPassDescriptorEv, 
                       __ZN3MTL7Private5Class24s_kMTLFunctionDescriptorEv, __ZN3MTL7Private5Class24s_kMTLLogStateDescriptorEv, 
                       __ZN3MTL7Private5Class24s_kMTLMotionKeyframeDataEv, __ZN3MTL7Private5Class25s_kMTLAttributeDescriptorEv, 
                       __ZN3MTL7Private5Class25s_kMTLSharedEventListenerEv, __ZN3MTL7Private5Class25s_kMTLSharedTextureHandleEv, 
                       __ZN3MTL7Private5Class26s_kMTLRenderPassDescriptorEv, __ZN3MTL7Private5Class26s_kMTLTextureReferenceTypeEv, 
                       __ZN3MTL7Private5Class27s_kMTLComputePassDescriptorEv, __ZN3MTL7Private5Class28s_kMTLBufferLayoutDescriptorEv, 
                       __ZN3MTL7Private5Class28s_kMTLCommandQueueDescriptorEv, __ZN3MTL7Private5Class28s_kMTLDepthStencilDescriptorEv, 
                       __ZN3MTL7Private5Class28s_kMTLFunctionConstantValuesEv, __ZN3MTL7Private5Class28s_kMTLFunctionStitchingGraphEv, 
                       __ZN3MTL7Private5Class28s_kMTLResidencySetDescriptorEv, __ZN3MTL7Private5Class29s_kMTLBinaryArchiveDescriptorEv, 
                       __ZN3MTL7Private5Class29s_kMTLCommandBufferDescriptorEv, __ZN3MTL7Private5Class30s_kMTLAttributeDescriptorArrayEv, 
